(dp0
Vresults
p1
(lp2
(dp3
Valternatives
p4
(lp5
(dp6
Vtimestamps
p7
(lp8
(lp9
V%HESITATION
p10
aF0.92
aF1.21
aasVconfidence
p11
F0.498
sVtranscript
p12
V%HESITATION 
p13
sasVfinal
p14
I01
sa(dp15
Valternatives
p16
(lp17
(dp18
Vtimestamps
p19
(lp20
(lp21
VNew
p22
aF24.24
aF24.48
aa(lp23
VYork
p24
aF24.48
aF24.74
aasVconfidence
p25
F0.373
sVtranscript
p26
VNew York 
p27
sasVfinal
p28
I01
sasVresult_index
p29
I0
sVspeaker_labels
p30
(lp31
(dp32
Vto
p33
F1.21
sVconfidence
p34
F0.5
sVspeaker
p35
I0
sVfrom
p36
F0.92
sVfinal
p37
I00
sa(dp38
Vto
p39
F24.48
sVconfidence
p40
F0.667
sVspeaker
p41
I1
sVfrom
p42
F24.24
sVfinal
p43
I00
sa(dp44
Vto
p45
F24.74
sVconfidence
p46
F0.667
sVspeaker
p47
I1
sVfrom
p48
F24.48
sVfinal
p49
I01
sas.