(dp0
Vresults
p1
(lp2
(dp3
Valternatives
p4
(lp5
(dp6
Vtimestamps
p7
(lp8
(lp9
V%HESITATION
p10
aF0.92
aF1.21
aasVconfidence
p11
F0.59
sVtranscript
p12
V%HESITATION 
p13
sasVfinal
p14
I01
sa(dp15
Valternatives
p16
(lp17
(dp18
Vtimestamps
p19
(lp20
(lp21
Vhi
p22
aF5.4
aF5.51
aa(lp23
Vhow
p24
aF5.51
aF5.66
aa(lp25
Vdo
p26
aF5.66
aF5.75
aa(lp27
Vyou
p28
aF5.75
aF5.85
aa(lp29
Vlook
p30
aF7.63
aF7.86
aasVconfidence
p31
F0.619
sVtranscript
p32
Vhi how do you look 
p33
sasVfinal
p34
I01
sa(dp35
Valternatives
p36
(lp37
(dp38
Vtimestamps
p39
(lp40
(lp41
VI
p42
aF9.6
aF9.67
aa(lp43
Vwant
p44
aF9.67
aF9.93
aa(lp45
Vone
p46
aF10.29
aF10.55
aa(lp47
Vbig
p48
aF10.58
aF10.74
aasVconfidence
p49
F0.595
sVtranscript
p50
VI want one big 
p51
sasVfinal
p52
I01
sa(dp53
Valternatives
p54
(lp55
(dp56
Vtimestamps
p57
(lp58
(lp59
VJane
p60
aF11.71
aF12.04
aa(lp61
Vgiven
p62
aF12.04
aF12.3
aa(lp63
Vin
p64
aF12.3
aF12.44
aa(lp65
Vthe
p66
aF12.44
aF12.53
aa(lp67
Vbook
p68
aF12.53
aF12.74
aasVconfidence
p69
F0.375
sVtranscript
p70
VJane given in the book 
p71
sasVfinal
p72
I01
sa(dp73
Valternatives
p74
(lp75
(dp76
Vtimestamps
p77
(lp78
(lp79
Vwhat
p80
aF13.81
aF14.04
aa(lp81
Vare
p82
aF16.8
aF16.91
aa(lp83
Vyou
p84
aF16.91
aF17.07
aa(lp85
Vgoing
p86
aF17.11
aF17.3
aa(lp87
Vto
p88
aF17.3
aF17.4
aa(lp89
Vbe
p90
aF17.4
aF17.52
aa(lp91
Vout
p92
aF17.52
aF17.69
aa(lp93
Vfor
p94
aF17.74
aF17.85
aa(lp95
Vthe
p96
aF17.85
aF18.1
aa(lp97
Vpeople's
p98
aF18.13
aF18.44
aa(lp99
Vchoice
p100
aF18.44
aF18.72
aasVconfidence
p101
F0.664
sVtranscript
p102
Vwhat are you going to be out for the people's choice 
p103
sasVfinal
p104
I01
sa(dp105
Valternatives
p106
(lp107
(dp108
Vtimestamps
p109
(lp110
(lp111
Vyeah
p112
aF20.02
aF20.29
aa(lp113
Vthat's
p114
aF20.29
aF20.54
aa(lp115
Vthe
p116
aF20.79
aF20.91
aa(lp117
Vmodel
p118
aF20.91
aF21.32
aa(lp119
V%HESITATION
p120
aF21.35
aF21.77
aa(lp121
V%HESITATION
p122
aF22.14
aF22.35
aa(lp123
Vman
p124
aF22.35
aF22.69
aa(lp125
V%HESITATION
p126
aF22.69
aF22.9
aa(lp127
VI'm
p128
aF22.9
aF23.13
aa(lp129
Vjust
p130
aF23.13
aF23.41
aasVconfidence
p131
F0.637
sVtranscript
p132
Vyeah that's the model %HESITATION %HESITATION man %HESITATION I'm just 
p133
sasVfinal
p134
I01
sa(dp135
Valternatives
p136
(lp137
(dp138
Vtimestamps
p139
(lp140
(lp141
VI'm
p142
aF23.88
aF24.03
aa(lp143
Vjust
p144
aF24.03
aF24.19
aa(lp145
Vgoing
p146
aF24.19
aF24.35
aa(lp147
Vto
p148
aF24.35
aF24.41
aa(lp149
Veven
p150
aF24.41
aF24.67
aa(lp151
Vget
p152
aF24.92
aF25.06
aa(lp153
Vnominated
p154
aF25.06
aF25.51
aasVconfidence
p155
F0.411
sVtranscript
p156
VI'm just going to even get nominated 
p157
sasVfinal
p158
I01
sa(dp159
Valternatives
p160
(lp161
(dp162
Vtimestamps
p163
(lp164
(lp165
Vwhat
p166
aF27.01
aF27.16
aa(lp167
Vever
p168
aF27.16
aF27.54
aa(lp169
g42
aF28.04
aF28.13
aa(lp170
Vdon't
p171
aF28.13
aF28.27
aa(lp172
Vreally
p173
aF28.27
aF28.44
aa(lp174
Vcare
p175
aF28.44
aF28.78
aa(lp176
Vall
p177
aF29.21
aF29.44
aa(lp178
g42
aF29.44
aF29.58
aa(lp179
Vdon't
p180
aF29.96
aF30.16
aa(lp181
Vknow
p182
aF30.59
aF30.72
aa(lp183
Vthat
p184
aF30.72
aF30.88
aa(lp185
g42
aF30.88
aF30.92
aa(lp186
Vthink
p187
aF30.92
aF31.21
aa(lp188
Vit
p189
aF31.21
aF31.56
aa(lp190
Vwas
p191
aF31.59
aF31.88
aa(lp192
Valso
p193
aF31.88
aF32.17
aa(lp194
Vyou
p195
aF32.53
aF32.64
aa(lp196
Vknow
p197
aF32.64
aF32.76
aa(lp198
Vyou
p199
aF32.76
aF32.83
aa(lp200
Vget
p201
aF32.83
aF33.0
aa(lp202
Vsomebody
p203
aF33.0
aF33.35
aa(lp204
Vin
p205
aF33.73
aF33.82
aa(lp206
Vthe
p207
aF33.82
aF33.99
aa(lp208
Vyou
p209
aF33.99
aF34.1
aa(lp210
Vknow
p211
aF34.1
aF34.28
aa(lp212
Vthe
p213
aF35.05
aF35.17
aa(lp214
Vschool
p215
aF35.17
aF35.44
aa(lp216
Vis
p217
aF35.44
aF35.62
aa(lp218
Vofficially
p219
aF35.86
aF36.23
aa(lp220
Vwith
p221
aF36.23
aF36.4
aa(lp222
Vthe
p223
aF36.4
aF36.49
aa(lp224
Vpeople
p225
aF36.49
aF36.77
aa(lp226
Vsort
p227
aF36.77
aF37.04
aa(lp228
Vof
p229
aF37.26
aF37.47
aasVconfidence
p230
F0.585
sVtranscript
p231
Vwhat ever I don't really care all I don't know that I think it was also you know you get somebody in the you know the school is officially with the people sort of 
p232
sasVfinal
p233
I01
sa(dp234
Valternatives
p235
(lp236
(dp237
Vtimestamps
p238
(lp239
(lp240
Vit's
p241
aF37.98
aF38.18
aa(lp242
Vlike
p243
aF38.18
aF38.39
aa(lp244
Vwhat
p245
aF38.5
aF38.74
aa(lp246
Vthe
p247
aF38.74
aF38.81
aa(lp248
Vpeople
p249
aF38.81
aF39.06
aasVconfidence
p250
F0.576
sVtranscript
p251
Vit's like what the people 
p252
sasVfinal
p253
I01
sa(dp254
Valternatives
p255
(lp256
(dp257
Vtimestamps
p258
(lp259
(lp260
Vit's
p261
aF40.23
aF40.42
aa(lp262
Vin
p263
aF40.45
aF40.6
aa(lp264
Vthis
p265
aF40.6
aF40.75
aa(lp266
Vfrom
p267
aF40.75
aF40.98
aa(lp268
Vthe
p269
aF40.98
aF41.08
aa(lp270
Vpeople
p271
aF41.08
aF41.37
aa(lp272
Vvoted
p273
aF42.02
aF42.32
aa(lp274
Vone
p275
aF42.32
aF42.55
aasVconfidence
p276
F0.656
sVtranscript
p277
Vit's in this from the people voted one 
p278
sasVfinal
p279
I01
sa(dp280
Valternatives
p281
(lp282
(dp283
Vtimestamps
p284
(lp285
(lp286
Vyeah
p287
aF43.92
aF44.13
aasVconfidence
p288
F0.575
sVtranscript
p289
Vyeah 
p290
sasVfinal
p291
I01
sa(dp292
Valternatives
p293
(lp294
(dp295
Vtimestamps
p296
(lp297
(lp298
Vhow
p299
aF45.9
aF46.01
aa(lp300
Vyou
p301
aF46.01
aF46.15
aa(lp302
Vdoing
p303
aF46.15
aF46.35
aa(lp304
Vtoday
p305
aF46.35
aF46.55
aa(lp306
VI'm
p307
aF46.76
aF46.98
aa(lp308
Vvery
p309
aF46.98
aF47.33
aa(lp310
Vwell
p311
aF47.33
aF47.57
aa(lp312
Vis
p313
aF47.57
aF47.65
aa(lp314
Vthat
p315
aF47.65
aF47.76
aa(lp316
Vif
p317
aF47.76
aF47.84
aa(lp318
Vyou
p319
aF47.84
aF47.95
aa(lp320
Vmiss
p321
aF47.95
aF48.18
aa(lp322
Vsome
p323
aF48.18
aF48.41
aa(lp324
Vgood
p325
aF48.41
aF48.66
aa(lp326
Vhow
p327
aF49.71
aF49.81
aa(lp328
Vyou
p329
aF49.81
aF49.92
aa(lp330
Vgo
p331
aF49.92
aF50.08
aa(lp332
Vabout
p333
aF50.17
aF50.38
aa(lp334
Vyour
p335
aF50.38
aF50.51
aa(lp336
Vhome
p337
aF50.62
aF50.85
aa(lp338
Vand
p339
aF50.85
aF51.02
aa(lp340
V%HESITATION
p341
aF51.31
aF51.6
aa(lp342
VI'm
p343
aF51.6
aF51.79
aa(lp344
Vexcited
p345
aF51.79
aF52.2
aa(lp346
Va
p347
aF52.2
aF52.35
aa(lp348
Vyeah
p349
aF52.35
aF52.61
aa(lp350
g42
aF52.61
aF52.68
aa(lp351
Vhad
p352
aF52.68
aF52.8
aa(lp353
g347
aF52.8
aF52.85
aa(lp354
Vgood
p355
aF52.85
aF53.1
aa(lp356
V%HESITATION
p357
aF53.3
aF53.62
aa(lp358
Vsense
p359
aF53.62
aF53.95
aa(lp360
V%HESITATION
p361
aF53.95
aF54.21
aa(lp362
VJohn
p363
aF54.21
aF54.51
aa(lp364
Vso
p365
aF54.51
aF54.67
aa(lp366
Vgood
p367
aF54.67
aF54.96
aa(lp368
Vmy
p369
aF55.34
aF55.51
aa(lp370
Vearly
p371
aF55.51
aF55.79
aa(lp372
Vthis
p373
aF55.79
aF55.97
aa(lp374
Vmorning
p375
aF55.97
aF56.33
aa(lp376
Vand
p377
aF56.33
aF56.61
aa(lp378
Vjust
p379
aF56.84
aF57.05
aa(lp380
Vleave
p381
aF57.2
aF57.41
aa(lp382
Vme
p383
aF57.51
aF57.65
aa(lp384
Vout
p385
aF57.65
aF57.8
aa(lp386
g347
aF57.8
aF57.83
aa(lp387
Vlittle
p388
aF57.83
aF58.01
aa(lp389
Vbit
p390
aF58.01
aF58.16
aa(lp391
Vbecause
p392
aF58.2
aF58.51
aa(lp393
Vthere's
p394
aF58.51
aF58.7
aa(lp395
g347
aF58.7
aF58.77
aa(lp396
Vfew
p397
aF58.77
aF58.94
aa(lp398
Vpeople
p399
aF58.94
aF59.52
aa(lp400
Vin
p401
aF59.81
aF59.89
aa(lp402
Vthe
p403
aF59.89
aF59.95
aa(lp404
Vmusic
p405
aF59.95
aF60.23
aa(lp406
Vindustry
p407
aF60.23
aF60.56
aa(lp408
Varound
p409
aF60.56
aF60.81
aa(lp410
Vhere
p411
aF60.81
aF60.98
aa(lp412
Vso
p413
aF60.98
aF61.14
aa(lp414
g42
aF61.14
aF61.17
aa(lp415
Vdon't
p416
aF61.17
aF61.31
aa(lp417
Vwant
p418
aF61.31
aF61.43
aa(lp419
Vto
p420
aF61.43
aF61.49
aa(lp421
Vstep
p422
aF61.49
aF61.75
aa(lp423
Vup
p424
aF61.75
aF61.89
aa(lp425
Vbut
p426
aF61.89
aF62.07
aa(lp427
Vhe
p428
aF62.07
aF62.21
aa(lp429
Vdoes
p430
aF62.21
aF62.5
aa(lp431
Vyeah
p432
aF63.11
aF63.3
aa(lp433
Vit's
p434
aF63.3
aF63.6
aa(lp435
Vbeen
p436
aF63.66
aF63.79
aa(lp437
g347
aF63.79
aF63.84
aa(lp438
Vfew
p439
aF63.84
aF64.08
aa(lp440
Vgood
p441
aF64.08
aF64.23
aa(lp442
Vthings
p443
aF64.23
aF64.5
aa(lp444
Vand
p445
aF64.5
aF64.59
aa(lp446
Vthey
p447
aF64.59
aF64.7
aa(lp448
Vsay
p449
aF64.7
aF65.06
aa(lp450
Vto
p451
aF65.48
aF65.66
aa(lp452
Vyou
p453
aF65.66
aF65.72
aa(lp454
Vgood
p455
aF65.72
aF65.99
aa(lp456
Vhe's
p457
aF66.03
aF66.26
aa(lp458
Vtoo
p459
aF66.26
aF66.45
aa(lp460
Vgood
p461
aF66.45
aF66.71
aasVconfidence
p462
F0.749
sVtranscript
p463
Vhow you doing today I'm very well is that if you miss some good how you go about your home and %HESITATION I'm excited a yeah I had a good %HESITATION sense %HESITATION John so good my early this morning and just leave me out a little bit because there's a few people in the music industry around here so I don't want to step up but he does yeah it's been a few good things and they say to you good he's too good 
p464
sasVfinal
p465
I01
sa(dp466
Valternatives
p467
(lp468
(dp469
Vtimestamps
p470
(lp471
(lp472
Vtell
p473
aF67.84
aF68.04
aa(lp474
Vus
p475
aF68.04
aF68.18
aa(lp476
Vwhat
p477
aF68.89
aF69.08
aa(lp478
Vyou
p479
aF69.08
aF69.18
aa(lp480
Vgonna
p481
aF69.18
aF69.33
aa(lp482
Vbe
p483
aF69.33
aF69.44
aa(lp484
Vsinging
p485
aF69.44
aF69.86
aasVconfidence
p486
F0.605
sVtranscript
p487
Vtell us what you gonna be singing 
p488
sasVfinal
p489
I01
sa(dp490
Valternatives
p491
(lp492
(dp493
Vtimestamps
p494
(lp495
(lp496
V%HESITATION
p497
aF71.14
aF71.65
aasVconfidence
p498
F0.991
sVtranscript
p499
V%HESITATION 
p500
sasVfinal
p501
I01
sa(dp502
Valternatives
p503
(lp504
(dp505
Vtimestamps
p506
(lp507
(lp508
g42
aF72.75
aF72.86
aa(lp509
Vdon't
p510
aF72.86
aF72.98
aa(lp511
Vknow
p512
aF72.98
aF73.09
aa(lp513
Vwhat
p514
aF73.09
aF73.28
aa(lp515
Vto
p516
aF73.31
aF73.43
aa(lp517
Vsay
p518
aF73.43
aF73.65
aa(lp519
Vabout
p520
aF73.65
aF73.94
aa(lp521
Vfrom
p522
aF73.94
aF74.26
aa(lp523
V%HESITATION
p524
aF74.26
aF74.64
aa(lp525
V%HESITATION
p526
aF74.67
aF75.05
aa(lp527
Vmake
p528
aF75.14
aF75.44
aa(lp529
Vyou
p530
aF75.44
aF75.71
aa(lp531
Vmine
p532
aF76.09
aF76.42
aasVconfidence
p533
F0.888
sVtranscript
p534
VI don't know what to say about from %HESITATION %HESITATION make you mine 
p535
sasVfinal
p536
I01
sa(dp537
Valternatives
p538
(lp539
(dp540
Vtimestamps
p541
(lp542
(lp543
Vyeah
p544
aF77.56
aF78.0
aasVconfidence
p545
F0.917
sVtranscript
p546
Vyeah 
p547
sasVfinal
p548
I01
sa(dp549
Valternatives
p550
(lp551
(dp552
Vtimestamps
p553
(lp554
(lp555
g42
aF79.03
aF79.06
aa(lp556
Vdon't
p557
aF79.09
aF79.3
aa(lp558
Vbelieve
p559
aF79.5
aF79.72
aa(lp560
Vin
p561
aF79.72
aF79.8
aa(lp562
g347
aF79.8
aF79.97
aasVconfidence
p563
F0.574
sVtranscript
p564
VI don't believe in a 
p565
sasVfinal
p566
I01
sa(dp567
Valternatives
p568
(lp569
(dp570
Vtimestamps
p571
(lp572
(lp573
V%HESITATION
p574
aF81.24
aF81.68
aa(lp575
Vnone
p576
aF81.71
aF82.19
aa(lp577
Vmust
p578
aF82.25
aF82.63
aa(lp579
Vdelivery
p580
aF82.66
aF83.39
aasVconfidence
p581
F0.592
sVtranscript
p582
V%HESITATION none must delivery 
p583
sasVfinal
p584
I01
sa(dp585
Valternatives
p586
(lp587
(dp588
Vtimestamps
p589
(lp590
(lp591
g42
aF84.02
aF84.14
aa(lp592
Vwant
p593
aF84.14
aF84.34
aa(lp594
Vto
p595
aF84.34
aF84.44
aa(lp596
Vlike
p597
aF84.44
aF84.84
aa(lp598
g42
aF84.87
aF84.93
aa(lp599
Vwant
p600
aF84.93
aF85.14
aa(lp601
Vto
p602
aF85.14
aF85.29
aa(lp603
Vlike
p604
aF85.29
aF85.66
aa(lp605
Vget
p606
aF85.84
aF86.09
aa(lp607
Voff
p608
aF86.09
aF86.23
aa(lp609
Vwhen
p610
aF86.23
aF86.37
aa(lp611
Vthe
p612
aF86.37
aF86.62
aa(lp613
Vsamples
p614
aF86.8
aF87.36
aa(lp615
Vthat
p616
aF87.36
aF87.63
aa(lp617
Vlight
p618
aF87.63
aF87.89
aa(lp619
Vlevel
p620
aF87.89
aF88.3
aa(lp621
Vand
p622
aF88.3
aF88.55
aa(lp623
Vthe
p624
aF88.71
aF88.88
aa(lp625
Vlike
p626
aF88.88
aF89.25
aasVconfidence
p627
F0.78
sVtranscript
p628
VI want to like I want to like get off when the samples that light level and the like 
p629
sasVfinal
p630
I01
sa(dp631
Valternatives
p632
(lp633
(dp634
Vtimestamps
p635
(lp636
(lp637
g42
aF90.24
aF90.35
aa(lp638
Vdon't
p639
aF90.35
aF90.54
aa(lp640
Vknow
p641
aF90.54
aF90.89
aa(lp642
Vcelebrity
p643
aF91.04
aF91.66
aa(lp644
Vwrestling
p645
aF91.66
aF92.44
aasVconfidence
p646
F0.998
sVtranscript
p647
VI don't know celebrity wrestling 
p648
sasVfinal
p649
I01
sa(dp650
Valternatives
p651
(lp652
(dp653
Vtimestamps
p654
(lp655
(lp656
g42
aF93.73
aF93.85
aa(lp657
Vdon't
p658
aF93.85
aF94.04
aa(lp659
Vknow
p660
aF94.04
aF94.41
aasVconfidence
p661
F0.998
sVtranscript
p662
VI don't know 
p663
sasVfinal
p664
I01
sa(dp665
Valternatives
p666
(lp667
(dp668
Vtimestamps
p669
(lp670
(lp671
Vwe're
p672
aF95.39
aF95.54
aa(lp673
Vgonna
p674
aF95.54
aF95.76
aa(lp675
Vhave
p676
aF95.76
aF95.92
aa(lp677
g347
aF95.92
aF95.95
aa(lp678
Vreality
p679
aF95.95
aF96.4
aa(lp680
Vshow
p681
aF96.4
aF96.85
aa(lp682
Vyeah
p683
aF97.22
aF97.48
aa(lp684
Vit's
p685
aF97.48
aF97.66
aa(lp686
Vgoing
p687
aF97.66
aF97.98
aa(lp688
Vto
p689
aF98.1
aF98.22
aa(lp690
Vgo
p691
aF98.22
aF98.34
aa(lp692
Von
p693
aF98.34
aF98.44
aa(lp694
Vthe
p695
aF98.44
aF98.53
aa(lp696
Vcrane
p697
aF98.53
aF98.97
aasVconfidence
p698
F0.585
sVtranscript
p699
Vwe're gonna have a reality show yeah it's going to go on the crane 
p700
sasVfinal
p701
I01
sa(dp702
Valternatives
p703
(lp704
(dp705
Vtimestamps
p706
(lp707
(lp708
Vcan
p709
aF100.86
aF101.03
aa(lp710
Vyou
p711
aF101.03
aF101.12
aa(lp712
Vgive
p713
aF101.12
aF101.26
aa(lp714
Vus
p715
aF101.26
aF101.47
aa(lp716
Vlike
p717
aF101.47
aF101.69
aa(lp718
g347
aF101.72
aF101.81
aa(lp719
Vcouple
p720
aF101.81
aF102.11
aa(lp721
Vof
p722
aF102.11
aF102.21
aa(lp723
Vlines
p724
aF102.21
aF102.57
aa(lp725
Vcan
p726
aF102.57
aF102.69
aa(lp727
Vyou
p728
aF102.69
aF102.78
aa(lp729
Vgive
p730
aF102.78
aF102.91
aa(lp731
Vus
p732
aF102.91
aF103.06
aa(lp733
g347
aF103.06
aF103.13
aa(lp734
Vcouple
p735
aF103.13
aF103.38
aa(lp736
Vthe
p737
aF103.38
aF103.76
aa(lp738
Vline
p739
aF103.89
aF104.14
aa(lp740
Vfrom
p741
aF104.14
aF104.34
aa(lp742
Vright
p743
aF104.34
aF104.71
aa(lp744
Vyeah
p745
aF104.98
aF105.26
aa(lp746
Vokay
p747
aF105.26
aF105.42
aa(lp748
g42
aF105.42
aF105.51
aa(lp749
Vgot
p750
aF105.51
aF105.67
aa(lp751
g42
aF105.78
aF105.92
aa(lp752
Vgot
p753
aF105.92
aF106.1
aa(lp754
Vsomething
p755
aF106.1
aF106.36
aa(lp756
Vyou
p757
aF106.36
aF106.58
aa(lp758
g42
aF106.58
aF106.69
aa(lp759
Vshould
p760
aF106.69
aF106.91
aa(lp761
Vbe
p762
aF106.91
aF107.0
aa(lp763
Vdoing
p764
aF107.0
aF107.32
aa(lp765
Vthis
p766
aF107.32
aF107.53
aa(lp767
Visn't
p768
aF107.53
aF108.0
aa(lp769
Vokay
p770
aF108.0
aF108.24
aa(lp771
Vit
p772
aF108.24
aF108.52
aa(lp773
Vthis
p774
aF108.83
aF108.96
aa(lp775
Visn't
p776
aF108.96
aF109.22
aa(lp777
Vokay
p778
aF109.22
aF109.51
aa(lp779
Vis
p780
aF109.51
aF109.77
aa(lp781
Vreally
p782
aF109.77
aF110.02
aa(lp783
Vexclusive
p784
aF110.02
aF110.55
aa(lp785
Vyeah
p786
aF110.55
aF110.97
aa(lp787
Vyeah
p788
aF111.24
aF111.61
aa(lp789
Vyeah
p790
aF111.61
aF111.97
aa(lp791
VI'm
p792
aF111.97
aF112.06
aa(lp793
Vnot
p794
aF112.06
aF112.24
aa(lp795
Vready
p796
aF112.24
aF112.41
aa(lp797
Vfor
p798
aF112.41
aF112.53
aa(lp799
Vthis
p800
aF112.53
aF112.76
aa(lp801
Vdead
p802
aF112.76
aF113.49
aa(lp803
V%HESITATION
p804
aF113.73
aF114.06
aa(lp805
Vso
p806
aF114.06
aF114.28
aa(lp807
Vthat
p808
aF114.28
aF114.66
aasVconfidence
p809
F0.654
sVtranscript
p810
Vcan you give us like a couple of lines can you give us a couple the line from right yeah okay I got I got something you I should be doing this isn't okay it this isn't okay is really exclusive yeah yeah yeah I'm not ready for this dead %HESITATION so that 
p811
sasVfinal
p812
I01
sa(dp813
Valternatives
p814
(lp815
(dp816
Vtimestamps
p817
(lp818
(lp819
V%HESITATION
p820
aF115.19
aF115.73
aasVconfidence
p821
F0.999
sVtranscript
p822
V%HESITATION 
p823
sasVfinal
p824
I01
sa(dp825
Valternatives
p826
(lp827
(dp828
Vtimestamps
p829
(lp830
(lp831
Vyoung
p832
aF116.21
aF116.55
aa(lp833
Vheart
p834
aF116.83
aF117.24
aa(lp835
Vache
p836
aF117.33
aF117.69
aa(lp837
Vshouting
p838
aF117.69
aF118.18
aa(lp839
Vyou
p840
aF118.18
aF118.28
aa(lp841
Vwith
p842
aF118.28
aF118.45
aa(lp843
Vmy
p844
aF118.45
aF118.63
aa(lp845
Vheart
p846
aF118.63
aF118.93
aa(lp847
Vrate
p848
aF118.93
aF119.33
aasVconfidence
p849
F0.553
sVtranscript
p850
Vyoung heart ache shouting you with my heart rate 
p851
sasVfinal
p852
I01
sa(dp853
Valternatives
p854
(lp855
(dp856
Vtimestamps
p857
(lp858
(lp859
VSaudi
p860
aF120.06
aF120.53
aa(lp861
Vyou
p862
aF120.53
aF120.65
aa(lp863
Vwith
p864
aF120.65
aF120.8
aa(lp865
Vthe
p866
aF120.8
aF120.89
aa(lp867
Vprettiest
p868
aF120.89
aF121.4
aa(lp869
Vpitches
p870
aF121.4
aF121.8
aa(lp871
Vsitting
p872
aF121.8
aF122.07
aa(lp873
Vinside
p874
aF122.07
aF122.47
aa(lp875
Vof
p876
aF122.47
aF122.57
aa(lp877
g347
aF122.57
aF122.64
aa(lp878
Vheart
p879
aF122.64
aF122.97
aa(lp880
Vshape
p881
aF122.97
aF123.42
aasVconfidence
p882
F0.573
sVtranscript
p883
VSaudi you with the prettiest pitches sitting inside of a heart shape 
p884
sasVfinal
p885
I01
sa(dp886
Valternatives
p887
(lp888
(dp889
Vtimestamps
p890
(lp891
(lp892
Vthat's
p893
aF124.26
aF124.46
aa(lp894
Vit
p895
aF124.46
aF124.65
aa(lp896
Vfor
p897
aF125.41
aF125.56
aa(lp898
Vthe
p899
aF125.56
aF125.69
aa(lp900
Vlong
p901
aF125.69
aF125.95
aasVconfidence
p902
F0.662
sVtranscript
p903
Vthat's it for the long 
p904
sasVfinal
p905
I01
sasVresult_index
p906
I0
sVspeaker_labels
p907
(lp908
(dp909
Vto
p910
F1.21
sVconfidence
p911
F0.421
sVspeaker
p912
I3
sVfrom
p913
F0.92
sVfinal
p914
I00
sa(dp915
Vto
p916
F5.51
sVconfidence
p917
F0.485
sVspeaker
p918
I1
sVfrom
p919
F5.4
sVfinal
p920
I00
sa(dp921
Vto
p922
F5.66
sVconfidence
p923
F0.485
sVspeaker
p924
I1
sVfrom
p925
F5.51
sVfinal
p926
I00
sa(dp927
Vto
p928
F5.75
sVconfidence
p929
F0.485
sVspeaker
p930
I1
sVfrom
p931
F5.66
sVfinal
p932
I00
sa(dp933
Vto
p934
F5.85
sVconfidence
p935
F0.485
sVspeaker
p936
I1
sVfrom
p937
F5.75
sVfinal
p938
I00
sa(dp939
Vto
p940
F7.86
sVconfidence
p941
F0.347
sVspeaker
p942
I1
sVfrom
p943
F7.63
sVfinal
p944
I00
sa(dp945
Vto
p946
F9.67
sVconfidence
p947
F0.301
sVspeaker
p948
I3
sVfrom
p949
F9.6
sVfinal
p950
I00
sa(dp951
Vto
p952
F9.93
sVconfidence
p953
F0.301
sVspeaker
p954
I3
sVfrom
p955
F9.67
sVfinal
p956
I00
sa(dp957
Vto
p958
F10.55
sVconfidence
p959
F0.344
sVspeaker
p960
I3
sVfrom
p961
F10.29
sVfinal
p962
I00
sa(dp963
Vto
p964
F10.74
sVconfidence
p965
F0.458
sVspeaker
p966
I3
sVfrom
p967
F10.58
sVfinal
p968
I00
sa(dp969
Vto
p970
F12.04
sVconfidence
p971
F0.579
sVspeaker
p972
I3
sVfrom
p973
F11.71
sVfinal
p974
I00
sa(dp975
Vto
p976
F12.3
sVconfidence
p977
F0.579
sVspeaker
p978
I3
sVfrom
p979
F12.04
sVfinal
p980
I00
sa(dp981
Vto
p982
F12.44
sVconfidence
p983
F0.579
sVspeaker
p984
I3
sVfrom
p985
F12.3
sVfinal
p986
I00
sa(dp987
Vto
p988
F12.53
sVconfidence
p989
F0.579
sVspeaker
p990
I3
sVfrom
p991
F12.44
sVfinal
p992
I00
sa(dp993
Vto
p994
F12.74
sVconfidence
p995
F0.579
sVspeaker
p996
I3
sVfrom
p997
F12.53
sVfinal
p998
I00
sa(dp999
Vto
p1000
F14.04
sVconfidence
p1001
F0.477
sVspeaker
p1002
I3
sVfrom
p1003
F13.81
sVfinal
p1004
I00
sa(dp1005
Vto
p1006
F16.91
sVconfidence
p1007
F0.479
sVspeaker
p1008
I1
sVfrom
p1009
F16.8
sVfinal
p1010
I00
sa(dp1011
Vto
p1012
F17.07
sVconfidence
p1013
F0.479
sVspeaker
p1014
I1
sVfrom
p1015
F16.91
sVfinal
p1016
I00
sa(dp1017
Vto
p1018
F17.3
sVconfidence
p1019
F0.363
sVspeaker
p1020
I3
sVfrom
p1021
F17.11
sVfinal
p1022
I00
sa(dp1023
Vto
p1024
F17.4
sVconfidence
p1025
F0.363
sVspeaker
p1026
I3
sVfrom
p1027
F17.3
sVfinal
p1028
I00
sa(dp1029
Vto
p1030
F17.52
sVconfidence
p1031
F0.363
sVspeaker
p1032
I3
sVfrom
p1033
F17.4
sVfinal
p1034
I00
sa(dp1035
Vto
p1036
F17.69
sVconfidence
p1037
F0.363
sVspeaker
p1038
I3
sVfrom
p1039
F17.52
sVfinal
p1040
I00
sa(dp1041
Vto
p1042
F17.85
sVconfidence
p1043
F0.463
sVspeaker
p1044
I1
sVfrom
p1045
F17.74
sVfinal
p1046
I00
sa(dp1047
Vto
p1048
F18.1
sVconfidence
p1049
F0.463
sVspeaker
p1050
I1
sVfrom
p1051
F17.85
sVfinal
p1052
I00
sa(dp1053
Vto
p1054
F18.44
sVconfidence
p1055
F0.564
sVspeaker
p1056
I3
sVfrom
p1057
F18.13
sVfinal
p1058
I00
sa(dp1059
Vto
p1060
F18.72
sVconfidence
p1061
F0.564
sVspeaker
p1062
I3
sVfrom
p1063
F18.44
sVfinal
p1064
I00
sa(dp1065
Vto
p1066
F20.29
sVconfidence
p1067
F0.346
sVspeaker
p1068
I3
sVfrom
p1069
F20.02
sVfinal
p1070
I00
sa(dp1071
Vto
p1072
F20.54
sVconfidence
p1073
F0.346
sVspeaker
p1074
I3
sVfrom
p1075
F20.29
sVfinal
p1076
I00
sa(dp1077
Vto
p1078
F20.91
sVconfidence
p1079
F0.334
sVspeaker
p1080
I3
sVfrom
p1081
F20.79
sVfinal
p1082
I00
sa(dp1083
Vto
p1084
F21.32
sVconfidence
p1085
F0.334
sVspeaker
p1086
I3
sVfrom
p1087
F20.91
sVfinal
p1088
I00
sa(dp1089
Vto
p1090
F21.77
sVconfidence
p1091
F0.31
sVspeaker
p1092
I3
sVfrom
p1093
F21.35
sVfinal
p1094
I00
sa(dp1095
Vto
p1096
F22.35
sVconfidence
p1097
F0.384
sVspeaker
p1098
I3
sVfrom
p1099
F22.14
sVfinal
p1100
I00
sa(dp1101
Vto
p1102
F22.69
sVconfidence
p1103
F0.384
sVspeaker
p1104
I3
sVfrom
p1105
F22.35
sVfinal
p1106
I00
sa(dp1107
Vto
p1108
F22.9
sVconfidence
p1109
F0.384
sVspeaker
p1110
I3
sVfrom
p1111
F22.69
sVfinal
p1112
I00
sa(dp1113
Vto
p1114
F23.13
sVconfidence
p1115
F0.384
sVspeaker
p1116
I3
sVfrom
p1117
F22.9
sVfinal
p1118
I00
sa(dp1119
Vto
p1120
F23.41
sVconfidence
p1121
F0.384
sVspeaker
p1122
I3
sVfrom
p1123
F23.13
sVfinal
p1124
I00
sa(dp1125
Vto
p1126
F24.03
sVconfidence
p1127
F0.43
sVspeaker
p1128
I3
sVfrom
p1129
F23.88
sVfinal
p1130
I00
sa(dp1131
Vto
p1132
F24.19
sVconfidence
p1133
F0.43
sVspeaker
p1134
I3
sVfrom
p1135
F24.03
sVfinal
p1136
I00
sa(dp1137
Vto
p1138
F24.35
sVconfidence
p1139
F0.43
sVspeaker
p1140
I3
sVfrom
p1141
F24.19
sVfinal
p1142
I00
sa(dp1143
Vto
p1144
F24.41
sVconfidence
p1145
F0.43
sVspeaker
p1146
I3
sVfrom
p1147
F24.35
sVfinal
p1148
I00
sa(dp1149
Vto
p1150
F24.67
sVconfidence
p1151
F0.43
sVspeaker
p1152
I3
sVfrom
p1153
F24.41
sVfinal
p1154
I00
sa(dp1155
Vto
p1156
F25.06
sVconfidence
p1157
F0.431
sVspeaker
p1158
I3
sVfrom
p1159
F24.92
sVfinal
p1160
I00
sa(dp1161
Vto
p1162
F25.51
sVconfidence
p1163
F0.431
sVspeaker
p1164
I3
sVfrom
p1165
F25.06
sVfinal
p1166
I00
sa(dp1167
Vto
p1168
F27.16
sVconfidence
p1169
F0.485
sVspeaker
p1170
I3
sVfrom
p1171
F27.01
sVfinal
p1172
I00
sa(dp1173
Vto
p1174
F27.54
sVconfidence
p1175
F0.485
sVspeaker
p1176
I3
sVfrom
p1177
F27.16
sVfinal
p1178
I00
sa(dp1179
Vto
p1180
F28.13
sVconfidence
p1181
F0.369
sVspeaker
p1182
I3
sVfrom
p1183
F28.04
sVfinal
p1184
I00
sa(dp1185
Vto
p1186
F28.27
sVconfidence
p1187
F0.369
sVspeaker
p1188
I3
sVfrom
p1189
F28.13
sVfinal
p1190
I00
sa(dp1191
Vto
p1192
F28.44
sVconfidence
p1193
F0.369
sVspeaker
p1194
I3
sVfrom
p1195
F28.27
sVfinal
p1196
I00
sa(dp1197
Vto
p1198
F28.78
sVconfidence
p1199
F0.369
sVspeaker
p1200
I3
sVfrom
p1201
F28.44
sVfinal
p1202
I00
sa(dp1203
Vto
p1204
F29.44
sVconfidence
p1205
F0.618
sVspeaker
p1206
I3
sVfrom
p1207
F29.21
sVfinal
p1208
I00
sa(dp1209
Vto
p1210
F29.58
sVconfidence
p1211
F0.618
sVspeaker
p1212
I3
sVfrom
p1213
F29.44
sVfinal
p1214
I00
sa(dp1215
Vto
p1216
F30.16
sVconfidence
p1217
F0.425
sVspeaker
p1218
I3
sVfrom
p1219
F29.96
sVfinal
p1220
I00
sa(dp1221
Vto
p1222
F30.72
sVconfidence
p1223
F0.384
sVspeaker
p1224
I3
sVfrom
p1225
F30.59
sVfinal
p1226
I00
sa(dp1227
Vto
p1228
F30.88
sVconfidence
p1229
F0.384
sVspeaker
p1230
I3
sVfrom
p1231
F30.72
sVfinal
p1232
I00
sa(dp1233
Vto
p1234
F30.92
sVconfidence
p1235
F0.384
sVspeaker
p1236
I3
sVfrom
p1237
F30.88
sVfinal
p1238
I00
sa(dp1239
Vto
p1240
F31.21
sVconfidence
p1241
F0.384
sVspeaker
p1242
I3
sVfrom
p1243
F30.92
sVfinal
p1244
I00
sa(dp1245
Vto
p1246
F31.56
sVconfidence
p1247
F0.384
sVspeaker
p1248
I3
sVfrom
p1249
F31.21
sVfinal
p1250
I00
sa(dp1251
Vto
p1252
F31.88
sVconfidence
p1253
F0.579
sVspeaker
p1254
I3
sVfrom
p1255
F31.59
sVfinal
p1256
I00
sa(dp1257
Vto
p1258
F32.17
sVconfidence
p1259
F0.579
sVspeaker
p1260
I3
sVfrom
p1261
F31.88
sVfinal
p1262
I00
sa(dp1263
Vto
p1264
F32.64
sVconfidence
p1265
F0.509
sVspeaker
p1266
I3
sVfrom
p1267
F32.53
sVfinal
p1268
I00
sa(dp1269
Vto
p1270
F32.76
sVconfidence
p1271
F0.509
sVspeaker
p1272
I3
sVfrom
p1273
F32.64
sVfinal
p1274
I00
sa(dp1275
Vto
p1276
F32.83
sVconfidence
p1277
F0.509
sVspeaker
p1278
I3
sVfrom
p1279
F32.76
sVfinal
p1280
I00
sa(dp1281
Vto
p1282
F33.0
sVconfidence
p1283
F0.509
sVspeaker
p1284
I3
sVfrom
p1285
F32.83
sVfinal
p1286
I00
sa(dp1287
Vto
p1288
F33.35
sVconfidence
p1289
F0.509
sVspeaker
p1290
I3
sVfrom
p1291
F33.0
sVfinal
p1292
I00
sa(dp1293
Vto
p1294
F33.82
sVconfidence
p1295
F0.549
sVspeaker
p1296
I3
sVfrom
p1297
F33.73
sVfinal
p1298
I00
sa(dp1299
Vto
p1300
F33.99
sVconfidence
p1301
F0.549
sVspeaker
p1302
I3
sVfrom
p1303
F33.82
sVfinal
p1304
I00
sa(dp1305
Vto
p1306
F34.1
sVconfidence
p1307
F0.549
sVspeaker
p1308
I3
sVfrom
p1309
F33.99
sVfinal
p1310
I00
sa(dp1311
Vto
p1312
F34.28
sVconfidence
p1313
F0.549
sVspeaker
p1314
I3
sVfrom
p1315
F34.1
sVfinal
p1316
I00
sa(dp1317
Vto
p1318
F35.17
sVconfidence
p1319
F0.611
sVspeaker
p1320
I3
sVfrom
p1321
F35.05
sVfinal
p1322
I00
sa(dp1323
Vto
p1324
F35.44
sVconfidence
p1325
F0.611
sVspeaker
p1326
I3
sVfrom
p1327
F35.17
sVfinal
p1328
I00
sa(dp1329
Vto
p1330
F35.62
sVconfidence
p1331
F0.611
sVspeaker
p1332
I3
sVfrom
p1333
F35.44
sVfinal
p1334
I00
sa(dp1335
Vto
p1336
F36.23
sVconfidence
p1337
F0.46
sVspeaker
p1338
I3
sVfrom
p1339
F35.86
sVfinal
p1340
I00
sa(dp1341
Vto
p1342
F36.4
sVconfidence
p1343
F0.46
sVspeaker
p1344
I3
sVfrom
p1345
F36.23
sVfinal
p1346
I00
sa(dp1347
Vto
p1348
F36.49
sVconfidence
p1349
F0.46
sVspeaker
p1350
I3
sVfrom
p1351
F36.4
sVfinal
p1352
I00
sa(dp1353
Vto
p1354
F36.77
sVconfidence
p1355
F0.46
sVspeaker
p1356
I3
sVfrom
p1357
F36.49
sVfinal
p1358
I00
sa(dp1359
Vto
p1360
F37.04
sVconfidence
p1361
F0.46
sVspeaker
p1362
I3
sVfrom
p1363
F36.77
sVfinal
p1364
I00
sa(dp1365
Vto
p1366
F37.47
sVconfidence
p1367
F0.446
sVspeaker
p1368
I3
sVfrom
p1369
F37.26
sVfinal
p1370
I00
sa(dp1371
Vto
p1372
F38.18
sVconfidence
p1373
F0.521
sVspeaker
p1374
I3
sVfrom
p1375
F37.98
sVfinal
p1376
I00
sa(dp1377
Vto
p1378
F38.39
sVconfidence
p1379
F0.521
sVspeaker
p1380
I3
sVfrom
p1381
F38.18
sVfinal
p1382
I00
sa(dp1383
Vto
p1384
F38.74
sVconfidence
p1385
F0.46
sVspeaker
p1386
I3
sVfrom
p1387
F38.5
sVfinal
p1388
I00
sa(dp1389
Vto
p1390
F38.81
sVconfidence
p1391
F0.46
sVspeaker
p1392
I3
sVfrom
p1393
F38.74
sVfinal
p1394
I00
sa(dp1395
Vto
p1396
F39.06
sVconfidence
p1397
F0.46
sVspeaker
p1398
I3
sVfrom
p1399
F38.81
sVfinal
p1400
I00
sa(dp1401
Vto
p1402
F40.42
sVconfidence
p1403
F0.534
sVspeaker
p1404
I3
sVfrom
p1405
F40.23
sVfinal
p1406
I00
sa(dp1407
Vto
p1408
F40.6
sVconfidence
p1409
F0.603
sVspeaker
p1410
I3
sVfrom
p1411
F40.45
sVfinal
p1412
I00
sa(dp1413
Vto
p1414
F40.75
sVconfidence
p1415
F0.603
sVspeaker
p1416
I3
sVfrom
p1417
F40.6
sVfinal
p1418
I00
sa(dp1419
Vto
p1420
F40.98
sVconfidence
p1421
F0.603
sVspeaker
p1422
I3
sVfrom
p1423
F40.75
sVfinal
p1424
I00
sa(dp1425
Vto
p1426
F41.08
sVconfidence
p1427
F0.603
sVspeaker
p1428
I3
sVfrom
p1429
F40.98
sVfinal
p1430
I00
sa(dp1431
Vto
p1432
F41.37
sVconfidence
p1433
F0.603
sVspeaker
p1434
I3
sVfrom
p1435
F41.08
sVfinal
p1436
I00
sa(dp1437
Vto
p1438
F42.32
sVconfidence
p1439
F0.512
sVspeaker
p1440
I3
sVfrom
p1441
F42.02
sVfinal
p1442
I00
sa(dp1443
Vto
p1444
F42.55
sVconfidence
p1445
F0.512
sVspeaker
p1446
I3
sVfrom
p1447
F42.32
sVfinal
p1448
I00
sa(dp1449
Vto
p1450
F44.13
sVconfidence
p1451
F0.557
sVspeaker
p1452
I3
sVfrom
p1453
F43.92
sVfinal
p1454
I00
sa(dp1455
Vto
p1456
F46.01
sVconfidence
p1457
F0.42
sVspeaker
p1458
I1
sVfrom
p1459
F45.9
sVfinal
p1460
I00
sa(dp1461
Vto
p1462
F46.15
sVconfidence
p1463
F0.42
sVspeaker
p1464
I1
sVfrom
p1465
F46.01
sVfinal
p1466
I00
sa(dp1467
Vto
p1468
F46.35
sVconfidence
p1469
F0.42
sVspeaker
p1470
I1
sVfrom
p1471
F46.15
sVfinal
p1472
I00
sa(dp1473
Vto
p1474
F46.55
sVconfidence
p1475
F0.42
sVspeaker
p1476
I1
sVfrom
p1477
F46.35
sVfinal
p1478
I00
sa(dp1479
Vto
p1480
F46.98
sVconfidence
p1481
F0.469
sVspeaker
p1482
I3
sVfrom
p1483
F46.76
sVfinal
p1484
I00
sa(dp1485
Vto
p1486
F47.33
sVconfidence
p1487
F0.469
sVspeaker
p1488
I3
sVfrom
p1489
F46.98
sVfinal
p1490
I00
sa(dp1491
Vto
p1492
F47.57
sVconfidence
p1493
F0.469
sVspeaker
p1494
I3
sVfrom
p1495
F47.33
sVfinal
p1496
I00
sa(dp1497
Vto
p1498
F47.65
sVconfidence
p1499
F0.469
sVspeaker
p1500
I3
sVfrom
p1501
F47.57
sVfinal
p1502
I00
sa(dp1503
Vto
p1504
F47.76
sVconfidence
p1505
F0.469
sVspeaker
p1506
I3
sVfrom
p1507
F47.65
sVfinal
p1508
I00
sa(dp1509
Vto
p1510
F47.84
sVconfidence
p1511
F0.469
sVspeaker
p1512
I3
sVfrom
p1513
F47.76
sVfinal
p1514
I00
sa(dp1515
Vto
p1516
F47.95
sVconfidence
p1517
F0.469
sVspeaker
p1518
I3
sVfrom
p1519
F47.84
sVfinal
p1520
I00
sa(dp1521
Vto
p1522
F48.18
sVconfidence
p1523
F0.469
sVspeaker
p1524
I3
sVfrom
p1525
F47.95
sVfinal
p1526
I00
sa(dp1527
Vto
p1528
F48.41
sVconfidence
p1529
F0.469
sVspeaker
p1530
I3
sVfrom
p1531
F48.18
sVfinal
p1532
I00
sa(dp1533
Vto
p1534
F48.66
sVconfidence
p1535
F0.469
sVspeaker
p1536
I3
sVfrom
p1537
F48.41
sVfinal
p1538
I00
sa(dp1539
Vto
p1540
F49.81
sVconfidence
p1541
F0.458
sVspeaker
p1542
I1
sVfrom
p1543
F49.71
sVfinal
p1544
I00
sa(dp1545
Vto
p1546
F49.92
sVconfidence
p1547
F0.458
sVspeaker
p1548
I1
sVfrom
p1549
F49.81
sVfinal
p1550
I00
sa(dp1551
Vto
p1552
F50.08
sVconfidence
p1553
F0.458
sVspeaker
p1554
I1
sVfrom
p1555
F49.92
sVfinal
p1556
I00
sa(dp1557
Vto
p1558
F50.38
sVconfidence
p1559
F0.342
sVspeaker
p1560
I3
sVfrom
p1561
F50.17
sVfinal
p1562
I00
sa(dp1563
Vto
p1564
F50.51
sVconfidence
p1565
F0.342
sVspeaker
p1566
I3
sVfrom
p1567
F50.38
sVfinal
p1568
I00
sa(dp1569
Vto
p1570
F50.85
sVconfidence
p1571
F0.435
sVspeaker
p1572
I1
sVfrom
p1573
F50.62
sVfinal
p1574
I00
sa(dp1575
Vto
p1576
F51.02
sVconfidence
p1577
F0.435
sVspeaker
p1578
I1
sVfrom
p1579
F50.85
sVfinal
p1580
I00
sa(dp1581
Vto
p1582
F51.6
sVconfidence
p1583
F0.355
sVspeaker
p1584
I3
sVfrom
p1585
F51.31
sVfinal
p1586
I00
sa(dp1587
Vto
p1588
F51.79
sVconfidence
p1589
F0.355
sVspeaker
p1590
I3
sVfrom
p1591
F51.6
sVfinal
p1592
I00
sa(dp1593
Vto
p1594
F52.2
sVconfidence
p1595
F0.355
sVspeaker
p1596
I3
sVfrom
p1597
F51.79
sVfinal
p1598
I00
sa(dp1599
Vto
p1600
F52.35
sVconfidence
p1601
F0.355
sVspeaker
p1602
I3
sVfrom
p1603
F52.2
sVfinal
p1604
I00
sa(dp1605
Vto
p1606
F52.61
sVconfidence
p1607
F0.355
sVspeaker
p1608
I3
sVfrom
p1609
F52.35
sVfinal
p1610
I00
sa(dp1611
Vto
p1612
F52.68
sVconfidence
p1613
F0.355
sVspeaker
p1614
I3
sVfrom
p1615
F52.61
sVfinal
p1616
I00
sa(dp1617
Vto
p1618
F52.8
sVconfidence
p1619
F0.355
sVspeaker
p1620
I3
sVfrom
p1621
F52.68
sVfinal
p1622
I00
sa(dp1623
Vto
p1624
F52.85
sVconfidence
p1625
F0.355
sVspeaker
p1626
I3
sVfrom
p1627
F52.8
sVfinal
p1628
I00
sa(dp1629
Vto
p1630
F53.1
sVconfidence
p1631
F0.355
sVspeaker
p1632
I3
sVfrom
p1633
F52.85
sVfinal
p1634
I00
sa(dp1635
Vto
p1636
F53.62
sVconfidence
p1637
F0.417
sVspeaker
p1638
I3
sVfrom
p1639
F53.3
sVfinal
p1640
I00
sa(dp1641
Vto
p1642
F53.95
sVconfidence
p1643
F0.417
sVspeaker
p1644
I3
sVfrom
p1645
F53.62
sVfinal
p1646
I00
sa(dp1647
Vto
p1648
F54.21
sVconfidence
p1649
F0.417
sVspeaker
p1650
I3
sVfrom
p1651
F53.95
sVfinal
p1652
I00
sa(dp1653
Vto
p1654
F54.51
sVconfidence
p1655
F0.417
sVspeaker
p1656
I3
sVfrom
p1657
F54.21
sVfinal
p1658
I00
sa(dp1659
Vto
p1660
F54.67
sVconfidence
p1661
F0.417
sVspeaker
p1662
I3
sVfrom
p1663
F54.51
sVfinal
p1664
I00
sa(dp1665
Vto
p1666
F54.96
sVconfidence
p1667
F0.417
sVspeaker
p1668
I3
sVfrom
p1669
F54.67
sVfinal
p1670
I00
sa(dp1671
Vto
p1672
F55.51
sVconfidence
p1673
F0.463
sVspeaker
p1674
I3
sVfrom
p1675
F55.34
sVfinal
p1676
I00
sa(dp1677
Vto
p1678
F55.79
sVconfidence
p1679
F0.463
sVspeaker
p1680
I3
sVfrom
p1681
F55.51
sVfinal
p1682
I00
sa(dp1683
Vto
p1684
F55.97
sVconfidence
p1685
F0.463
sVspeaker
p1686
I3
sVfrom
p1687
F55.79
sVfinal
p1688
I00
sa(dp1689
Vto
p1690
F56.33
sVconfidence
p1691
F0.463
sVspeaker
p1692
I3
sVfrom
p1693
F55.97
sVfinal
p1694
I00
sa(dp1695
Vto
p1696
F56.61
sVconfidence
p1697
F0.463
sVspeaker
p1698
I3
sVfrom
p1699
F56.33
sVfinal
p1700
I00
sa(dp1701
Vto
p1702
F57.05
sVconfidence
p1703
F0.261
sVspeaker
p1704
I3
sVfrom
p1705
F56.84
sVfinal
p1706
I00
sa(dp1707
Vto
p1708
F57.41
sVconfidence
p1709
F0.537
sVspeaker
p1710
I3
sVfrom
p1711
F57.2
sVfinal
p1712
I00
sa(dp1713
Vto
p1714
F57.65
sVconfidence
p1715
F0.425
sVspeaker
p1716
I3
sVfrom
p1717
F57.51
sVfinal
p1718
I00
sa(dp1719
Vto
p1720
F57.8
sVconfidence
p1721
F0.425
sVspeaker
p1722
I3
sVfrom
p1723
F57.65
sVfinal
p1724
I00
sa(dp1725
Vto
p1726
F57.83
sVconfidence
p1727
F0.425
sVspeaker
p1728
I3
sVfrom
p1729
F57.8
sVfinal
p1730
I00
sa(dp1731
Vto
p1732
F58.01
sVconfidence
p1733
F0.425
sVspeaker
p1734
I3
sVfrom
p1735
F57.83
sVfinal
p1736
I00
sa(dp1737
Vto
p1738
F58.16
sVconfidence
p1739
F0.425
sVspeaker
p1740
I3
sVfrom
p1741
F58.01
sVfinal
p1742
I00
sa(dp1743
Vto
p1744
F58.51
sVconfidence
p1745
F0.608
sVspeaker
p1746
I3
sVfrom
p1747
F58.2
sVfinal
p1748
I00
sa(dp1749
Vto
p1750
F58.7
sVconfidence
p1751
F0.608
sVspeaker
p1752
I3
sVfrom
p1753
F58.51
sVfinal
p1754
I00
sa(dp1755
Vto
p1756
F58.77
sVconfidence
p1757
F0.608
sVspeaker
p1758
I3
sVfrom
p1759
F58.7
sVfinal
p1760
I00
sa(dp1761
Vto
p1762
F58.94
sVconfidence
p1763
F0.608
sVspeaker
p1764
I3
sVfrom
p1765
F58.77
sVfinal
p1766
I00
sa(dp1767
Vto
p1768
F59.52
sVconfidence
p1769
F0.608
sVspeaker
p1770
I3
sVfrom
p1771
F58.94
sVfinal
p1772
I00
sa(dp1773
Vto
p1774
F59.89
sVconfidence
p1775
F0.48
sVspeaker
p1776
I3
sVfrom
p1777
F59.81
sVfinal
p1778
I00
sa(dp1779
Vto
p1780
F59.95
sVconfidence
p1781
F0.48
sVspeaker
p1782
I3
sVfrom
p1783
F59.89
sVfinal
p1784
I00
sa(dp1785
Vto
p1786
F60.23
sVconfidence
p1787
F0.48
sVspeaker
p1788
I3
sVfrom
p1789
F59.95
sVfinal
p1790
I00
sa(dp1791
Vto
p1792
F60.56
sVconfidence
p1793
F0.48
sVspeaker
p1794
I3
sVfrom
p1795
F60.23
sVfinal
p1796
I00
sa(dp1797
Vto
p1798
F60.81
sVconfidence
p1799
F0.48
sVspeaker
p1800
I3
sVfrom
p1801
F60.56
sVfinal
p1802
I00
sa(dp1803
Vto
p1804
F60.98
sVconfidence
p1805
F0.48
sVspeaker
p1806
I3
sVfrom
p1807
F60.81
sVfinal
p1808
I00
sa(dp1809
Vto
p1810
F61.14
sVconfidence
p1811
F0.48
sVspeaker
p1812
I3
sVfrom
p1813
F60.98
sVfinal
p1814
I00
sa(dp1815
Vto
p1816
F61.17
sVconfidence
p1817
F0.48
sVspeaker
p1818
I3
sVfrom
p1819
F61.14
sVfinal
p1820
I00
sa(dp1821
Vto
p1822
F61.31
sVconfidence
p1823
F0.48
sVspeaker
p1824
I3
sVfrom
p1825
F61.17
sVfinal
p1826
I00
sa(dp1827
Vto
p1828
F61.43
sVconfidence
p1829
F0.48
sVspeaker
p1830
I3
sVfrom
p1831
F61.31
sVfinal
p1832
I00
sa(dp1833
Vto
p1834
F61.49
sVconfidence
p1835
F0.48
sVspeaker
p1836
I3
sVfrom
p1837
F61.43
sVfinal
p1838
I00
sa(dp1839
Vto
p1840
F61.75
sVconfidence
p1841
F0.48
sVspeaker
p1842
I3
sVfrom
p1843
F61.49
sVfinal
p1844
I00
sa(dp1845
Vto
p1846
F61.89
sVconfidence
p1847
F0.48
sVspeaker
p1848
I3
sVfrom
p1849
F61.75
sVfinal
p1850
I00
sa(dp1851
Vto
p1852
F62.07
sVconfidence
p1853
F0.48
sVspeaker
p1854
I3
sVfrom
p1855
F61.89
sVfinal
p1856
I00
sa(dp1857
Vto
p1858
F62.21
sVconfidence
p1859
F0.48
sVspeaker
p1860
I3
sVfrom
p1861
F62.07
sVfinal
p1862
I00
sa(dp1863
Vto
p1864
F62.5
sVconfidence
p1865
F0.48
sVspeaker
p1866
I3
sVfrom
p1867
F62.21
sVfinal
p1868
I00
sa(dp1869
Vto
p1870
F63.3
sVconfidence
p1871
F0.543
sVspeaker
p1872
I3
sVfrom
p1873
F63.11
sVfinal
p1874
I00
sa(dp1875
Vto
p1876
F63.6
sVconfidence
p1877
F0.543
sVspeaker
p1878
I3
sVfrom
p1879
F63.3
sVfinal
p1880
I00
sa(dp1881
Vto
p1882
F63.79
sVconfidence
p1883
F0.565
sVspeaker
p1884
I3
sVfrom
p1885
F63.66
sVfinal
p1886
I00
sa(dp1887
Vto
p1888
F63.84
sVconfidence
p1889
F0.565
sVspeaker
p1890
I3
sVfrom
p1891
F63.79
sVfinal
p1892
I00
sa(dp1893
Vto
p1894
F64.08
sVconfidence
p1895
F0.565
sVspeaker
p1896
I3
sVfrom
p1897
F63.84
sVfinal
p1898
I00
sa(dp1899
Vto
p1900
F64.23
sVconfidence
p1901
F0.565
sVspeaker
p1902
I3
sVfrom
p1903
F64.08
sVfinal
p1904
I00
sa(dp1905
Vto
p1906
F64.5
sVconfidence
p1907
F0.565
sVspeaker
p1908
I3
sVfrom
p1909
F64.23
sVfinal
p1910
I00
sa(dp1911
Vto
p1912
F64.59
sVconfidence
p1913
F0.565
sVspeaker
p1914
I3
sVfrom
p1915
F64.5
sVfinal
p1916
I00
sa(dp1917
Vto
p1918
F64.7
sVconfidence
p1919
F0.565
sVspeaker
p1920
I3
sVfrom
p1921
F64.59
sVfinal
p1922
I00
sa(dp1923
Vto
p1924
F65.06
sVconfidence
p1925
F0.565
sVspeaker
p1926
I3
sVfrom
p1927
F64.7
sVfinal
p1928
I00
sa(dp1929
Vto
p1930
F65.66
sVconfidence
p1931
F0.613
sVspeaker
p1932
I3
sVfrom
p1933
F65.48
sVfinal
p1934
I00
sa(dp1935
Vto
p1936
F65.72
sVconfidence
p1937
F0.613
sVspeaker
p1938
I3
sVfrom
p1939
F65.66
sVfinal
p1940
I00
sa(dp1941
Vto
p1942
F65.99
sVconfidence
p1943
F0.613
sVspeaker
p1944
I3
sVfrom
p1945
F65.72
sVfinal
p1946
I00
sa(dp1947
Vto
p1948
F66.26
sVconfidence
p1949
F0.617
sVspeaker
p1950
I3
sVfrom
p1951
F66.03
sVfinal
p1952
I00
sa(dp1953
Vto
p1954
F66.45
sVconfidence
p1955
F0.617
sVspeaker
p1956
I3
sVfrom
p1957
F66.26
sVfinal
p1958
I00
sa(dp1959
Vto
p1960
F66.71
sVconfidence
p1961
F0.617
sVspeaker
p1962
I3
sVfrom
p1963
F66.45
sVfinal
p1964
I00
sa(dp1965
Vto
p1966
F68.04
sVconfidence
p1967
F0.495
sVspeaker
p1968
I1
sVfrom
p1969
F67.84
sVfinal
p1970
I00
sa(dp1971
Vto
p1972
F68.18
sVconfidence
p1973
F0.495
sVspeaker
p1974
I1
sVfrom
p1975
F68.04
sVfinal
p1976
I00
sa(dp1977
Vto
p1978
F69.08
sVconfidence
p1979
F0.471
sVspeaker
p1980
I1
sVfrom
p1981
F68.89
sVfinal
p1982
I00
sa(dp1983
Vto
p1984
F69.18
sVconfidence
p1985
F0.471
sVspeaker
p1986
I1
sVfrom
p1987
F69.08
sVfinal
p1988
I00
sa(dp1989
Vto
p1990
F69.33
sVconfidence
p1991
F0.471
sVspeaker
p1992
I1
sVfrom
p1993
F69.18
sVfinal
p1994
I00
sa(dp1995
Vto
p1996
F69.44
sVconfidence
p1997
F0.471
sVspeaker
p1998
I1
sVfrom
p1999
F69.33
sVfinal
p2000
I00
sa(dp2001
Vto
p2002
F69.86
sVconfidence
p2003
F0.471
sVspeaker
p2004
I1
sVfrom
p2005
F69.44
sVfinal
p2006
I00
sa(dp2007
Vto
p2008
F71.65
sVconfidence
p2009
F0.279
sVspeaker
p2010
I3
sVfrom
p2011
F71.14
sVfinal
p2012
I00
sa(dp2013
Vto
p2014
F72.86
sVconfidence
p2015
F0.265
sVspeaker
p2016
I3
sVfrom
p2017
F72.75
sVfinal
p2018
I00
sa(dp2019
Vto
p2020
F72.98
sVconfidence
p2021
F0.265
sVspeaker
p2022
I3
sVfrom
p2023
F72.86
sVfinal
p2024
I00
sa(dp2025
Vto
p2026
F73.09
sVconfidence
p2027
F0.265
sVspeaker
p2028
I3
sVfrom
p2029
F72.98
sVfinal
p2030
I00
sa(dp2031
Vto
p2032
F73.28
sVconfidence
p2033
F0.265
sVspeaker
p2034
I3
sVfrom
p2035
F73.09
sVfinal
p2036
I00
sa(dp2037
Vto
p2038
F73.43
sVconfidence
p2039
F0.421
sVspeaker
p2040
I3
sVfrom
p2041
F73.31
sVfinal
p2042
I00
sa(dp2043
Vto
p2044
F73.65
sVconfidence
p2045
F0.421
sVspeaker
p2046
I3
sVfrom
p2047
F73.43
sVfinal
p2048
I00
sa(dp2049
Vto
p2050
F73.94
sVconfidence
p2051
F0.421
sVspeaker
p2052
I3
sVfrom
p2053
F73.65
sVfinal
p2054
I00
sa(dp2055
Vto
p2056
F74.26
sVconfidence
p2057
F0.421
sVspeaker
p2058
I3
sVfrom
p2059
F73.94
sVfinal
p2060
I00
sa(dp2061
Vto
p2062
F74.64
sVconfidence
p2063
F0.421
sVspeaker
p2064
I3
sVfrom
p2065
F74.26
sVfinal
p2066
I00
sa(dp2067
Vto
p2068
F75.05
sVconfidence
p2069
F0.571
sVspeaker
p2070
I3
sVfrom
p2071
F74.67
sVfinal
p2072
I00
sa(dp2073
Vto
p2074
F75.44
sVconfidence
p2075
F0.47
sVspeaker
p2076
I3
sVfrom
p2077
F75.14
sVfinal
p2078
I00
sa(dp2079
Vto
p2080
F75.71
sVconfidence
p2081
F0.47
sVspeaker
p2082
I3
sVfrom
p2083
F75.44
sVfinal
p2084
I00
sa(dp2085
Vto
p2086
F76.42
sVconfidence
p2087
F0.375
sVspeaker
p2088
I3
sVfrom
p2089
F76.09
sVfinal
p2090
I00
sa(dp2091
Vto
p2092
F78.0
sVconfidence
p2093
F0.5
sVspeaker
p2094
I3
sVfrom
p2095
F77.56
sVfinal
p2096
I00
sa(dp2097
Vto
p2098
F79.06
sVconfidence
p2099
F0.579
sVspeaker
p2100
I3
sVfrom
p2101
F79.03
sVfinal
p2102
I00
sa(dp2103
Vto
p2104
F79.3
sVconfidence
p2105
F0.386
sVspeaker
p2106
I3
sVfrom
p2107
F79.09
sVfinal
p2108
I00
sa(dp2109
Vto
p2110
F79.72
sVconfidence
p2111
F0.462
sVspeaker
p2112
I1
sVfrom
p2113
F79.5
sVfinal
p2114
I00
sa(dp2115
Vto
p2116
F79.8
sVconfidence
p2117
F0.462
sVspeaker
p2118
I1
sVfrom
p2119
F79.72
sVfinal
p2120
I00
sa(dp2121
Vto
p2122
F79.97
sVconfidence
p2123
F0.462
sVspeaker
p2124
I1
sVfrom
p2125
F79.8
sVfinal
p2126
I00
sa(dp2127
Vto
p2128
F81.68
sVconfidence
p2129
F0.465
sVspeaker
p2130
I1
sVfrom
p2131
F81.24
sVfinal
p2132
I00
sa(dp2133
Vto
p2134
F82.19
sVconfidence
p2135
F0.481
sVspeaker
p2136
I1
sVfrom
p2137
F81.71
sVfinal
p2138
I00
sa(dp2139
Vto
p2140
F82.63
sVconfidence
p2141
F0.456
sVspeaker
p2142
I1
sVfrom
p2143
F82.25
sVfinal
p2144
I00
sa(dp2145
Vto
p2146
F83.39
sVconfidence
p2147
F0.417
sVspeaker
p2148
I1
sVfrom
p2149
F82.66
sVfinal
p2150
I00
sa(dp2151
Vto
p2152
F84.14
sVconfidence
p2153
F0.484
sVspeaker
p2154
I1
sVfrom
p2155
F84.02
sVfinal
p2156
I00
sa(dp2157
Vto
p2158
F84.34
sVconfidence
p2159
F0.484
sVspeaker
p2160
I1
sVfrom
p2161
F84.14
sVfinal
p2162
I00
sa(dp2163
Vto
p2164
F84.44
sVconfidence
p2165
F0.484
sVspeaker
p2166
I1
sVfrom
p2167
F84.34
sVfinal
p2168
I00
sa(dp2169
Vto
p2170
F84.84
sVconfidence
p2171
F0.484
sVspeaker
p2172
I1
sVfrom
p2173
F84.44
sVfinal
p2174
I00
sa(dp2175
Vto
p2176
F84.93
sVconfidence
p2177
F0.456
sVspeaker
p2178
I1
sVfrom
p2179
F84.87
sVfinal
p2180
I00
sa(dp2181
Vto
p2182
F85.14
sVconfidence
p2183
F0.456
sVspeaker
p2184
I1
sVfrom
p2185
F84.93
sVfinal
p2186
I00
sa(dp2187
Vto
p2188
F85.29
sVconfidence
p2189
F0.456
sVspeaker
p2190
I1
sVfrom
p2191
F85.14
sVfinal
p2192
I00
sa(dp2193
Vto
p2194
F85.66
sVconfidence
p2195
F0.456
sVspeaker
p2196
I1
sVfrom
p2197
F85.29
sVfinal
p2198
I00
sa(dp2199
Vto
p2200
F86.09
sVconfidence
p2201
F0.485
sVspeaker
p2202
I1
sVfrom
p2203
F85.84
sVfinal
p2204
I00
sa(dp2205
Vto
p2206
F86.23
sVconfidence
p2207
F0.485
sVspeaker
p2208
I1
sVfrom
p2209
F86.09
sVfinal
p2210
I00
sa(dp2211
Vto
p2212
F86.37
sVconfidence
p2213
F0.485
sVspeaker
p2214
I1
sVfrom
p2215
F86.23
sVfinal
p2216
I00
sa(dp2217
Vto
p2218
F86.62
sVconfidence
p2219
F0.485
sVspeaker
p2220
I1
sVfrom
p2221
F86.37
sVfinal
p2222
I00
sa(dp2223
Vto
p2224
F87.36
sVconfidence
p2225
F0.457
sVspeaker
p2226
I1
sVfrom
p2227
F86.8
sVfinal
p2228
I00
sa(dp2229
Vto
p2230
F87.63
sVconfidence
p2231
F0.457
sVspeaker
p2232
I1
sVfrom
p2233
F87.36
sVfinal
p2234
I00
sa(dp2235
Vto
p2236
F87.89
sVconfidence
p2237
F0.457
sVspeaker
p2238
I1
sVfrom
p2239
F87.63
sVfinal
p2240
I00
sa(dp2241
Vto
p2242
F88.3
sVconfidence
p2243
F0.457
sVspeaker
p2244
I1
sVfrom
p2245
F87.89
sVfinal
p2246
I00
sa(dp2247
Vto
p2248
F88.55
sVconfidence
p2249
F0.457
sVspeaker
p2250
I1
sVfrom
p2251
F88.3
sVfinal
p2252
I00
sa(dp2253
Vto
p2254
F88.88
sVconfidence
p2255
F0.482
sVspeaker
p2256
I1
sVfrom
p2257
F88.71
sVfinal
p2258
I00
sa(dp2259
Vto
p2260
F89.25
sVconfidence
p2261
F0.482
sVspeaker
p2262
I1
sVfrom
p2263
F88.88
sVfinal
p2264
I00
sa(dp2265
Vto
p2266
F90.35
sVconfidence
p2267
F0.555
sVspeaker
p2268
I1
sVfrom
p2269
F90.24
sVfinal
p2270
I00
sa(dp2271
Vto
p2272
F90.54
sVconfidence
p2273
F0.555
sVspeaker
p2274
I1
sVfrom
p2275
F90.35
sVfinal
p2276
I00
sa(dp2277
Vto
p2278
F90.89
sVconfidence
p2279
F0.555
sVspeaker
p2280
I1
sVfrom
p2281
F90.54
sVfinal
p2282
I00
sa(dp2283
Vto
p2284
F91.66
sVconfidence
p2285
F0.646
sVspeaker
p2286
I1
sVfrom
p2287
F91.04
sVfinal
p2288
I00
sa(dp2289
Vto
p2290
F92.44
sVconfidence
p2291
F0.646
sVspeaker
p2292
I1
sVfrom
p2293
F91.66
sVfinal
p2294
I00
sa(dp2295
Vto
p2296
F93.85
sVconfidence
p2297
F0.647
sVspeaker
p2298
I1
sVfrom
p2299
F93.73
sVfinal
p2300
I00
sa(dp2301
Vto
p2302
F94.04
sVconfidence
p2303
F0.647
sVspeaker
p2304
I1
sVfrom
p2305
F93.85
sVfinal
p2306
I00
sa(dp2307
Vto
p2308
F94.41
sVconfidence
p2309
F0.647
sVspeaker
p2310
I1
sVfrom
p2311
F94.04
sVfinal
p2312
I00
sa(dp2313
Vto
p2314
F95.54
sVconfidence
p2315
F0.637
sVspeaker
p2316
I1
sVfrom
p2317
F95.39
sVfinal
p2318
I00
sa(dp2319
Vto
p2320
F95.76
sVconfidence
p2321
F0.637
sVspeaker
p2322
I1
sVfrom
p2323
F95.54
sVfinal
p2324
I00
sa(dp2325
Vto
p2326
F95.92
sVconfidence
p2327
F0.637
sVspeaker
p2328
I1
sVfrom
p2329
F95.76
sVfinal
p2330
I00
sa(dp2331
Vto
p2332
F95.95
sVconfidence
p2333
F0.637
sVspeaker
p2334
I1
sVfrom
p2335
F95.92
sVfinal
p2336
I00
sa(dp2337
Vto
p2338
F96.4
sVconfidence
p2339
F0.637
sVspeaker
p2340
I1
sVfrom
p2341
F95.95
sVfinal
p2342
I00
sa(dp2343
Vto
p2344
F96.85
sVconfidence
p2345
F0.637
sVspeaker
p2346
I1
sVfrom
p2347
F96.4
sVfinal
p2348
I00
sa(dp2349
Vto
p2350
F97.48
sVconfidence
p2351
F0.63
sVspeaker
p2352
I1
sVfrom
p2353
F97.22
sVfinal
p2354
I00
sa(dp2355
Vto
p2356
F97.66
sVconfidence
p2357
F0.63
sVspeaker
p2358
I1
sVfrom
p2359
F97.48
sVfinal
p2360
I00
sa(dp2361
Vto
p2362
F97.98
sVconfidence
p2363
F0.63
sVspeaker
p2364
I1
sVfrom
p2365
F97.66
sVfinal
p2366
I00
sa(dp2367
Vto
p2368
F98.22
sVconfidence
p2369
F0.641
sVspeaker
p2370
I1
sVfrom
p2371
F98.1
sVfinal
p2372
I00
sa(dp2373
Vto
p2374
F98.34
sVconfidence
p2375
F0.641
sVspeaker
p2376
I1
sVfrom
p2377
F98.22
sVfinal
p2378
I00
sa(dp2379
Vto
p2380
F98.44
sVconfidence
p2381
F0.641
sVspeaker
p2382
I1
sVfrom
p2383
F98.34
sVfinal
p2384
I00
sa(dp2385
Vto
p2386
F98.53
sVconfidence
p2387
F0.641
sVspeaker
p2388
I1
sVfrom
p2389
F98.44
sVfinal
p2390
I00
sa(dp2391
Vto
p2392
F98.97
sVconfidence
p2393
F0.641
sVspeaker
p2394
I1
sVfrom
p2395
F98.53
sVfinal
p2396
I00
sa(dp2397
Vto
p2398
F101.03
sVconfidence
p2399
F0.503
sVspeaker
p2400
I1
sVfrom
p2401
F100.86
sVfinal
p2402
I00
sa(dp2403
Vto
p2404
F101.12
sVconfidence
p2405
F0.503
sVspeaker
p2406
I1
sVfrom
p2407
F101.03
sVfinal
p2408
I00
sa(dp2409
Vto
p2410
F101.26
sVconfidence
p2411
F0.503
sVspeaker
p2412
I1
sVfrom
p2413
F101.12
sVfinal
p2414
I00
sa(dp2415
Vto
p2416
F101.47
sVconfidence
p2417
F0.503
sVspeaker
p2418
I1
sVfrom
p2419
F101.26
sVfinal
p2420
I00
sa(dp2421
Vto
p2422
F101.69
sVconfidence
p2423
F0.503
sVspeaker
p2424
I1
sVfrom
p2425
F101.47
sVfinal
p2426
I00
sa(dp2427
Vto
p2428
F101.81
sVconfidence
p2429
F0.632
sVspeaker
p2430
I1
sVfrom
p2431
F101.72
sVfinal
p2432
I00
sa(dp2433
Vto
p2434
F102.11
sVconfidence
p2435
F0.632
sVspeaker
p2436
I1
sVfrom
p2437
F101.81
sVfinal
p2438
I00
sa(dp2439
Vto
p2440
F102.21
sVconfidence
p2441
F0.632
sVspeaker
p2442
I1
sVfrom
p2443
F102.11
sVfinal
p2444
I00
sa(dp2445
Vto
p2446
F102.57
sVconfidence
p2447
F0.632
sVspeaker
p2448
I1
sVfrom
p2449
F102.21
sVfinal
p2450
I00
sa(dp2451
Vto
p2452
F102.69
sVconfidence
p2453
F0.632
sVspeaker
p2454
I1
sVfrom
p2455
F102.57
sVfinal
p2456
I00
sa(dp2457
Vto
p2458
F102.78
sVconfidence
p2459
F0.632
sVspeaker
p2460
I1
sVfrom
p2461
F102.69
sVfinal
p2462
I00
sa(dp2463
Vto
p2464
F102.91
sVconfidence
p2465
F0.632
sVspeaker
p2466
I1
sVfrom
p2467
F102.78
sVfinal
p2468
I00
sa(dp2469
Vto
p2470
F103.06
sVconfidence
p2471
F0.632
sVspeaker
p2472
I1
sVfrom
p2473
F102.91
sVfinal
p2474
I00
sa(dp2475
Vto
p2476
F103.13
sVconfidence
p2477
F0.632
sVspeaker
p2478
I1
sVfrom
p2479
F103.06
sVfinal
p2480
I00
sa(dp2481
Vto
p2482
F103.38
sVconfidence
p2483
F0.632
sVspeaker
p2484
I1
sVfrom
p2485
F103.13
sVfinal
p2486
I00
sa(dp2487
Vto
p2488
F103.76
sVconfidence
p2489
F0.632
sVspeaker
p2490
I1
sVfrom
p2491
F103.38
sVfinal
p2492
I00
sa(dp2493
Vto
p2494
F104.14
sVconfidence
p2495
F0.526
sVspeaker
p2496
I1
sVfrom
p2497
F103.89
sVfinal
p2498
I00
sa(dp2499
Vto
p2500
F104.34
sVconfidence
p2501
F0.526
sVspeaker
p2502
I1
sVfrom
p2503
F104.14
sVfinal
p2504
I00
sa(dp2505
Vto
p2506
F104.71
sVconfidence
p2507
F0.526
sVspeaker
p2508
I1
sVfrom
p2509
F104.34
sVfinal
p2510
I00
sa(dp2511
Vto
p2512
F105.26
sVconfidence
p2513
F0.624
sVspeaker
p2514
I1
sVfrom
p2515
F104.98
sVfinal
p2516
I00
sa(dp2517
Vto
p2518
F105.42
sVconfidence
p2519
F0.624
sVspeaker
p2520
I1
sVfrom
p2521
F105.26
sVfinal
p2522
I00
sa(dp2523
Vto
p2524
F105.51
sVconfidence
p2525
F0.624
sVspeaker
p2526
I1
sVfrom
p2527
F105.42
sVfinal
p2528
I00
sa(dp2529
Vto
p2530
F105.67
sVconfidence
p2531
F0.624
sVspeaker
p2532
I1
sVfrom
p2533
F105.51
sVfinal
p2534
I00
sa(dp2535
Vto
p2536
F105.92
sVconfidence
p2537
F0.643
sVspeaker
p2538
I1
sVfrom
p2539
F105.78
sVfinal
p2540
I00
sa(dp2541
Vto
p2542
F106.1
sVconfidence
p2543
F0.643
sVspeaker
p2544
I1
sVfrom
p2545
F105.92
sVfinal
p2546
I00
sa(dp2547
Vto
p2548
F106.36
sVconfidence
p2549
F0.643
sVspeaker
p2550
I1
sVfrom
p2551
F106.1
sVfinal
p2552
I00
sa(dp2553
Vto
p2554
F106.58
sVconfidence
p2555
F0.643
sVspeaker
p2556
I1
sVfrom
p2557
F106.36
sVfinal
p2558
I00
sa(dp2559
Vto
p2560
F106.69
sVconfidence
p2561
F0.643
sVspeaker
p2562
I1
sVfrom
p2563
F106.58
sVfinal
p2564
I00
sa(dp2565
Vto
p2566
F106.91
sVconfidence
p2567
F0.643
sVspeaker
p2568
I1
sVfrom
p2569
F106.69
sVfinal
p2570
I00
sa(dp2571
Vto
p2572
F107.0
sVconfidence
p2573
F0.643
sVspeaker
p2574
I1
sVfrom
p2575
F106.91
sVfinal
p2576
I00
sa(dp2577
Vto
p2578
F107.32
sVconfidence
p2579
F0.643
sVspeaker
p2580
I1
sVfrom
p2581
F107.0
sVfinal
p2582
I00
sa(dp2583
Vto
p2584
F107.53
sVconfidence
p2585
F0.643
sVspeaker
p2586
I1
sVfrom
p2587
F107.32
sVfinal
p2588
I00
sa(dp2589
Vto
p2590
F108.0
sVconfidence
p2591
F0.643
sVspeaker
p2592
I1
sVfrom
p2593
F107.53
sVfinal
p2594
I00
sa(dp2595
Vto
p2596
F108.24
sVconfidence
p2597
F0.643
sVspeaker
p2598
I1
sVfrom
p2599
F108.0
sVfinal
p2600
I00
sa(dp2601
Vto
p2602
F108.52
sVconfidence
p2603
F0.643
sVspeaker
p2604
I1
sVfrom
p2605
F108.24
sVfinal
p2606
I00
sa(dp2607
Vto
p2608
F108.96
sVconfidence
p2609
F0.616
sVspeaker
p2610
I1
sVfrom
p2611
F108.83
sVfinal
p2612
I00
sa(dp2613
Vto
p2614
F109.22
sVconfidence
p2615
F0.616
sVspeaker
p2616
I1
sVfrom
p2617
F108.96
sVfinal
p2618
I00
sa(dp2619
Vto
p2620
F109.51
sVconfidence
p2621
F0.616
sVspeaker
p2622
I1
sVfrom
p2623
F109.22
sVfinal
p2624
I00
sa(dp2625
Vto
p2626
F109.77
sVconfidence
p2627
F0.616
sVspeaker
p2628
I1
sVfrom
p2629
F109.51
sVfinal
p2630
I00
sa(dp2631
Vto
p2632
F110.02
sVconfidence
p2633
F0.616
sVspeaker
p2634
I1
sVfrom
p2635
F109.77
sVfinal
p2636
I00
sa(dp2637
Vto
p2638
F110.55
sVconfidence
p2639
F0.616
sVspeaker
p2640
I1
sVfrom
p2641
F110.02
sVfinal
p2642
I00
sa(dp2643
Vto
p2644
F110.97
sVconfidence
p2645
F0.616
sVspeaker
p2646
I1
sVfrom
p2647
F110.55
sVfinal
p2648
I00
sa(dp2649
Vto
p2650
F111.61
sVconfidence
p2651
F0.592
sVspeaker
p2652
I1
sVfrom
p2653
F111.24
sVfinal
p2654
I00
sa(dp2655
Vto
p2656
F111.97
sVconfidence
p2657
F0.592
sVspeaker
p2658
I1
sVfrom
p2659
F111.61
sVfinal
p2660
I00
sa(dp2661
Vto
p2662
F112.06
sVconfidence
p2663
F0.592
sVspeaker
p2664
I1
sVfrom
p2665
F111.97
sVfinal
p2666
I00
sa(dp2667
Vto
p2668
F112.24
sVconfidence
p2669
F0.592
sVspeaker
p2670
I1
sVfrom
p2671
F112.06
sVfinal
p2672
I00
sa(dp2673
Vto
p2674
F112.41
sVconfidence
p2675
F0.592
sVspeaker
p2676
I1
sVfrom
p2677
F112.24
sVfinal
p2678
I00
sa(dp2679
Vto
p2680
F112.53
sVconfidence
p2681
F0.592
sVspeaker
p2682
I1
sVfrom
p2683
F112.41
sVfinal
p2684
I00
sa(dp2685
Vto
p2686
F112.76
sVconfidence
p2687
F0.592
sVspeaker
p2688
I1
sVfrom
p2689
F112.53
sVfinal
p2690
I00
sa(dp2691
Vto
p2692
F113.49
sVconfidence
p2693
F0.592
sVspeaker
p2694
I1
sVfrom
p2695
F112.76
sVfinal
p2696
I00
sa(dp2697
Vto
p2698
F114.06
sVconfidence
p2699
F0.632
sVspeaker
p2700
I1
sVfrom
p2701
F113.73
sVfinal
p2702
I00
sa(dp2703
Vto
p2704
F114.28
sVconfidence
p2705
F0.632
sVspeaker
p2706
I1
sVfrom
p2707
F114.06
sVfinal
p2708
I00
sa(dp2709
Vto
p2710
F114.66
sVconfidence
p2711
F0.632
sVspeaker
p2712
I1
sVfrom
p2713
F114.28
sVfinal
p2714
I00
sa(dp2715
Vto
p2716
F115.73
sVconfidence
p2717
F0.536
sVspeaker
p2718
I1
sVfrom
p2719
F115.19
sVfinal
p2720
I00
sa(dp2721
Vto
p2722
F116.55
sVconfidence
p2723
F0.312
sVspeaker
p2724
I3
sVfrom
p2725
F116.21
sVfinal
p2726
I00
sa(dp2727
Vto
p2728
F117.24
sVconfidence
p2729
F0.597
sVspeaker
p2730
I1
sVfrom
p2731
F116.83
sVfinal
p2732
I00
sa(dp2733
Vto
p2734
F117.69
sVconfidence
p2735
F0.623
sVspeaker
p2736
I1
sVfrom
p2737
F117.33
sVfinal
p2738
I00
sa(dp2739
Vto
p2740
F118.18
sVconfidence
p2741
F0.623
sVspeaker
p2742
I1
sVfrom
p2743
F117.69
sVfinal
p2744
I00
sa(dp2745
Vto
p2746
F118.28
sVconfidence
p2747
F0.623
sVspeaker
p2748
I1
sVfrom
p2749
F118.18
sVfinal
p2750
I00
sa(dp2751
Vto
p2752
F118.45
sVconfidence
p2753
F0.623
sVspeaker
p2754
I1
sVfrom
p2755
F118.28
sVfinal
p2756
I00
sa(dp2757
Vto
p2758
F118.63
sVconfidence
p2759
F0.623
sVspeaker
p2760
I1
sVfrom
p2761
F118.45
sVfinal
p2762
I00
sa(dp2763
Vto
p2764
F118.93
sVconfidence
p2765
F0.623
sVspeaker
p2766
I1
sVfrom
p2767
F118.63
sVfinal
p2768
I00
sa(dp2769
Vto
p2770
F119.33
sVconfidence
p2771
F0.623
sVspeaker
p2772
I1
sVfrom
p2773
F118.93
sVfinal
p2774
I00
sa(dp2775
Vto
p2776
F120.53
sVconfidence
p2777
F0.557
sVspeaker
p2778
I1
sVfrom
p2779
F120.06
sVfinal
p2780
I00
sa(dp2781
Vto
p2782
F120.65
sVconfidence
p2783
F0.557
sVspeaker
p2784
I1
sVfrom
p2785
F120.53
sVfinal
p2786
I00
sa(dp2787
Vto
p2788
F120.8
sVconfidence
p2789
F0.557
sVspeaker
p2790
I1
sVfrom
p2791
F120.65
sVfinal
p2792
I00
sa(dp2793
Vto
p2794
F120.89
sVconfidence
p2795
F0.557
sVspeaker
p2796
I1
sVfrom
p2797
F120.8
sVfinal
p2798
I00
sa(dp2799
Vto
p2800
F121.4
sVconfidence
p2801
F0.557
sVspeaker
p2802
I1
sVfrom
p2803
F120.89
sVfinal
p2804
I00
sa(dp2805
Vto
p2806
F121.8
sVconfidence
p2807
F0.557
sVspeaker
p2808
I1
sVfrom
p2809
F121.4
sVfinal
p2810
I00
sa(dp2811
Vto
p2812
F122.07
sVconfidence
p2813
F0.557
sVspeaker
p2814
I1
sVfrom
p2815
F121.8
sVfinal
p2816
I00
sa(dp2817
Vto
p2818
F122.47
sVconfidence
p2819
F0.557
sVspeaker
p2820
I1
sVfrom
p2821
F122.07
sVfinal
p2822
I00
sa(dp2823
Vto
p2824
F122.57
sVconfidence
p2825
F0.557
sVspeaker
p2826
I1
sVfrom
p2827
F122.47
sVfinal
p2828
I00
sa(dp2829
Vto
p2830
F122.64
sVconfidence
p2831
F0.557
sVspeaker
p2832
I1
sVfrom
p2833
F122.57
sVfinal
p2834
I00
sa(dp2835
Vto
p2836
F122.97
sVconfidence
p2837
F0.557
sVspeaker
p2838
I1
sVfrom
p2839
F122.64
sVfinal
p2840
I00
sa(dp2841
Vto
p2842
F123.42
sVconfidence
p2843
F0.557
sVspeaker
p2844
I1
sVfrom
p2845
F122.97
sVfinal
p2846
I00
sa(dp2847
Vto
p2848
F124.46
sVconfidence
p2849
F0.578
sVspeaker
p2850
I1
sVfrom
p2851
F124.26
sVfinal
p2852
I00
sa(dp2853
Vto
p2854
F124.65
sVconfidence
p2855
F0.578
sVspeaker
p2856
I1
sVfrom
p2857
F124.46
sVfinal
p2858
I00
sa(dp2859
Vto
p2860
F125.56
sVconfidence
p2861
F0.408
sVspeaker
p2862
I1
sVfrom
p2863
F125.41
sVfinal
p2864
I00
sa(dp2865
Vto
p2866
F125.69
sVconfidence
p2867
F0.408
sVspeaker
p2868
I1
sVfrom
p2869
F125.56
sVfinal
p2870
I00
sa(dp2871
Vto
p2872
F125.95
sVconfidence
p2873
F0.408
sVspeaker
p2874
I1
sVfrom
p2875
F125.69
sVfinal
p2876
I01
sas.