(dp0
Vresults
p1
(lp2
(dp3
Valternatives
p4
(lp5
(dp6
Vtimestamps
p7
(lp8
(lp9
V%HESITATION
p10
aF0.92
aF1.21
aasVconfidence
p11
F0.59
sVtranscript
p12
V%HESITATION 
p13
sasVfinal
p14
I01
sa(dp15
Valternatives
p16
(lp17
(dp18
Vtimestamps
p19
(lp20
(lp21
Veveryone
p22
aF14.32
aF14.62
aa(lp23
Vin
p24
aF24.68
aF24.85
aa(lp25
Vthe
p26
aF24.85
aF24.99
aa(lp27
VAustralian
p28
aF24.99
aF25.51
aasVconfidence
p29
F0.315
sVtranscript
p30
Veveryone in the Australian 
p31
sasVfinal
p32
I01
sa(dp33
Valternatives
p34
(lp35
(dp36
Vtimestamps
p37
(lp38
(lp39
Vwhen
p40
aF26.98
aF27.16
aa(lp41
Vmeeting
p42
aF29.38
aF29.67
aasVconfidence
p43
F0.584
sVtranscript
p44
Vwhen meeting 
p45
sasVfinal
p46
I01
sasVresult_index
p47
I0
sVspeaker_labels
p48
(lp49
(dp50
Vto
p51
F1.21
sVconfidence
p52
F0.5
sVspeaker
p53
I0
sVfrom
p54
F0.92
sVfinal
p55
I00
sa(dp56
Vto
p57
F14.62
sVconfidence
p58
F0.555
sVspeaker
p59
I1
sVfrom
p60
F14.32
sVfinal
p61
I00
sa(dp62
Vto
p63
F24.85
sVconfidence
p64
F0.465
sVspeaker
p65
I2
sVfrom
p66
F24.68
sVfinal
p67
I00
sa(dp68
Vto
p69
F24.99
sVconfidence
p70
F0.465
sVspeaker
p71
I2
sVfrom
p72
F24.85
sVfinal
p73
I00
sa(dp74
Vto
p75
F25.51
sVconfidence
p76
F0.465
sVspeaker
p77
I2
sVfrom
p78
F24.99
sVfinal
p79
I00
sa(dp80
Vto
p81
F27.16
sVconfidence
p82
F0.381
sVspeaker
p83
I2
sVfrom
p84
F26.98
sVfinal
p85
I00
sa(dp86
Vto
p87
F29.67
sVconfidence
p88
F0.408
sVspeaker
p89
I2
sVfrom
p90
F29.38
sVfinal
p91
I01
sas.