(dp0
Vresults
p1
(lp2
(dp3
Valternatives
p4
(lp5
(dp6
Vtimestamps
p7
(lp8
(lp9
Vand
p10
aF0.89
aF1.33
aasVconfidence
p11
F0.173
sVtranscript
p12
Vand 
p13
sasVfinal
p14
I01
sa(dp15
Valternatives
p16
(lp17
(dp18
Vtimestamps
p19
(lp20
(lp21
Vso
p22
aF3.42
aF3.62
aa(lp23
Vall
p24
aF3.62
aF3.76
aa(lp25
Vstating
p26
aF3.76
aF4.25
aa(lp27
Vthe
p28
aF4.25
aF4.35
aa(lp29
Vchickens
p30
aF4.35
aF5.11
aa(lp31
Vand
p32
aF5.37
aF5.51
aa(lp33
Vif
p34
aF5.51
aF5.62
aa(lp35
Vthey
p36
aF5.62
aF5.84
aa(lp37
Vkept
p38
aF5.84
aF6.14
aa(lp39
Vimproper
p40
aF6.14
aF6.56
aa(lp41
Vfaces
p42
aF6.56
aF7.02
aa(lp43
Vfade
p44
aF7.02
aF7.17
aa(lp45
Vaway
p46
aF7.17
aF7.48
aa(lp47
Vschool
p48
aF7.48
aF7.97
aa(lp49
Vwell
p50
aF7.97
aF8.23
aa(lp51
Vsuch
p52
aF8.23
aF8.66
aa(lp53
Va
p54
aF8.66
aF8.75
aa(lp55
Vlong
p56
aF8.75
aF8.99
aa(lp57
Vtime
p58
aF8.99
aF9.39
aa(lp59
Vlook
p60
aF9.39
aF9.55
aa(lp61
Varound
p62
aF9.55
aF9.83
aa(lp63
Vthree
p64
aF9.89
aF10.13
aa(lp65
Vweeks
p66
aF10.13
aF10.48
aa(lp67
Vor
p68
aF10.48
aF10.57
aa(lp69
Vsomething
p70
aF10.57
aF10.84
aa(lp71
Vlike
p72
aF10.84
aF11.07
aa(lp73
Vthat
p74
aF11.07
aF11.33
aasVconfidence
p75
F0.604
sVtranscript
p76
Vso all stating the chickens and if they kept improper faces fade away school well such a long time look around three weeks or something like that 
p77
sasVfinal
p78
I01
sa(dp79
Valternatives
p80
(lp81
(dp82
Vtimestamps
p83
(lp84
(lp85
Vlooking
p86
aF12.42
aF12.86
aa(lp87
Vfor
p88
aF12.86
aF13.16
aa(lp89
Vsome
p90
aF13.16
aF13.3
aa(lp91
Vnew
p92
aF13.3
aF13.52
aa(lp93
Vaches
p94
aF13.52
aF13.97
aa(lp95
Vall
p96
aF13.97
aF14.24
aa(lp97
Vand
p98
aF14.59
aF15.04
aasVconfidence
p99
F0.9
sVtranscript
p100
Vlooking for some new aches all and 
p101
sasVfinal
p102
I01
sa(dp103
Valternatives
p104
(lp105
(dp106
Vtimestamps
p107
(lp108
(lp109
VI
p110
aF15.75
aF15.87
aa(lp111
Vknow
p112
aF15.87
aF16.07
aa(lp113
Vno
p114
aF16.07
aF16.41
aa(lp115
Vform
p116
aF16.41
aF16.73
aa(lp117
Vthat
p118
aF16.73
aF16.87
aa(lp119
Vwe
p120
aF16.87
aF17.05
aa(lp121
Vuse
p122
aF17.05
aF17.37
aa(lp123
Vto
p124
aF17.37
aF17.48
aa(lp125
Vsee
p126
aF17.48
aF17.73
aa(lp127
Vhis
p128
aF17.73
aF18.02
aa(lp129
Vcoat
p130
aF18.02
aF18.4
aa(lp131
Vand
p132
aF18.86
aF19.0
aa(lp133
g110
aF19.0
aF19.04
aa(lp134
Vhad
p135
aF19.04
aF19.21
aa(lp136
g54
aF19.21
aF19.27
aa(lp137
Vlook
p138
aF19.27
aF19.47
aa(lp139
Vof
p140
aF19.47
aF19.66
aa(lp141
Vthis
p142
aF19.66
aF20.05
aasVconfidence
p143
F0.765
sVtranscript
p144
VI know no form that we use to see his coat and I had a look of this 
p145
sasVfinal
p146
I01
sa(dp147
Valternatives
p148
(lp149
(dp150
Vtimestamps
p151
(lp152
(lp153
Vit
p154
aF21.45
aF21.52
aa(lp155
Vwas
p156
aF21.52
aF21.73
aa(lp157
Vthe
p158
aF21.73
aF21.89
aasVconfidence
p159
F0.494
sVtranscript
p160
Vit was the 
p161
sasVfinal
p162
I01
sa(dp163
Valternatives
p164
(lp165
(dp166
Vtimestamps
p167
(lp168
(lp169
Vwhy
p170
aF22.73
aF23.03
aa(lp171
Vdid
p172
aF23.61
aF24.0
aa(lp173
Von
p174
aF24.15
aF24.33
aa(lp175
Vthat
p176
aF24.33
aF24.52
aa(lp177
Vand
p178
aF24.59
aF24.74
aa(lp179
Vthen
p180
aF24.74
aF24.88
aa(lp181
VI'm
p182
aF24.88
aF25.05
aa(lp183
Vgoing
p184
aF25.05
aF25.21
aa(lp185
Vto
p186
aF25.37
aF25.45
aa(lp187
Vcheck
p188
aF25.45
aF25.72
aa(lp189
Vin
p190
aF25.72
aF26.0
aa(lp191
Vmy
p192
aF26.38
aF26.53
aa(lp193
Vsoul
p194
aF26.53
aF27.03
aa(lp195
Vthat
p196
aF27.03
aF27.31
aa(lp197
Vwell
p198
aF27.34
aF27.76
aa(lp199
Vit
p200
aF28.12
aF28.21
aa(lp201
Vwas
p202
aF28.21
aF28.3
aa(lp203
g54
aF28.3
aF28.35
aa(lp204
Vlittle
p205
aF28.35
aF28.58
aa(lp206
Vfluffy
p207
aF28.78
aF29.23
aa(lp208
Vface
p209
aF29.35
aF29.65
aa(lp210
Vpoking
p211
aF29.65
aF30.08
aa(lp212
Vout
p213
aF30.08
aF30.36
aasVconfidence
p214
F0.567
sVtranscript
p215
Vwhy did on that and then I'm going to check in my soul that well it was a little fluffy face poking out 
p216
sasVfinal
p217
I01
sa(dp218
Valternatives
p219
(lp220
(dp221
Vtimestamps
p222
(lp223
(lp224
g110
aF30.94
aF31.09
aa(lp225
Vjust
p226
aF31.09
aF31.33
aa(lp227
Vrun
p228
aF31.33
aF31.62
aa(lp229
Vto
p230
aF31.62
aF31.75
aa(lp231
Vthe
p232
aF31.75
aF31.84
aa(lp233
Vhouse
p234
aF31.84
aF32.38
aasVconfidence
p235
F0.855
sVtranscript
p236
VI just run to the house 
p237
sasVfinal
p238
I01
sa(dp239
Valternatives
p240
(lp241
(dp242
Vtimestamps
p243
(lp244
(lp245
Vand
p246
aF33.35
aF34.01
aa(lp247
Vthe
p248
aF34.01
aF34.13
aa(lp249
Vwhole
p250
aF34.19
aF34.37
aa(lp251
Vmom
p252
aF34.37
aF34.66
aa(lp253
Vdad
p254
aF34.69
aF34.99
aa(lp255
Vso
p256
aF34.99
aF35.11
aa(lp257
g110
aF35.11
aF35.3
aa(lp258
Vthought
p259
aF35.56
aF35.78
aa(lp260
g110
aF35.78
aF35.84
aa(lp261
Vsaw
p262
aF35.84
aF36.07
aa(lp263
g54
aF36.07
aF36.16
aa(lp264
Vpoll
p265
aF36.16
aF36.48
aa(lp266
Vsomeone
p267
aF36.48
aF36.81
aa(lp268
Vto
p269
aF36.81
aF36.92
aa(lp270
Vmake
p271
aF36.92
aF37.13
aa(lp272
Vtheir
p273
aF37.19
aF37.52
aasVconfidence
p274
F0.687
sVtranscript
p275
Vand the whole mom dad so I thought I saw a poll someone to make their 
p276
sasVfinal
p277
I01
sa(dp278
Valternatives
p279
(lp280
(dp281
Vtimestamps
p282
(lp283
(lp284
Vmom
p285
aF38.17
aF38.53
aa(lp286
Vcame
p287
aF38.53
aF38.95
aa(lp288
Vin
p289
aF38.95
aF39.15
aa(lp290
Vand
p291
aF39.36
aF39.58
aa(lp292
Vshe
p293
aF39.58
aF39.71
aa(lp294
Vjust
p295
aF39.71
aF39.94
aa(lp296
Vpull
p297
aF39.94
aF40.27
aa(lp298
Vsome
p299
aF40.27
aF40.49
aa(lp300
Vsort
p301
aF40.49
aF40.71
aa(lp302
Vof
p303
aF40.71
aF40.81
aa(lp304
Vsix
p305
aF40.81
aF41.2
aa(lp306
Vstory
p307
aF41.23
aF41.89
aa(lp308
Vand
p309
aF41.94
aF42.61
aa(lp310
Vactually
p311
aF42.99
aF43.46
aa(lp312
Vshe
p313
aF43.46
aF43.6
aa(lp314
Vfound
p315
aF43.6
aF43.88
aa(lp316
Vout
p317
aF43.88
aF44.02
aa(lp318
Vthe
p319
aF44.02
aF44.11
aa(lp320
Vdeal
p321
aF44.11
aF44.35
aa(lp322
Vwith
p323
aF44.35
aF44.49
aa(lp324
Vcouldn't
p325
aF44.52
aF45.0
aa(lp326
Von
p327
aF45.04
aF45.21
aa(lp328
Vthe
p329
aF45.21
aF45.34
aa(lp330
Vnavy
p331
aF45.34
aF45.62
aa(lp332
Vcaptain
p333
aF45.65
aF46.01
aa(lp334
Vpublicized
p335
aF46.01
aF46.68
aasVconfidence
p336
F0.74
sVtranscript
p337
Vmom came in and she just pull some sort of six story and actually she found out the deal with couldn't on the navy captain publicized 
p338
sasVfinal
p339
I01
sa(dp340
Valternatives
p341
(lp342
(dp343
Vtimestamps
p344
(lp345
(lp346
Vlike
p347
aF47.43
aF47.76
aa(lp348
Vhow
p349
aF47.88
aF48.16
aa(lp350
Vit's
p351
aF48.28
aF48.38
aa(lp352
Vpossible
p353
aF48.38
aF49.05
aa(lp354
g110
aF49.39
aF49.46
aa(lp355
Vmean
p356
aF49.46
aF49.58
aa(lp357
Vlike
p358
aF49.58
aF49.9
aa(lp359
Vright
p360
aF50.2
aF50.65
aa(lp361
Vlooking
p362
aF50.65
aF50.95
aa(lp363
Voff
p364
aF50.95
aF51.13
aa(lp365
Vto
p366
aF51.13
aF51.26
aa(lp367
Vprison
p368
aF51.26
aF51.87
aa(lp369
Vthat
p370
aF52.21
aF52.38
aa(lp371
Vwas
p372
aF52.38
aF52.52
aa(lp373
Vjust
p374
aF52.52
aF52.77
aa(lp375
Vso
p376
aF52.77
aF52.93
aa(lp377
Vstrange
p378
aF52.93
aF53.97
aa(lp379
Vwell
p380
aF54.17
aF54.62
aa(lp381
Vbe
p382
aF54.62
aF54.8
aa(lp383
Vreally
p384
aF54.8
aF55.14
aa(lp385
Vcool
p386
aF55.14
aF55.65
aa(lp387
Vif
p388
aF55.65
aF55.92
aa(lp389
Vwell
p390
aF55.95
aF56.38
aa(lp391
Vthey
p392
aF56.52
aF56.65
aa(lp393
Vbecome
p394
aF56.65
aF56.94
aa(lp395
Vfriends
p396
aF56.94
aF57.34
aa(lp397
Vand
p398
aF57.34
aF57.59
aa(lp399
Vand
p400
aF57.59
aF57.77
aa(lp401
Vthat's
p402
aF57.77
aF57.96
aa(lp403
Vand
p404
aF58.44
aF58.66
aa(lp405
Vthat's
p406
aF58.99
aF59.15
aa(lp407
Van
p408
aF59.15
aF59.31
aa(lp409
Vactually
p410
aF59.34
aF59.69
aa(lp411
Vacts
p412
aF59.69
aF60.03
aa(lp413
Vlike
p414
aF60.03
aF60.22
aa(lp415
g54
aF60.22
aF60.29
aa(lp416
Vchicken
p417
aF60.29
aF60.9
aasVconfidence
p418
F0.689
sVtranscript
p419
Vlike how it's possible I mean like right looking off to prison that was just so strange well be really cool if well they become friends and and that's and that's an actually acts like a chicken 
p420
sasVfinal
p421
I01
sa(dp422
Valternatives
p423
(lp424
(dp425
Vtimestamps
p426
(lp427
(lp428
g110
aF62.79
aF62.89
aa(lp429
Vthink
p430
aF62.89
aF63.02
aa(lp431
Vgoes
p432
aF63.02
aF63.25
aa(lp433
Vrunning
p434
aF63.25
aF63.64
aa(lp435
Varound
p436
aF63.64
aF64.08
aa(lp437
Vchasing
p438
aF64.08
aF64.43
aa(lp439
Vpicking
p440
aF64.43
aF64.77
aa(lp441
Vwhy
p442
aF64.77
aF65.15
aasVconfidence
p443
F0.651
sVtranscript
p444
VI think goes running around chasing picking why 
p445
sasVfinal
p446
I01
sasVresult_index
p447
I0
sVspeaker_labels
p448
(lp449
(dp450
Vto
p451
F1.33
sVconfidence
p452
F0.5
sVspeaker
p453
I0
sVfrom
p454
F0.89
sVfinal
p455
I00
sa(dp456
Vto
p457
F3.62
sVconfidence
p458
F0.53
sVspeaker
p459
I0
sVfrom
p460
F3.42
sVfinal
p461
I00
sa(dp462
Vto
p463
F3.76
sVconfidence
p464
F0.53
sVspeaker
p465
I0
sVfrom
p466
F3.62
sVfinal
p467
I00
sa(dp468
Vto
p469
F4.25
sVconfidence
p470
F0.53
sVspeaker
p471
I0
sVfrom
p472
F3.76
sVfinal
p473
I00
sa(dp474
Vto
p475
F4.35
sVconfidence
p476
F0.53
sVspeaker
p477
I0
sVfrom
p478
F4.25
sVfinal
p479
I00
sa(dp480
Vto
p481
F5.11
sVconfidence
p482
F0.53
sVspeaker
p483
I0
sVfrom
p484
F4.35
sVfinal
p485
I00
sa(dp486
Vto
p487
F5.51
sVconfidence
p488
F0.416
sVspeaker
p489
I0
sVfrom
p490
F5.37
sVfinal
p491
I00
sa(dp492
Vto
p493
F5.62
sVconfidence
p494
F0.416
sVspeaker
p495
I0
sVfrom
p496
F5.51
sVfinal
p497
I00
sa(dp498
Vto
p499
F5.84
sVconfidence
p500
F0.416
sVspeaker
p501
I0
sVfrom
p502
F5.62
sVfinal
p503
I00
sa(dp504
Vto
p505
F6.14
sVconfidence
p506
F0.416
sVspeaker
p507
I0
sVfrom
p508
F5.84
sVfinal
p509
I00
sa(dp510
Vto
p511
F6.56
sVconfidence
p512
F0.416
sVspeaker
p513
I0
sVfrom
p514
F6.14
sVfinal
p515
I00
sa(dp516
Vto
p517
F7.02
sVconfidence
p518
F0.416
sVspeaker
p519
I0
sVfrom
p520
F6.56
sVfinal
p521
I00
sa(dp522
Vto
p523
F7.17
sVconfidence
p524
F0.416
sVspeaker
p525
I0
sVfrom
p526
F7.02
sVfinal
p527
I00
sa(dp528
Vto
p529
F7.48
sVconfidence
p530
F0.416
sVspeaker
p531
I0
sVfrom
p532
F7.17
sVfinal
p533
I00
sa(dp534
Vto
p535
F7.97
sVconfidence
p536
F0.416
sVspeaker
p537
I0
sVfrom
p538
F7.48
sVfinal
p539
I00
sa(dp540
Vto
p541
F8.23
sVconfidence
p542
F0.416
sVspeaker
p543
I0
sVfrom
p544
F7.97
sVfinal
p545
I00
sa(dp546
Vto
p547
F8.66
sVconfidence
p548
F0.416
sVspeaker
p549
I0
sVfrom
p550
F8.23
sVfinal
p551
I00
sa(dp552
Vto
p553
F8.75
sVconfidence
p554
F0.416
sVspeaker
p555
I0
sVfrom
p556
F8.66
sVfinal
p557
I00
sa(dp558
Vto
p559
F8.99
sVconfidence
p560
F0.416
sVspeaker
p561
I0
sVfrom
p562
F8.75
sVfinal
p563
I00
sa(dp564
Vto
p565
F9.39
sVconfidence
p566
F0.416
sVspeaker
p567
I0
sVfrom
p568
F8.99
sVfinal
p569
I00
sa(dp570
Vto
p571
F9.55
sVconfidence
p572
F0.416
sVspeaker
p573
I0
sVfrom
p574
F9.39
sVfinal
p575
I00
sa(dp576
Vto
p577
F9.83
sVconfidence
p578
F0.416
sVspeaker
p579
I0
sVfrom
p580
F9.55
sVfinal
p581
I00
sa(dp582
Vto
p583
F10.13
sVconfidence
p584
F0.337
sVspeaker
p585
I0
sVfrom
p586
F9.89
sVfinal
p587
I00
sa(dp588
Vto
p589
F10.48
sVconfidence
p590
F0.337
sVspeaker
p591
I0
sVfrom
p592
F10.13
sVfinal
p593
I00
sa(dp594
Vto
p595
F10.57
sVconfidence
p596
F0.337
sVspeaker
p597
I0
sVfrom
p598
F10.48
sVfinal
p599
I00
sa(dp600
Vto
p601
F10.84
sVconfidence
p602
F0.337
sVspeaker
p603
I0
sVfrom
p604
F10.57
sVfinal
p605
I00
sa(dp606
Vto
p607
F11.07
sVconfidence
p608
F0.337
sVspeaker
p609
I0
sVfrom
p610
F10.84
sVfinal
p611
I00
sa(dp612
Vto
p613
F11.33
sVconfidence
p614
F0.337
sVspeaker
p615
I0
sVfrom
p616
F11.07
sVfinal
p617
I00
sa(dp618
Vto
p619
F12.86
sVconfidence
p620
F0.399
sVspeaker
p621
I0
sVfrom
p622
F12.42
sVfinal
p623
I00
sa(dp624
Vto
p625
F13.16
sVconfidence
p626
F0.399
sVspeaker
p627
I0
sVfrom
p628
F12.86
sVfinal
p629
I00
sa(dp630
Vto
p631
F13.3
sVconfidence
p632
F0.399
sVspeaker
p633
I0
sVfrom
p634
F13.16
sVfinal
p635
I00
sa(dp636
Vto
p637
F13.52
sVconfidence
p638
F0.399
sVspeaker
p639
I0
sVfrom
p640
F13.3
sVfinal
p641
I00
sa(dp642
Vto
p643
F13.97
sVconfidence
p644
F0.399
sVspeaker
p645
I0
sVfrom
p646
F13.52
sVfinal
p647
I00
sa(dp648
Vto
p649
F14.24
sVconfidence
p650
F0.399
sVspeaker
p651
I0
sVfrom
p652
F13.97
sVfinal
p653
I00
sa(dp654
Vto
p655
F15.04
sVconfidence
p656
F0.238
sVspeaker
p657
I0
sVfrom
p658
F14.59
sVfinal
p659
I00
sa(dp660
Vto
p661
F15.87
sVconfidence
p662
F0.395
sVspeaker
p663
I0
sVfrom
p664
F15.75
sVfinal
p665
I00
sa(dp666
Vto
p667
F16.07
sVconfidence
p668
F0.395
sVspeaker
p669
I0
sVfrom
p670
F15.87
sVfinal
p671
I00
sa(dp672
Vto
p673
F16.41
sVconfidence
p674
F0.395
sVspeaker
p675
I0
sVfrom
p676
F16.07
sVfinal
p677
I00
sa(dp678
Vto
p679
F16.73
sVconfidence
p680
F0.395
sVspeaker
p681
I0
sVfrom
p682
F16.41
sVfinal
p683
I00
sa(dp684
Vto
p685
F16.87
sVconfidence
p686
F0.395
sVspeaker
p687
I0
sVfrom
p688
F16.73
sVfinal
p689
I00
sa(dp690
Vto
p691
F17.05
sVconfidence
p692
F0.395
sVspeaker
p693
I0
sVfrom
p694
F16.87
sVfinal
p695
I00
sa(dp696
Vto
p697
F17.37
sVconfidence
p698
F0.395
sVspeaker
p699
I0
sVfrom
p700
F17.05
sVfinal
p701
I00
sa(dp702
Vto
p703
F17.48
sVconfidence
p704
F0.395
sVspeaker
p705
I0
sVfrom
p706
F17.37
sVfinal
p707
I00
sa(dp708
Vto
p709
F17.73
sVconfidence
p710
F0.395
sVspeaker
p711
I0
sVfrom
p712
F17.48
sVfinal
p713
I00
sa(dp714
Vto
p715
F18.02
sVconfidence
p716
F0.395
sVspeaker
p717
I0
sVfrom
p718
F17.73
sVfinal
p719
I00
sa(dp720
Vto
p721
F18.4
sVconfidence
p722
F0.395
sVspeaker
p723
I0
sVfrom
p724
F18.02
sVfinal
p725
I00
sa(dp726
Vto
p727
F19.0
sVconfidence
p728
F0.403
sVspeaker
p729
I0
sVfrom
p730
F18.86
sVfinal
p731
I00
sa(dp732
Vto
p733
F19.04
sVconfidence
p734
F0.403
sVspeaker
p735
I0
sVfrom
p736
F19.0
sVfinal
p737
I00
sa(dp738
Vto
p739
F19.21
sVconfidence
p740
F0.403
sVspeaker
p741
I0
sVfrom
p742
F19.04
sVfinal
p743
I00
sa(dp744
Vto
p745
F19.27
sVconfidence
p746
F0.403
sVspeaker
p747
I0
sVfrom
p748
F19.21
sVfinal
p749
I00
sa(dp750
Vto
p751
F19.47
sVconfidence
p752
F0.403
sVspeaker
p753
I0
sVfrom
p754
F19.27
sVfinal
p755
I00
sa(dp756
Vto
p757
F19.66
sVconfidence
p758
F0.403
sVspeaker
p759
I0
sVfrom
p760
F19.47
sVfinal
p761
I00
sa(dp762
Vto
p763
F20.05
sVconfidence
p764
F0.403
sVspeaker
p765
I0
sVfrom
p766
F19.66
sVfinal
p767
I00
sa(dp768
Vto
p769
F21.52
sVconfidence
p770
F0.45
sVspeaker
p771
I2
sVfrom
p772
F21.45
sVfinal
p773
I00
sa(dp774
Vto
p775
F21.73
sVconfidence
p776
F0.45
sVspeaker
p777
I2
sVfrom
p778
F21.52
sVfinal
p779
I00
sa(dp780
Vto
p781
F21.89
sVconfidence
p782
F0.45
sVspeaker
p783
I2
sVfrom
p784
F21.73
sVfinal
p785
I00
sa(dp786
Vto
p787
F23.03
sVconfidence
p788
F0.36
sVspeaker
p789
I0
sVfrom
p790
F22.73
sVfinal
p791
I00
sa(dp792
Vto
p793
F24.0
sVconfidence
p794
F0.473
sVspeaker
p795
I0
sVfrom
p796
F23.61
sVfinal
p797
I00
sa(dp798
Vto
p799
F24.33
sVconfidence
p800
F0.401
sVspeaker
p801
I0
sVfrom
p802
F24.15
sVfinal
p803
I00
sa(dp804
Vto
p805
F24.52
sVconfidence
p806
F0.401
sVspeaker
p807
I0
sVfrom
p808
F24.33
sVfinal
p809
I00
sa(dp810
Vto
p811
F24.74
sVconfidence
p812
F0.361
sVspeaker
p813
I2
sVfrom
p814
F24.59
sVfinal
p815
I00
sa(dp816
Vto
p817
F24.88
sVconfidence
p818
F0.361
sVspeaker
p819
I2
sVfrom
p820
F24.74
sVfinal
p821
I00
sa(dp822
Vto
p823
F25.05
sVconfidence
p824
F0.361
sVspeaker
p825
I2
sVfrom
p826
F24.88
sVfinal
p827
I00
sa(dp828
Vto
p829
F25.21
sVconfidence
p830
F0.361
sVspeaker
p831
I2
sVfrom
p832
F25.05
sVfinal
p833
I00
sa(dp834
Vto
p835
F25.45
sVconfidence
p836
F0.549
sVspeaker
p837
I0
sVfrom
p838
F25.37
sVfinal
p839
I00
sa(dp840
Vto
p841
F25.72
sVconfidence
p842
F0.549
sVspeaker
p843
I0
sVfrom
p844
F25.45
sVfinal
p845
I00
sa(dp846
Vto
p847
F26.0
sVconfidence
p848
F0.549
sVspeaker
p849
I0
sVfrom
p850
F25.72
sVfinal
p851
I00
sa(dp852
Vto
p853
F26.53
sVconfidence
p854
F0.419
sVspeaker
p855
I0
sVfrom
p856
F26.38
sVfinal
p857
I00
sa(dp858
Vto
p859
F27.03
sVconfidence
p860
F0.419
sVspeaker
p861
I0
sVfrom
p862
F26.53
sVfinal
p863
I00
sa(dp864
Vto
p865
F27.31
sVconfidence
p866
F0.419
sVspeaker
p867
I0
sVfrom
p868
F27.03
sVfinal
p869
I00
sa(dp870
Vto
p871
F27.76
sVconfidence
p872
F0.317
sVspeaker
p873
I0
sVfrom
p874
F27.34
sVfinal
p875
I00
sa(dp876
Vto
p877
F28.21
sVconfidence
p878
F0.461
sVspeaker
p879
I2
sVfrom
p880
F28.12
sVfinal
p881
I00
sa(dp882
Vto
p883
F28.3
sVconfidence
p884
F0.461
sVspeaker
p885
I2
sVfrom
p886
F28.21
sVfinal
p887
I00
sa(dp888
Vto
p889
F28.35
sVconfidence
p890
F0.461
sVspeaker
p891
I2
sVfrom
p892
F28.3
sVfinal
p893
I00
sa(dp894
Vto
p895
F28.58
sVconfidence
p896
F0.461
sVspeaker
p897
I2
sVfrom
p898
F28.35
sVfinal
p899
I00
sa(dp900
Vto
p901
F29.23
sVconfidence
p902
F0.412
sVspeaker
p903
I2
sVfrom
p904
F28.78
sVfinal
p905
I00
sa(dp906
Vto
p907
F29.65
sVconfidence
p908
F0.578
sVspeaker
p909
I0
sVfrom
p910
F29.35
sVfinal
p911
I00
sa(dp912
Vto
p913
F30.08
sVconfidence
p914
F0.578
sVspeaker
p915
I0
sVfrom
p916
F29.65
sVfinal
p917
I00
sa(dp918
Vto
p919
F30.36
sVconfidence
p920
F0.578
sVspeaker
p921
I0
sVfrom
p922
F30.08
sVfinal
p923
I00
sa(dp924
Vto
p925
F31.09
sVconfidence
p926
F0.443
sVspeaker
p927
I0
sVfrom
p928
F30.94
sVfinal
p929
I00
sa(dp930
Vto
p931
F31.33
sVconfidence
p932
F0.443
sVspeaker
p933
I0
sVfrom
p934
F31.09
sVfinal
p935
I00
sa(dp936
Vto
p937
F31.62
sVconfidence
p938
F0.443
sVspeaker
p939
I0
sVfrom
p940
F31.33
sVfinal
p941
I00
sa(dp942
Vto
p943
F31.75
sVconfidence
p944
F0.443
sVspeaker
p945
I0
sVfrom
p946
F31.62
sVfinal
p947
I00
sa(dp948
Vto
p949
F31.84
sVconfidence
p950
F0.443
sVspeaker
p951
I0
sVfrom
p952
F31.75
sVfinal
p953
I00
sa(dp954
Vto
p955
F32.38
sVconfidence
p956
F0.443
sVspeaker
p957
I0
sVfrom
p958
F31.84
sVfinal
p959
I00
sa(dp960
Vto
p961
F34.01
sVconfidence
p962
F0.316
sVspeaker
p963
I0
sVfrom
p964
F33.35
sVfinal
p965
I00
sa(dp966
Vto
p967
F34.13
sVconfidence
p968
F0.316
sVspeaker
p969
I0
sVfrom
p970
F34.01
sVfinal
p971
I00
sa(dp972
Vto
p973
F34.37
sVconfidence
p974
F0.267
sVspeaker
p975
I0
sVfrom
p976
F34.19
sVfinal
p977
I00
sa(dp978
Vto
p979
F34.66
sVconfidence
p980
F0.267
sVspeaker
p981
I0
sVfrom
p982
F34.37
sVfinal
p983
I00
sa(dp984
Vto
p985
F34.99
sVconfidence
p986
F0.358
sVspeaker
p987
I0
sVfrom
p988
F34.69
sVfinal
p989
I00
sa(dp990
Vto
p991
F35.11
sVconfidence
p992
F0.358
sVspeaker
p993
I0
sVfrom
p994
F34.99
sVfinal
p995
I00
sa(dp996
Vto
p997
F35.3
sVconfidence
p998
F0.358
sVspeaker
p999
I0
sVfrom
p1000
F35.11
sVfinal
p1001
I00
sa(dp1002
Vto
p1003
F35.78
sVconfidence
p1004
F0.262
sVspeaker
p1005
I0
sVfrom
p1006
F35.56
sVfinal
p1007
I00
sa(dp1008
Vto
p1009
F35.84
sVconfidence
p1010
F0.262
sVspeaker
p1011
I0
sVfrom
p1012
F35.78
sVfinal
p1013
I00
sa(dp1014
Vto
p1015
F36.07
sVconfidence
p1016
F0.262
sVspeaker
p1017
I0
sVfrom
p1018
F35.84
sVfinal
p1019
I00
sa(dp1020
Vto
p1021
F36.16
sVconfidence
p1022
F0.262
sVspeaker
p1023
I0
sVfrom
p1024
F36.07
sVfinal
p1025
I00
sa(dp1026
Vto
p1027
F36.48
sVconfidence
p1028
F0.262
sVspeaker
p1029
I0
sVfrom
p1030
F36.16
sVfinal
p1031
I00
sa(dp1032
Vto
p1033
F36.81
sVconfidence
p1034
F0.262
sVspeaker
p1035
I0
sVfrom
p1036
F36.48
sVfinal
p1037
I00
sa(dp1038
Vto
p1039
F36.92
sVconfidence
p1040
F0.262
sVspeaker
p1041
I0
sVfrom
p1042
F36.81
sVfinal
p1043
I00
sa(dp1044
Vto
p1045
F37.13
sVconfidence
p1046
F0.262
sVspeaker
p1047
I0
sVfrom
p1048
F36.92
sVfinal
p1049
I00
sa(dp1050
Vto
p1051
F37.52
sVconfidence
p1052
F0.573
sVspeaker
p1053
I0
sVfrom
p1054
F37.19
sVfinal
p1055
I00
sa(dp1056
Vto
p1057
F38.53
sVconfidence
p1058
F0.43
sVspeaker
p1059
I0
sVfrom
p1060
F38.17
sVfinal
p1061
I00
sa(dp1062
Vto
p1063
F38.95
sVconfidence
p1064
F0.43
sVspeaker
p1065
I0
sVfrom
p1066
F38.53
sVfinal
p1067
I00
sa(dp1068
Vto
p1069
F39.15
sVconfidence
p1070
F0.43
sVspeaker
p1071
I0
sVfrom
p1072
F38.95
sVfinal
p1073
I00
sa(dp1074
Vto
p1075
F39.58
sVconfidence
p1076
F0.465
sVspeaker
p1077
I0
sVfrom
p1078
F39.36
sVfinal
p1079
I00
sa(dp1080
Vto
p1081
F39.71
sVconfidence
p1082
F0.465
sVspeaker
p1083
I0
sVfrom
p1084
F39.58
sVfinal
p1085
I00
sa(dp1086
Vto
p1087
F39.94
sVconfidence
p1088
F0.465
sVspeaker
p1089
I0
sVfrom
p1090
F39.71
sVfinal
p1091
I00
sa(dp1092
Vto
p1093
F40.27
sVconfidence
p1094
F0.465
sVspeaker
p1095
I0
sVfrom
p1096
F39.94
sVfinal
p1097
I00
sa(dp1098
Vto
p1099
F40.49
sVconfidence
p1100
F0.465
sVspeaker
p1101
I0
sVfrom
p1102
F40.27
sVfinal
p1103
I00
sa(dp1104
Vto
p1105
F40.71
sVconfidence
p1106
F0.465
sVspeaker
p1107
I0
sVfrom
p1108
F40.49
sVfinal
p1109
I00
sa(dp1110
Vto
p1111
F40.81
sVconfidence
p1112
F0.465
sVspeaker
p1113
I0
sVfrom
p1114
F40.71
sVfinal
p1115
I00
sa(dp1116
Vto
p1117
F41.2
sVconfidence
p1118
F0.465
sVspeaker
p1119
I0
sVfrom
p1120
F40.81
sVfinal
p1121
I00
sa(dp1122
Vto
p1123
F41.89
sVconfidence
p1124
F0.484
sVspeaker
p1125
I0
sVfrom
p1126
F41.23
sVfinal
p1127
I00
sa(dp1128
Vto
p1129
F42.61
sVconfidence
p1130
F0.504
sVspeaker
p1131
I0
sVfrom
p1132
F41.94
sVfinal
p1133
I00
sa(dp1134
Vto
p1135
F43.46
sVconfidence
p1136
F0.446
sVspeaker
p1137
I0
sVfrom
p1138
F42.99
sVfinal
p1139
I00
sa(dp1140
Vto
p1141
F43.6
sVconfidence
p1142
F0.446
sVspeaker
p1143
I0
sVfrom
p1144
F43.46
sVfinal
p1145
I00
sa(dp1146
Vto
p1147
F43.88
sVconfidence
p1148
F0.446
sVspeaker
p1149
I0
sVfrom
p1150
F43.6
sVfinal
p1151
I00
sa(dp1152
Vto
p1153
F44.02
sVconfidence
p1154
F0.446
sVspeaker
p1155
I0
sVfrom
p1156
F43.88
sVfinal
p1157
I00
sa(dp1158
Vto
p1159
F44.11
sVconfidence
p1160
F0.446
sVspeaker
p1161
I0
sVfrom
p1162
F44.02
sVfinal
p1163
I00
sa(dp1164
Vto
p1165
F44.35
sVconfidence
p1166
F0.446
sVspeaker
p1167
I0
sVfrom
p1168
F44.11
sVfinal
p1169
I00
sa(dp1170
Vto
p1171
F44.49
sVconfidence
p1172
F0.446
sVspeaker
p1173
I0
sVfrom
p1174
F44.35
sVfinal
p1175
I00
sa(dp1176
Vto
p1177
F45.0
sVconfidence
p1178
F0.257
sVspeaker
p1179
I0
sVfrom
p1180
F44.52
sVfinal
p1181
I00
sa(dp1182
Vto
p1183
F45.21
sVconfidence
p1184
F0.458
sVspeaker
p1185
I2
sVfrom
p1186
F45.04
sVfinal
p1187
I00
sa(dp1188
Vto
p1189
F45.34
sVconfidence
p1190
F0.458
sVspeaker
p1191
I2
sVfrom
p1192
F45.21
sVfinal
p1193
I00
sa(dp1194
Vto
p1195
F45.62
sVconfidence
p1196
F0.458
sVspeaker
p1197
I2
sVfrom
p1198
F45.34
sVfinal
p1199
I00
sa(dp1200
Vto
p1201
F46.01
sVconfidence
p1202
F0.29
sVspeaker
p1203
I0
sVfrom
p1204
F45.65
sVfinal
p1205
I00
sa(dp1206
Vto
p1207
F46.68
sVconfidence
p1208
F0.29
sVspeaker
p1209
I0
sVfrom
p1210
F46.01
sVfinal
p1211
I00
sa(dp1212
Vto
p1213
F47.76
sVconfidence
p1214
F0.632
sVspeaker
p1215
I2
sVfrom
p1216
F47.43
sVfinal
p1217
I00
sa(dp1218
Vto
p1219
F48.16
sVconfidence
p1220
F0.599
sVspeaker
p1221
I2
sVfrom
p1222
F47.88
sVfinal
p1223
I00
sa(dp1224
Vto
p1225
F48.38
sVconfidence
p1226
F0.506
sVspeaker
p1227
I2
sVfrom
p1228
F48.28
sVfinal
p1229
I00
sa(dp1230
Vto
p1231
F49.05
sVconfidence
p1232
F0.506
sVspeaker
p1233
I2
sVfrom
p1234
F48.38
sVfinal
p1235
I00
sa(dp1236
Vto
p1237
F49.46
sVconfidence
p1238
F0.547
sVspeaker
p1239
I0
sVfrom
p1240
F49.39
sVfinal
p1241
I00
sa(dp1242
Vto
p1243
F49.58
sVconfidence
p1244
F0.547
sVspeaker
p1245
I0
sVfrom
p1246
F49.46
sVfinal
p1247
I00
sa(dp1248
Vto
p1249
F49.9
sVconfidence
p1250
F0.547
sVspeaker
p1251
I0
sVfrom
p1252
F49.58
sVfinal
p1253
I00
sa(dp1254
Vto
p1255
F50.65
sVconfidence
p1256
F0.566
sVspeaker
p1257
I0
sVfrom
p1258
F50.2
sVfinal
p1259
I00
sa(dp1260
Vto
p1261
F50.95
sVconfidence
p1262
F0.566
sVspeaker
p1263
I0
sVfrom
p1264
F50.65
sVfinal
p1265
I00
sa(dp1266
Vto
p1267
F51.13
sVconfidence
p1268
F0.566
sVspeaker
p1269
I0
sVfrom
p1270
F50.95
sVfinal
p1271
I00
sa(dp1272
Vto
p1273
F51.26
sVconfidence
p1274
F0.566
sVspeaker
p1275
I0
sVfrom
p1276
F51.13
sVfinal
p1277
I00
sa(dp1278
Vto
p1279
F51.87
sVconfidence
p1280
F0.566
sVspeaker
p1281
I0
sVfrom
p1282
F51.26
sVfinal
p1283
I00
sa(dp1284
Vto
p1285
F52.38
sVconfidence
p1286
F0.405
sVspeaker
p1287
I0
sVfrom
p1288
F52.21
sVfinal
p1289
I00
sa(dp1290
Vto
p1291
F52.52
sVconfidence
p1292
F0.405
sVspeaker
p1293
I0
sVfrom
p1294
F52.38
sVfinal
p1295
I00
sa(dp1296
Vto
p1297
F52.77
sVconfidence
p1298
F0.405
sVspeaker
p1299
I0
sVfrom
p1300
F52.52
sVfinal
p1301
I00
sa(dp1302
Vto
p1303
F52.93
sVconfidence
p1304
F0.405
sVspeaker
p1305
I0
sVfrom
p1306
F52.77
sVfinal
p1307
I00
sa(dp1308
Vto
p1309
F53.97
sVconfidence
p1310
F0.405
sVspeaker
p1311
I0
sVfrom
p1312
F52.93
sVfinal
p1313
I00
sa(dp1314
Vto
p1315
F54.62
sVconfidence
p1316
F0.407
sVspeaker
p1317
I0
sVfrom
p1318
F54.17
sVfinal
p1319
I00
sa(dp1320
Vto
p1321
F54.8
sVconfidence
p1322
F0.407
sVspeaker
p1323
I0
sVfrom
p1324
F54.62
sVfinal
p1325
I00
sa(dp1326
Vto
p1327
F55.14
sVconfidence
p1328
F0.407
sVspeaker
p1329
I0
sVfrom
p1330
F54.8
sVfinal
p1331
I00
sa(dp1332
Vto
p1333
F55.65
sVconfidence
p1334
F0.407
sVspeaker
p1335
I0
sVfrom
p1336
F55.14
sVfinal
p1337
I00
sa(dp1338
Vto
p1339
F55.92
sVconfidence
p1340
F0.407
sVspeaker
p1341
I0
sVfrom
p1342
F55.65
sVfinal
p1343
I00
sa(dp1344
Vto
p1345
F56.38
sVconfidence
p1346
F0.434
sVspeaker
p1347
I0
sVfrom
p1348
F55.95
sVfinal
p1349
I00
sa(dp1350
Vto
p1351
F56.65
sVconfidence
p1352
F0.28
sVspeaker
p1353
I0
sVfrom
p1354
F56.52
sVfinal
p1355
I00
sa(dp1356
Vto
p1357
F56.94
sVconfidence
p1358
F0.28
sVspeaker
p1359
I0
sVfrom
p1360
F56.65
sVfinal
p1361
I00
sa(dp1362
Vto
p1363
F57.34
sVconfidence
p1364
F0.28
sVspeaker
p1365
I0
sVfrom
p1366
F56.94
sVfinal
p1367
I00
sa(dp1368
Vto
p1369
F57.59
sVconfidence
p1370
F0.28
sVspeaker
p1371
I0
sVfrom
p1372
F57.34
sVfinal
p1373
I00
sa(dp1374
Vto
p1375
F57.77
sVconfidence
p1376
F0.28
sVspeaker
p1377
I0
sVfrom
p1378
F57.59
sVfinal
p1379
I00
sa(dp1380
Vto
p1381
F57.96
sVconfidence
p1382
F0.28
sVspeaker
p1383
I0
sVfrom
p1384
F57.77
sVfinal
p1385
I00
sa(dp1386
Vto
p1387
F58.66
sVconfidence
p1388
F0.594
sVspeaker
p1389
I2
sVfrom
p1390
F58.44
sVfinal
p1391
I00
sa(dp1392
Vto
p1393
F59.15
sVconfidence
p1394
F0.57
sVspeaker
p1395
I2
sVfrom
p1396
F58.99
sVfinal
p1397
I00
sa(dp1398
Vto
p1399
F59.31
sVconfidence
p1400
F0.57
sVspeaker
p1401
I2
sVfrom
p1402
F59.15
sVfinal
p1403
I00
sa(dp1404
Vto
p1405
F59.69
sVconfidence
p1406
F0.595
sVspeaker
p1407
I2
sVfrom
p1408
F59.34
sVfinal
p1409
I00
sa(dp1410
Vto
p1411
F60.03
sVconfidence
p1412
F0.595
sVspeaker
p1413
I2
sVfrom
p1414
F59.69
sVfinal
p1415
I00
sa(dp1416
Vto
p1417
F60.22
sVconfidence
p1418
F0.595
sVspeaker
p1419
I2
sVfrom
p1420
F60.03
sVfinal
p1421
I00
sa(dp1422
Vto
p1423
F60.29
sVconfidence
p1424
F0.595
sVspeaker
p1425
I2
sVfrom
p1426
F60.22
sVfinal
p1427
I00
sa(dp1428
Vto
p1429
F60.9
sVconfidence
p1430
F0.595
sVspeaker
p1431
I2
sVfrom
p1432
F60.29
sVfinal
p1433
I00
sa(dp1434
Vto
p1435
F62.89
sVconfidence
p1436
F0.477
sVspeaker
p1437
I0
sVfrom
p1438
F62.79
sVfinal
p1439
I00
sa(dp1440
Vto
p1441
F63.02
sVconfidence
p1442
F0.477
sVspeaker
p1443
I0
sVfrom
p1444
F62.89
sVfinal
p1445
I00
sa(dp1446
Vto
p1447
F63.25
sVconfidence
p1448
F0.477
sVspeaker
p1449
I0
sVfrom
p1450
F63.02
sVfinal
p1451
I00
sa(dp1452
Vto
p1453
F63.64
sVconfidence
p1454
F0.477
sVspeaker
p1455
I0
sVfrom
p1456
F63.25
sVfinal
p1457
I00
sa(dp1458
Vto
p1459
F64.08
sVconfidence
p1460
F0.477
sVspeaker
p1461
I0
sVfrom
p1462
F63.64
sVfinal
p1463
I00
sa(dp1464
Vto
p1465
F64.43
sVconfidence
p1466
F0.477
sVspeaker
p1467
I0
sVfrom
p1468
F64.08
sVfinal
p1469
I00
sa(dp1470
Vto
p1471
F64.77
sVconfidence
p1472
F0.477
sVspeaker
p1473
I0
sVfrom
p1474
F64.43
sVfinal
p1475
I00
sa(dp1476
Vto
p1477
F65.15
sVconfidence
p1478
F0.477
sVspeaker
p1479
I0
sVfrom
p1480
F64.77
sVfinal
p1481
I01
sas.