(dp0
Vresults
p1
(lp2
(dp3
Valternatives
p4
(lp5
(dp6
Vtimestamps
p7
(lp8
(lp9
V%HESITATION
p10
aF0.93
aF1.32
aasVconfidence
p11
F0.761
sVtranscript
p12
V%HESITATION 
p13
sasVfinal
p14
I01
sa(dp15
Valternatives
p16
(lp17
(dp18
Vtimestamps
p19
(lp20
(lp21
Vsorry
p22
aF2.71
aF3.0
aa(lp23
Vpaid
p24
aF3.0
aF3.25
aa(lp25
VI
p26
aF3.25
aF3.32
aa(lp27
Vunderstand
p28
aF3.32
aF3.9
aa(lp29
Vyou're
p30
aF3.9
aF4.11
aa(lp31
Voriginally
p32
aF4.11
aF4.62
aa(lp33
Vgoing
p34
aF4.62
aF4.88
aa(lp35
Vto
p36
aF4.88
aF5.13
aa(lp37
Vrun
p38
aF5.26
aF5.58
aa(lp39
Vthe
p40
aF5.58
aF5.68
aa(lp41
Vfull
p42
aF5.68
aF5.88
aa(lp43
Vcalamitous
p44
aF5.88
aF6.38
aa(lp45
Valmost
p46
aF6.38
aF6.63
aa(lp47
Vthought
p48
aF6.63
aF6.86
aa(lp49
g26
aF6.86
aF6.93
aa(lp50
Vthought
p51
aF6.93
aF7.12
aa(lp52
Vyou
p53
aF7.12
aF7.23
aa(lp54
Vdecided
p55
aF7.23
aF7.65
aa(lp56
Vto
p57
aF7.65
aF7.76
aa(lp58
Vwalk
p59
aF7.76
aF8.08
aa(lp60
Vfifteen
p61
aF8.08
aF8.63
aa(lp62
Vtell
p63
aF8.8
aF9.07
aa(lp64
Vme
p65
aF9.07
aF9.28
aa(lp66
Vwhy
p67
aF9.28
aF9.54
aa(lp68
Vyou've
p69
aF9.54
aF9.73
aa(lp70
Vhad
p71
aF9.73
aF9.92
aa(lp72
Vto
p73
aF9.92
aF10.12
aa(lp74
Vcut
p75
aF10.15
aF10.39
aa(lp76
Vback
p77
aF10.39
aF10.61
aa(lp78
Vabout
p79
aF10.61
aF10.84
aa(lp80
V%HESITATION
p81
aF11.22
aF12.11
aa(lp82
Veffectively
p83
aF12.14
aF12.88
aa(lp84
V%HESITATION
p85
aF12.88
aF13.0
aa(lp86
Va
p87
aF13.0
aF13.19
aa(lp88
Vbreak
p89
aF13.19
aF13.48
aa(lp90
Vto
p91
aF13.48
aF13.72
aa(lp92
Vmy
p93
aF13.75
aF13.92
aa(lp94
Vwrists
p95
aF13.92
aF14.36
aa(lp96
Vwhile
p97
aF14.39
aF14.62
aa(lp98
Vdoing
p99
aF14.62
aF14.83
aa(lp100
Vsomething
p101
aF14.83
aF15.1
aa(lp102
Vsilly
p103
aF15.1
aF15.39
aa(lp104
Vand
p105
aF15.39
aF15.49
aa(lp106
Vwe're
p107
aF15.49
aF15.71
aa(lp108
Vwalking
p109
aF15.82
aF16.08
aa(lp110
Vdown
p111
aF16.08
aF16.26
aa(lp112
Vsome
p113
aF16.26
aF16.42
aa(lp114
Vsteps
p115
aF16.42
aF16.74
aa(lp116
Vand
p117
aF16.74
aF16.84
aa(lp118
Vmoving
p119
aF16.84
aF17.08
aa(lp120
g87
aF17.08
aF17.15
aa(lp121
Vsign
p122
aF17.15
aF17.6
aa(lp123
Vso
p124
aF17.9
aF18.18
aa(lp125
Vyou
p126
aF18.18
aF18.46
aa(lp127
Vnow
p128
aF18.51
aF18.84
aa(lp129
g26
aF18.84
aF18.96
aa(lp130
Vhave
p131
aF18.96
aF19.15
aa(lp132
Vto
p133
aF19.15
aF19.51
aa(lp134
Vtake
p135
aF19.8
aF20.02
aa(lp136
Vit
p137
aF20.02
aF20.09
aa(lp138
Veasy
p139
aF20.09
aF20.36
aasVconfidence
p140
F0.716
sVtranscript
p141
Vsorry paid I understand you're originally going to run the full calamitous almost thought I thought you decided to walk fifteen tell me why you've had to cut back about %HESITATION effectively %HESITATION a break to my wrists while doing something silly and we're walking down some steps and moving a sign so you now I have to take it easy 
p142
sasVfinal
p143
I01
sa(dp144
Valternatives
p145
(lp146
(dp147
Vtimestamps
p148
(lp149
(lp150
Vand
p151
aF21.35
aF21.72
aa(lp152
Vyou're
p153
aF21.72
aF21.9
aa(lp154
Vgoing
p155
aF21.9
aF22.22
aa(lp156
Vto
p157
aF22.22
aF22.8
aa(lp158
Vdo
p159
aF22.83
aF22.93
aa(lp160
Vsome
p161
aF22.93
aF23.08
aa(lp162
Vtraining
p163
aF23.08
aF23.55
aa(lp164
Vto
p165
aF23.55
aF23.91
aa(lp166
Vget
p167
aF23.95
aF24.21
aa(lp168
Valong
p169
aF24.21
aF24.39
aa(lp170
Vwith
p171
aF24.39
aF24.5
aa(lp172
Vit
p173
aF24.5
aF24.66
aa(lp174
Vjust
p175
aF25.09
aF25.28
aa(lp176
Vsounds
p177
aF25.28
aF25.67
aa(lp178
Vdestroying
p179
aF25.89
aF26.57
aa(lp180
Vevery
p181
aF26.57
aF26.81
aa(lp182
Vnot
p183
aF26.81
aF27.06
aa(lp184
Vworking
p185
aF27.09
aF27.57
aa(lp186
V%HESITATION
p187
aF27.57
aF27.87
aa(lp188
Vup
p189
aF27.9
aF28.03
aa(lp190
Vto
p191
aF28.03
aF28.17
aa(lp192
Vabout
p193
aF28.17
aF28.48
aa(lp194
Vsix
p195
aF28.51
aF28.81
aa(lp196
Vor
p197
aF28.81
aF28.87
aa(lp198
Vseven
p199
aF28.87
aF29.08
aa(lp200
Vcases
p201
aF29.08
aF29.36
aa(lp202
Vof
p203
aF29.36
aF29.46
aa(lp204
Vthe
p205
aF29.46
aF29.53
aa(lp206
Vmoment
p207
aF29.53
aF29.85
aa(lp208
Vand
p209
aF29.85
aF30.1
aa(lp210
Vstudent
p211
aF30.16
aF30.6
aa(lp212
Vaiming
p213
aF30.65
aF30.89
aa(lp214
Vfor
p215
aF30.89
aF30.99
aa(lp216
Vthe
p217
aF30.99
aF31.13
aa(lp218
Vteam
p219
aF31.16
aF31.49
aa(lp220
Vbefore
p221
aF32.39
aF32.78
aa(lp222
Vyou
p223
aF32.78
aF33.02
aa(lp224
Vhad
p225
aF33.02
aF33.33
aa(lp226
Vthe
p227
aF33.36
aF33.64
aa(lp228
V%HESITATION
p229
aF33.64
aF33.86
aa(lp230
Vwrist
p231
aF33.86
aF34.28
aa(lp232
Vincidents
p233
aF34.31
aF34.83
aa(lp234
Vyou
p235
aF34.83
aF34.98
aa(lp236
Valso
p237
aF34.98
aF35.25
aa(lp238
Vhad
p239
aF35.25
aF35.48
aa(lp240
Vsome
p241
aF35.48
aF35.64
aa(lp242
Vprevious
p243
aF35.64
aF36.11
aa(lp244
Vhealth
p245
aF36.11
aF36.31
aa(lp246
Vcomplications
p247
aF36.31
aF37.11
aa(lp248
Vthat
p249
aF37.11
aF37.26
aa(lp250
Vthis
p251
aF37.26
aF37.43
aa(lp252
Vwas
p253
aF37.43
aF37.56
aa(lp254
Vgoing
p255
aF37.56
aF37.7
aa(lp256
Vto
p257
aF37.7
aF37.77
aa(lp258
Vkind
p259
aF37.77
aF37.99
aa(lp260
Vof
p261
aF37.99
aF38.25
aa(lp262
Vthose
p263
aF38.35
aF38.56
aa(lp264
Vjust
p265
aF38.56
aF38.75
aa(lp266
Vit
p267
aF39.41
aF39.57
aa(lp268
Vwas
p269
aF39.57
aF39.97
aa(lp270
V%HESITATION
p271
aF39.97
aF40.39
aa(lp272
Vhit
p273
aF40.39
aF40.61
aa(lp274
Vhad
p275
aF40.61
aF40.84
aa(lp276
Vissues
p277
aF40.84
aF41.12
aa(lp278
Vfor
p279
aF41.12
aF41.23
aa(lp280
Vthe
p281
aF41.23
aF41.32
aa(lp282
Vlast
p283
aF41.32
aF41.68
aa(lp284
Vsix
p285
aF41.71
aF41.94
aa(lp286
Vseven
p287
aF41.94
aF42.24
aa(lp288
Vyears
p289
aF42.24
aF42.59
aa(lp290
Vand
p291
aF42.59
aF42.97
aa(lp292
g26
aF42.97
aF43.03
aa(lp293
Vlive
p294
aF43.03
aF43.19
aa(lp295
Vin
p296
aF43.19
aF43.27
aa(lp297
VSpain
p298
aF43.27
aF43.59
aa(lp299
Vsorry
p300
aF43.59
aF44.0
aa(lp301
Vthis
p302
aF44.28
aF44.46
aa(lp303
Vwas
p304
aF44.46
aF44.57
aa(lp305
g87
aF44.57
aF44.64
aa(lp306
Vgood
p307
aF44.64
aF44.77
aa(lp308
Vopportunity
p309
aF44.77
aF45.23
aa(lp310
Vjust
p311
aF45.23
aF45.46
aa(lp312
Vto
p313
aF45.46
aF45.53
aa(lp314
Vget
p315
aF45.53
aF45.7
aa(lp316
Vin
p317
aF45.7
aF45.79
aa(lp318
Vand
p319
aF45.79
aF46.01
aa(lp320
Vget
p321
aF46.09
aF46.27
aa(lp322
Vfit
p323
aF46.27
aF46.4
aa(lp324
Vagain
p325
aF46.4
aF46.66
aasVconfidence
p326
F0.721
sVtranscript
p327
Vand you're going to do some training to get along with it just sounds destroying every not working %HESITATION up to about six or seven cases of the moment and student aiming for the team before you had the %HESITATION wrist incidents you also had some previous health complications that this was going to kind of those just it was %HESITATION hit had issues for the last six seven years and I live in Spain sorry this was a good opportunity just to get in and get fit again 
p328
sasVfinal
p329
I01
sa(dp330
Valternatives
p331
(lp332
(dp333
Vtimestamps
p334
(lp335
(lp336
Vand
p337
aF47.38
aF47.58
aa(lp338
Vso
p339
aF47.58
aF47.72
aa(lp340
Vin
p341
aF47.72
aF47.81
aa(lp342
Vterms
p343
aF47.81
aF48.19
aa(lp344
Vof
p345
aF48.19
aF48.41
aa(lp346
Vthe
p347
aF48.41
aF48.81
aa(lp348
Vthe
p349
aF48.81
aF48.91
aa(lp350
Vcompany
p351
aF48.91
aF49.51
aa(lp352
Vprofile
p353
aF49.51
aF50.04
aa(lp354
Vwith
p355
aF50.04
aF50.17
aa(lp356
Vus
p357
aF50.17
aF50.31
aa(lp358
Von
p359
aF50.31
aF50.43
aa(lp360
Vthe
p361
aF50.43
aF50.51
aa(lp362
Vside
p363
aF50.51
aF50.76
aa(lp364
Vthat
p365
aF50.76
aF51.03
aa(lp366
Vyou're
p367
aF51.03
aF51.19
aa(lp368
Vgoing
p369
aF51.19
aF51.41
aa(lp370
Vthrough
p371
aF51.41
aF51.68
aa(lp372
Vthe
p373
aF51.68
aF51.96
aa(lp374
Ventertainment
p375
aF51.99
aF52.76
aa(lp376
Vsome
p377
aF52.76
aF52.97
aa(lp378
Vthought
p379
aF52.97
aF53.2
aa(lp380
Vyes
p381
aF53.43
aF53.69
aa(lp382
Vwe
p383
aF53.69
aF53.89
aa(lp384
Vwere
p385
aF53.95
aF54.11
aa(lp386
Vhoping
p387
aF54.11
aF54.38
aa(lp388
Vto
p389
aF54.38
aF54.47
aa(lp390
Vget
p391
aF54.47
aF54.57
aa(lp392
g87
aF54.57
aF54.6
aa(lp393
Vlease
p394
aF54.6
aF54.79
aa(lp395
Vfifty
p396
aF54.79
aF55.14
aa(lp397
Vof
p398
aF55.14
aF55.23
aa(lp399
Vthe
p400
aF55.23
aF55.32
aa(lp401
Vteam
p402
aF55.32
aF55.73
aa(lp403
V%HESITATION
p404
aF55.73
aF55.92
aa(lp405
Vsupporting
p406
aF55.92
aF56.32
aa(lp407
Vone
p408
aF56.32
aF56.47
aa(lp409
Vof
p410
aF56.47
aF56.54
aa(lp411
VMcDonald
p412
aF56.54
aF56.91
aa(lp413
Vhouse
p414
aF56.91
aF57.33
aa(lp415
Vand
p416
aF57.36
aF57.66
aa(lp417
Vreally
p418
aF57.66
aF57.96
aa(lp419
Vgood
p420
aF58.09
aF58.33
aa(lp421
Vstuff
p422
aF58.67
aF59.07
aa(lp423
Vbuilding
p424
aF59.1
aF59.36
aa(lp425
Vthing
p426
aF59.36
aF59.72
aa(lp427
Vto
p428
aF59.83
aF59.96
aa(lp429
Vget
p430
aF59.96
aF60.1
aa(lp431
Vback
p432
aF60.1
aF60.25
aa(lp433
Vinto
p434
aF60.25
aF60.43
aa(lp435
Vcross
p436
aF60.43
aF60.66
aa(lp437
Vstreet
p438
aF60.66
aF60.89
aa(lp439
Vside
p440
aF60.89
aF61.11
aa(lp441
Vunderstand
p442
aF61.75
aF62.2
aa(lp443
Vyou're
p444
aF62.2
aF62.31
aa(lp445
Vquite
p446
aF62.31
aF62.59
aa(lp447
Vfond
p448
aF62.59
aF62.83
aa(lp449
Vof
p450
aF62.83
aF62.91
aa(lp451
Vthe
p452
aF62.91
aF63.05
aa(lp453
Veast
p454
aF63.05
aF63.3
aa(lp455
Vand
p456
aF63.3
aF63.45
aa(lp457
Vsouth
p458
aF63.45
aF63.63
aa(lp459
Von
p460
aF63.97
aF64.06
aa(lp461
Vthis
p462
aF64.06
aF64.24
aa(lp463
Vroad
p464
aF64.24
aF64.45
aa(lp465
Vkind
p466
aF64.45
aF64.65
aa(lp467
Vof
p468
aF64.65
aF64.74
aa(lp469
Vsnake's
p470
aF64.74
aF65.14
aa(lp471
Vthroat
p472
aF65.14
aF65.52
aa(lp473
Vit
p474
aF65.81
aF66.01
aa(lp475
Vdoes
p476
aF66.01
aF66.31
aa(lp477
Vit
p478
aF66.31
aF66.45
aa(lp479
Vsits
p480
aF66.45
aF66.76
aa(lp481
Vwhere
p482
aF66.76
aF66.92
aa(lp483
g26
aF66.92
aF66.98
aa(lp484
Vlive
p485
aF66.98
aF67.31
aa(lp486
V%HESITATION
p487
aF67.31
aF67.53
aa(lp488
Vright
p489
aF67.53
aF67.79
aa(lp490
Von
p491
aF67.79
aF67.88
aa(lp492
Vthe
p493
aF67.88
aF67.97
aa(lp494
Vedge
p495
aF67.97
aF68.1
aa(lp496
Vof
p497
aF68.1
aF68.18
aa(lp498
Vthe
p499
aF68.18
aF68.27
aa(lp500
Vredesign
p501
aF68.27
aF68.72
aa(lp502
Vand
p503
aF68.72
aF68.84
aa(lp504
Vdealing
p505
aF68.84
aF69.09
aa(lp506
Vten
p507
aF69.09
aF69.3
aa(lp508
Vsorry
p509
aF69.3
aF69.77
aa(lp510
Veffectively
p511
aF70.01
aF70.53
aa(lp512
Vit's
p513
aF70.53
aF70.69
aa(lp514
Vpart
p515
aF70.69
aF70.93
aa(lp516
Vof
p517
aF70.93
aF71.12
aa(lp518
Vpart
p519
aF71.23
aF71.42
aa(lp520
Vof
p521
aF71.42
aF71.49
aa(lp522
Vmine
p523
aF71.49
aF71.66
aa(lp524
g26
aF71.66
aF71.78
aa(lp525
Vwouldn't
p526
aF71.85
aF72.06
aa(lp527
Vwant
p528
aF72.06
aF72.18
aa(lp529
Vto
p530
aF72.18
aF72.24
aa(lp531
Vget
p532
aF72.24
aF72.37
aa(lp533
Vback
p534
aF72.37
aF72.55
aa(lp535
Vinto
p536
aF72.55
aF72.76
aa(lp537
Vthe
p538
aF72.76
aF72.88
aa(lp539
Vwell
p540
aF73.35
aF73.47
aa(lp541
Vusually
p542
aF73.47
aF73.86
aa(lp543
g26
aF73.86
aF74.02
aa(lp544
Vever
p545
aF74.35
aF74.59
aa(lp546
Von
p547
aF74.59
aF74.75
aa(lp548
Vwho's
p549
aF74.75
aF74.93
aa(lp550
Vdoing
p551
aF74.93
aF75.19
aa(lp552
Vit
p553
aF75.19
aF75.32
aa(lp554
Vto
p555
aF75.32
aF75.43
aa(lp556
Vnominate
p557
aF75.43
aF75.92
aa(lp558
Vsomebody
p559
aF75.92
aF76.26
aa(lp560
Vthat
p561
aF76.26
aF76.45
aa(lp562
Vlike
p563
aF76.45
aF76.66
aa(lp564
Vto
p565
aF76.66
aF76.76
aa(lp566
Vsay
p567
aF76.76
aF76.97
aa(lp568
Vtype
p569
aF76.97
aF77.26
aa(lp570
Vpot
p571
aF77.26
aF77.67
aa(lp572
Vcan
p573
aF77.92
aF78.15
aa(lp574
Vbe
p575
aF78.15
aF78.47
aa(lp576
Vsomeone
p577
aF78.47
aF78.85
aa(lp578
Vyou
p579
aF78.85
aF78.96
aa(lp580
Vknow
p581
aF78.96
aF79.18
aa(lp582
Vor
p583
aF79.18
aF79.33
aa(lp584
Vor
p585
aF79.33
aF79.58
aa(lp586
Vsome
p587
aF79.58
aF79.85
aa(lp588
Von
p589
aF79.85
aF80.08
aa(lp590
Vthe
p591
aF80.08
aF80.18
aa(lp592
Vcelebrity
p593
aF80.18
aF80.76
aa(lp594
Vis
p595
aF80.76
aF80.92
aa(lp596
Vthere
p597
aF80.92
aF81.01
aa(lp598
Vanyone
p599
aF81.01
aF81.29
aa(lp600
Vyou'd
p601
aF81.29
aF81.42
aa(lp602
Vlike
p603
aF81.42
aF81.6
aa(lp604
Vto
p605
aF81.6
aF81.71
aa(lp606
Vput
p607
aF81.71
aF81.96
aa(lp608
Vforward
p609
aF81.96
aF82.36
aa(lp610
Vmy
p611
aF83.27
aF83.45
aa(lp612
Vboss
p613
aF83.45
aF83.79
aa(lp614
Vthe
p615
aF83.79
aF83.97
aa(lp616
Vsame
p617
aF83.97
aF84.23
aa(lp618
Vin
p619
aF84.23
aF84.35
aasVconfidence
p620
F0.693
sVtranscript
p621
Vand so in terms of the the company profile with us on the side that you're going through the entertainment some thought yes we were hoping to get a lease fifty of the team %HESITATION supporting one of McDonald house and really good stuff building thing to get back into cross street side understand you're quite fond of the east and south on this road kind of snake's throat it does it sits where I live %HESITATION right on the edge of the redesign and dealing ten sorry effectively it's part of part of mine I wouldn't want to get back into the well usually I ever on who's doing it to nominate somebody that like to say type pot can be someone you know or or some on the celebrity is there anyone you'd like to put forward my boss the same in 
p622
sasVfinal
p623
I01
sasVresult_index
p624
I0
sVspeaker_labels
p625
(lp626
(dp627
Vto
p628
F1.32
sVconfidence
p629
F0.5
sVspeaker
p630
I0
sVfrom
p631
F0.93
sVfinal
p632
I00
sa(dp633
Vto
p634
F3.0
sVconfidence
p635
F0.631
sVspeaker
p636
I1
sVfrom
p637
F2.71
sVfinal
p638
I00
sa(dp639
Vto
p640
F3.25
sVconfidence
p641
F0.631
sVspeaker
p642
I1
sVfrom
p643
F3.0
sVfinal
p644
I00
sa(dp645
Vto
p646
F3.32
sVconfidence
p647
F0.631
sVspeaker
p648
I1
sVfrom
p649
F3.25
sVfinal
p650
I00
sa(dp651
Vto
p652
F3.9
sVconfidence
p653
F0.631
sVspeaker
p654
I1
sVfrom
p655
F3.32
sVfinal
p656
I00
sa(dp657
Vto
p658
F4.11
sVconfidence
p659
F0.631
sVspeaker
p660
I1
sVfrom
p661
F3.9
sVfinal
p662
I00
sa(dp663
Vto
p664
F4.62
sVconfidence
p665
F0.631
sVspeaker
p666
I1
sVfrom
p667
F4.11
sVfinal
p668
I00
sa(dp669
Vto
p670
F4.88
sVconfidence
p671
F0.631
sVspeaker
p672
I1
sVfrom
p673
F4.62
sVfinal
p674
I00
sa(dp675
Vto
p676
F5.13
sVconfidence
p677
F0.631
sVspeaker
p678
I1
sVfrom
p679
F4.88
sVfinal
p680
I00
sa(dp681
Vto
p682
F5.58
sVconfidence
p683
F0.618
sVspeaker
p684
I1
sVfrom
p685
F5.26
sVfinal
p686
I00
sa(dp687
Vto
p688
F5.68
sVconfidence
p689
F0.618
sVspeaker
p690
I1
sVfrom
p691
F5.58
sVfinal
p692
I00
sa(dp693
Vto
p694
F5.88
sVconfidence
p695
F0.618
sVspeaker
p696
I1
sVfrom
p697
F5.68
sVfinal
p698
I00
sa(dp699
Vto
p700
F6.38
sVconfidence
p701
F0.618
sVspeaker
p702
I1
sVfrom
p703
F5.88
sVfinal
p704
I00
sa(dp705
Vto
p706
F6.63
sVconfidence
p707
F0.618
sVspeaker
p708
I1
sVfrom
p709
F6.38
sVfinal
p710
I00
sa(dp711
Vto
p712
F6.86
sVconfidence
p713
F0.618
sVspeaker
p714
I1
sVfrom
p715
F6.63
sVfinal
p716
I00
sa(dp717
Vto
p718
F6.93
sVconfidence
p719
F0.618
sVspeaker
p720
I1
sVfrom
p721
F6.86
sVfinal
p722
I00
sa(dp723
Vto
p724
F7.12
sVconfidence
p725
F0.618
sVspeaker
p726
I1
sVfrom
p727
F6.93
sVfinal
p728
I00
sa(dp729
Vto
p730
F7.23
sVconfidence
p731
F0.618
sVspeaker
p732
I1
sVfrom
p733
F7.12
sVfinal
p734
I00
sa(dp735
Vto
p736
F7.65
sVconfidence
p737
F0.618
sVspeaker
p738
I1
sVfrom
p739
F7.23
sVfinal
p740
I00
sa(dp741
Vto
p742
F7.76
sVconfidence
p743
F0.618
sVspeaker
p744
I1
sVfrom
p745
F7.65
sVfinal
p746
I00
sa(dp747
Vto
p748
F8.08
sVconfidence
p749
F0.618
sVspeaker
p750
I1
sVfrom
p751
F7.76
sVfinal
p752
I00
sa(dp753
Vto
p754
F8.63
sVconfidence
p755
F0.618
sVspeaker
p756
I1
sVfrom
p757
F8.08
sVfinal
p758
I00
sa(dp759
Vto
p760
F9.07
sVconfidence
p761
F0.647
sVspeaker
p762
I1
sVfrom
p763
F8.8
sVfinal
p764
I00
sa(dp765
Vto
p766
F9.28
sVconfidence
p767
F0.647
sVspeaker
p768
I1
sVfrom
p769
F9.07
sVfinal
p770
I00
sa(dp771
Vto
p772
F9.54
sVconfidence
p773
F0.647
sVspeaker
p774
I1
sVfrom
p775
F9.28
sVfinal
p776
I00
sa(dp777
Vto
p778
F9.73
sVconfidence
p779
F0.647
sVspeaker
p780
I1
sVfrom
p781
F9.54
sVfinal
p782
I00
sa(dp783
Vto
p784
F9.92
sVconfidence
p785
F0.647
sVspeaker
p786
I1
sVfrom
p787
F9.73
sVfinal
p788
I00
sa(dp789
Vto
p790
F10.12
sVconfidence
p791
F0.647
sVspeaker
p792
I1
sVfrom
p793
F9.92
sVfinal
p794
I00
sa(dp795
Vto
p796
F10.39
sVconfidence
p797
F0.554
sVspeaker
p798
I1
sVfrom
p799
F10.15
sVfinal
p800
I00
sa(dp801
Vto
p802
F10.61
sVconfidence
p803
F0.554
sVspeaker
p804
I1
sVfrom
p805
F10.39
sVfinal
p806
I00
sa(dp807
Vto
p808
F10.84
sVconfidence
p809
F0.554
sVspeaker
p810
I1
sVfrom
p811
F10.61
sVfinal
p812
I00
sa(dp813
Vto
p814
F12.11
sVconfidence
p815
F0.455
sVspeaker
p816
I0
sVfrom
p817
F11.22
sVfinal
p818
I00
sa(dp819
Vto
p820
F12.88
sVconfidence
p821
F0.532
sVspeaker
p822
I0
sVfrom
p823
F12.14
sVfinal
p824
I00
sa(dp825
Vto
p826
F13.0
sVconfidence
p827
F0.532
sVspeaker
p828
I0
sVfrom
p829
F12.88
sVfinal
p830
I00
sa(dp831
Vto
p832
F13.19
sVconfidence
p833
F0.532
sVspeaker
p834
I0
sVfrom
p835
F13.0
sVfinal
p836
I00
sa(dp837
Vto
p838
F13.48
sVconfidence
p839
F0.532
sVspeaker
p840
I0
sVfrom
p841
F13.19
sVfinal
p842
I00
sa(dp843
Vto
p844
F13.72
sVconfidence
p845
F0.532
sVspeaker
p846
I0
sVfrom
p847
F13.48
sVfinal
p848
I00
sa(dp849
Vto
p850
F13.92
sVconfidence
p851
F0.484
sVspeaker
p852
I0
sVfrom
p853
F13.75
sVfinal
p854
I00
sa(dp855
Vto
p856
F14.36
sVconfidence
p857
F0.484
sVspeaker
p858
I0
sVfrom
p859
F13.92
sVfinal
p860
I00
sa(dp861
Vto
p862
F14.62
sVconfidence
p863
F0.528
sVspeaker
p864
I0
sVfrom
p865
F14.39
sVfinal
p866
I00
sa(dp867
Vto
p868
F14.83
sVconfidence
p869
F0.528
sVspeaker
p870
I0
sVfrom
p871
F14.62
sVfinal
p872
I00
sa(dp873
Vto
p874
F15.1
sVconfidence
p875
F0.528
sVspeaker
p876
I0
sVfrom
p877
F14.83
sVfinal
p878
I00
sa(dp879
Vto
p880
F15.39
sVconfidence
p881
F0.528
sVspeaker
p882
I0
sVfrom
p883
F15.1
sVfinal
p884
I00
sa(dp885
Vto
p886
F15.49
sVconfidence
p887
F0.528
sVspeaker
p888
I0
sVfrom
p889
F15.39
sVfinal
p890
I00
sa(dp891
Vto
p892
F15.71
sVconfidence
p893
F0.528
sVspeaker
p894
I0
sVfrom
p895
F15.49
sVfinal
p896
I00
sa(dp897
Vto
p898
F16.08
sVconfidence
p899
F0.519
sVspeaker
p900
I0
sVfrom
p901
F15.82
sVfinal
p902
I00
sa(dp903
Vto
p904
F16.26
sVconfidence
p905
F0.519
sVspeaker
p906
I0
sVfrom
p907
F16.08
sVfinal
p908
I00
sa(dp909
Vto
p910
F16.42
sVconfidence
p911
F0.519
sVspeaker
p912
I0
sVfrom
p913
F16.26
sVfinal
p914
I00
sa(dp915
Vto
p916
F16.74
sVconfidence
p917
F0.519
sVspeaker
p918
I0
sVfrom
p919
F16.42
sVfinal
p920
I00
sa(dp921
Vto
p922
F16.84
sVconfidence
p923
F0.519
sVspeaker
p924
I0
sVfrom
p925
F16.74
sVfinal
p926
I00
sa(dp927
Vto
p928
F17.08
sVconfidence
p929
F0.519
sVspeaker
p930
I0
sVfrom
p931
F16.84
sVfinal
p932
I00
sa(dp933
Vto
p934
F17.15
sVconfidence
p935
F0.519
sVspeaker
p936
I0
sVfrom
p937
F17.08
sVfinal
p938
I00
sa(dp939
Vto
p940
F17.6
sVconfidence
p941
F0.519
sVspeaker
p942
I0
sVfrom
p943
F17.15
sVfinal
p944
I00
sa(dp945
Vto
p946
F18.18
sVconfidence
p947
F0.557
sVspeaker
p948
I0
sVfrom
p949
F17.9
sVfinal
p950
I00
sa(dp951
Vto
p952
F18.46
sVconfidence
p953
F0.557
sVspeaker
p954
I0
sVfrom
p955
F18.18
sVfinal
p956
I00
sa(dp957
Vto
p958
F18.84
sVconfidence
p959
F0.56
sVspeaker
p960
I0
sVfrom
p961
F18.51
sVfinal
p962
I00
sa(dp963
Vto
p964
F18.96
sVconfidence
p965
F0.56
sVspeaker
p966
I0
sVfrom
p967
F18.84
sVfinal
p968
I00
sa(dp969
Vto
p970
F19.15
sVconfidence
p971
F0.56
sVspeaker
p972
I0
sVfrom
p973
F18.96
sVfinal
p974
I00
sa(dp975
Vto
p976
F19.51
sVconfidence
p977
F0.56
sVspeaker
p978
I0
sVfrom
p979
F19.15
sVfinal
p980
I00
sa(dp981
Vto
p982
F20.02
sVconfidence
p983
F0.512
sVspeaker
p984
I0
sVfrom
p985
F19.8
sVfinal
p986
I00
sa(dp987
Vto
p988
F20.09
sVconfidence
p989
F0.512
sVspeaker
p990
I0
sVfrom
p991
F20.02
sVfinal
p992
I00
sa(dp993
Vto
p994
F20.36
sVconfidence
p995
F0.512
sVspeaker
p996
I0
sVfrom
p997
F20.09
sVfinal
p998
I00
sa(dp999
Vto
p1000
F21.72
sVconfidence
p1001
F0.574
sVspeaker
p1002
I1
sVfrom
p1003
F21.35
sVfinal
p1004
I00
sa(dp1005
Vto
p1006
F21.9
sVconfidence
p1007
F0.574
sVspeaker
p1008
I1
sVfrom
p1009
F21.72
sVfinal
p1010
I00
sa(dp1011
Vto
p1012
F22.22
sVconfidence
p1013
F0.574
sVspeaker
p1014
I1
sVfrom
p1015
F21.9
sVfinal
p1016
I00
sa(dp1017
Vto
p1018
F22.8
sVconfidence
p1019
F0.574
sVspeaker
p1020
I1
sVfrom
p1021
F22.22
sVfinal
p1022
I00
sa(dp1023
Vto
p1024
F22.93
sVconfidence
p1025
F0.653
sVspeaker
p1026
I1
sVfrom
p1027
F22.83
sVfinal
p1028
I00
sa(dp1029
Vto
p1030
F23.08
sVconfidence
p1031
F0.653
sVspeaker
p1032
I1
sVfrom
p1033
F22.93
sVfinal
p1034
I00
sa(dp1035
Vto
p1036
F23.55
sVconfidence
p1037
F0.653
sVspeaker
p1038
I1
sVfrom
p1039
F23.08
sVfinal
p1040
I00
sa(dp1041
Vto
p1042
F23.91
sVconfidence
p1043
F0.653
sVspeaker
p1044
I1
sVfrom
p1045
F23.55
sVfinal
p1046
I00
sa(dp1047
Vto
p1048
F24.21
sVconfidence
p1049
F0.632
sVspeaker
p1050
I1
sVfrom
p1051
F23.95
sVfinal
p1052
I00
sa(dp1053
Vto
p1054
F24.39
sVconfidence
p1055
F0.632
sVspeaker
p1056
I1
sVfrom
p1057
F24.21
sVfinal
p1058
I00
sa(dp1059
Vto
p1060
F24.5
sVconfidence
p1061
F0.632
sVspeaker
p1062
I1
sVfrom
p1063
F24.39
sVfinal
p1064
I00
sa(dp1065
Vto
p1066
F24.66
sVconfidence
p1067
F0.632
sVspeaker
p1068
I1
sVfrom
p1069
F24.5
sVfinal
p1070
I00
sa(dp1071
Vto
p1072
F25.28
sVconfidence
p1073
F0.511
sVspeaker
p1074
I1
sVfrom
p1075
F25.09
sVfinal
p1076
I00
sa(dp1077
Vto
p1078
F25.67
sVconfidence
p1079
F0.511
sVspeaker
p1080
I1
sVfrom
p1081
F25.28
sVfinal
p1082
I00
sa(dp1083
Vto
p1084
F26.57
sVconfidence
p1085
F0.567
sVspeaker
p1086
I0
sVfrom
p1087
F25.89
sVfinal
p1088
I00
sa(dp1089
Vto
p1090
F26.81
sVconfidence
p1091
F0.567
sVspeaker
p1092
I0
sVfrom
p1093
F26.57
sVfinal
p1094
I00
sa(dp1095
Vto
p1096
F27.06
sVconfidence
p1097
F0.567
sVspeaker
p1098
I0
sVfrom
p1099
F26.81
sVfinal
p1100
I00
sa(dp1101
Vto
p1102
F27.57
sVconfidence
p1103
F0.533
sVspeaker
p1104
I0
sVfrom
p1105
F27.09
sVfinal
p1106
I00
sa(dp1107
Vto
p1108
F27.87
sVconfidence
p1109
F0.533
sVspeaker
p1110
I0
sVfrom
p1111
F27.57
sVfinal
p1112
I00
sa(dp1113
Vto
p1114
F28.03
sVconfidence
p1115
F0.569
sVspeaker
p1116
I0
sVfrom
p1117
F27.9
sVfinal
p1118
I00
sa(dp1119
Vto
p1120
F28.17
sVconfidence
p1121
F0.569
sVspeaker
p1122
I0
sVfrom
p1123
F28.03
sVfinal
p1124
I00
sa(dp1125
Vto
p1126
F28.48
sVconfidence
p1127
F0.569
sVspeaker
p1128
I0
sVfrom
p1129
F28.17
sVfinal
p1130
I00
sa(dp1131
Vto
p1132
F28.81
sVconfidence
p1133
F0.628
sVspeaker
p1134
I0
sVfrom
p1135
F28.51
sVfinal
p1136
I00
sa(dp1137
Vto
p1138
F28.87
sVconfidence
p1139
F0.628
sVspeaker
p1140
I0
sVfrom
p1141
F28.81
sVfinal
p1142
I00
sa(dp1143
Vto
p1144
F29.08
sVconfidence
p1145
F0.628
sVspeaker
p1146
I0
sVfrom
p1147
F28.87
sVfinal
p1148
I00
sa(dp1149
Vto
p1150
F29.36
sVconfidence
p1151
F0.628
sVspeaker
p1152
I0
sVfrom
p1153
F29.08
sVfinal
p1154
I00
sa(dp1155
Vto
p1156
F29.46
sVconfidence
p1157
F0.628
sVspeaker
p1158
I0
sVfrom
p1159
F29.36
sVfinal
p1160
I00
sa(dp1161
Vto
p1162
F29.53
sVconfidence
p1163
F0.628
sVspeaker
p1164
I0
sVfrom
p1165
F29.46
sVfinal
p1166
I00
sa(dp1167
Vto
p1168
F29.85
sVconfidence
p1169
F0.628
sVspeaker
p1170
I0
sVfrom
p1171
F29.53
sVfinal
p1172
I00
sa(dp1173
Vto
p1174
F30.1
sVconfidence
p1175
F0.628
sVspeaker
p1176
I0
sVfrom
p1177
F29.85
sVfinal
p1178
I00
sa(dp1179
Vto
p1180
F30.6
sVconfidence
p1181
F0.603
sVspeaker
p1182
I0
sVfrom
p1183
F30.16
sVfinal
p1184
I00
sa(dp1185
Vto
p1186
F30.89
sVconfidence
p1187
F0.586
sVspeaker
p1188
I0
sVfrom
p1189
F30.65
sVfinal
p1190
I00
sa(dp1191
Vto
p1192
F30.99
sVconfidence
p1193
F0.586
sVspeaker
p1194
I0
sVfrom
p1195
F30.89
sVfinal
p1196
I00
sa(dp1197
Vto
p1198
F31.13
sVconfidence
p1199
F0.586
sVspeaker
p1200
I0
sVfrom
p1201
F30.99
sVfinal
p1202
I00
sa(dp1203
Vto
p1204
F31.49
sVconfidence
p1205
F0.383
sVspeaker
p1206
I0
sVfrom
p1207
F31.16
sVfinal
p1208
I00
sa(dp1209
Vto
p1210
F32.78
sVconfidence
p1211
F0.584
sVspeaker
p1212
I1
sVfrom
p1213
F32.39
sVfinal
p1214
I00
sa(dp1215
Vto
p1216
F33.02
sVconfidence
p1217
F0.584
sVspeaker
p1218
I1
sVfrom
p1219
F32.78
sVfinal
p1220
I00
sa(dp1221
Vto
p1222
F33.33
sVconfidence
p1223
F0.584
sVspeaker
p1224
I1
sVfrom
p1225
F33.02
sVfinal
p1226
I00
sa(dp1227
Vto
p1228
F33.64
sVconfidence
p1229
F0.609
sVspeaker
p1230
I1
sVfrom
p1231
F33.36
sVfinal
p1232
I00
sa(dp1233
Vto
p1234
F33.86
sVconfidence
p1235
F0.609
sVspeaker
p1236
I1
sVfrom
p1237
F33.64
sVfinal
p1238
I00
sa(dp1239
Vto
p1240
F34.28
sVconfidence
p1241
F0.609
sVspeaker
p1242
I1
sVfrom
p1243
F33.86
sVfinal
p1244
I00
sa(dp1245
Vto
p1246
F34.83
sVconfidence
p1247
F0.653
sVspeaker
p1248
I1
sVfrom
p1249
F34.31
sVfinal
p1250
I00
sa(dp1251
Vto
p1252
F34.98
sVconfidence
p1253
F0.653
sVspeaker
p1254
I1
sVfrom
p1255
F34.83
sVfinal
p1256
I00
sa(dp1257
Vto
p1258
F35.25
sVconfidence
p1259
F0.653
sVspeaker
p1260
I1
sVfrom
p1261
F34.98
sVfinal
p1262
I00
sa(dp1263
Vto
p1264
F35.48
sVconfidence
p1265
F0.653
sVspeaker
p1266
I1
sVfrom
p1267
F35.25
sVfinal
p1268
I00
sa(dp1269
Vto
p1270
F35.64
sVconfidence
p1271
F0.653
sVspeaker
p1272
I1
sVfrom
p1273
F35.48
sVfinal
p1274
I00
sa(dp1275
Vto
p1276
F36.11
sVconfidence
p1277
F0.653
sVspeaker
p1278
I1
sVfrom
p1279
F35.64
sVfinal
p1280
I00
sa(dp1281
Vto
p1282
F36.31
sVconfidence
p1283
F0.653
sVspeaker
p1284
I1
sVfrom
p1285
F36.11
sVfinal
p1286
I00
sa(dp1287
Vto
p1288
F37.11
sVconfidence
p1289
F0.653
sVspeaker
p1290
I1
sVfrom
p1291
F36.31
sVfinal
p1292
I00
sa(dp1293
Vto
p1294
F37.26
sVconfidence
p1295
F0.653
sVspeaker
p1296
I1
sVfrom
p1297
F37.11
sVfinal
p1298
I00
sa(dp1299
Vto
p1300
F37.43
sVconfidence
p1301
F0.653
sVspeaker
p1302
I1
sVfrom
p1303
F37.26
sVfinal
p1304
I00
sa(dp1305
Vto
p1306
F37.56
sVconfidence
p1307
F0.653
sVspeaker
p1308
I1
sVfrom
p1309
F37.43
sVfinal
p1310
I00
sa(dp1311
Vto
p1312
F37.7
sVconfidence
p1313
F0.653
sVspeaker
p1314
I1
sVfrom
p1315
F37.56
sVfinal
p1316
I00
sa(dp1317
Vto
p1318
F37.77
sVconfidence
p1319
F0.653
sVspeaker
p1320
I1
sVfrom
p1321
F37.7
sVfinal
p1322
I00
sa(dp1323
Vto
p1324
F37.99
sVconfidence
p1325
F0.653
sVspeaker
p1326
I1
sVfrom
p1327
F37.77
sVfinal
p1328
I00
sa(dp1329
Vto
p1330
F38.25
sVconfidence
p1331
F0.653
sVspeaker
p1332
I1
sVfrom
p1333
F37.99
sVfinal
p1334
I00
sa(dp1335
Vto
p1336
F38.56
sVconfidence
p1337
F0.411
sVspeaker
p1338
I1
sVfrom
p1339
F38.35
sVfinal
p1340
I00
sa(dp1341
Vto
p1342
F38.75
sVconfidence
p1343
F0.411
sVspeaker
p1344
I1
sVfrom
p1345
F38.56
sVfinal
p1346
I00
sa(dp1347
Vto
p1348
F39.57
sVconfidence
p1349
F0.591
sVspeaker
p1350
I0
sVfrom
p1351
F39.41
sVfinal
p1352
I00
sa(dp1353
Vto
p1354
F39.97
sVconfidence
p1355
F0.591
sVspeaker
p1356
I0
sVfrom
p1357
F39.57
sVfinal
p1358
I00
sa(dp1359
Vto
p1360
F40.39
sVconfidence
p1361
F0.591
sVspeaker
p1362
I0
sVfrom
p1363
F39.97
sVfinal
p1364
I00
sa(dp1365
Vto
p1366
F40.61
sVconfidence
p1367
F0.591
sVspeaker
p1368
I0
sVfrom
p1369
F40.39
sVfinal
p1370
I00
sa(dp1371
Vto
p1372
F40.84
sVconfidence
p1373
F0.591
sVspeaker
p1374
I0
sVfrom
p1375
F40.61
sVfinal
p1376
I00
sa(dp1377
Vto
p1378
F41.12
sVconfidence
p1379
F0.591
sVspeaker
p1380
I0
sVfrom
p1381
F40.84
sVfinal
p1382
I00
sa(dp1383
Vto
p1384
F41.23
sVconfidence
p1385
F0.591
sVspeaker
p1386
I0
sVfrom
p1387
F41.12
sVfinal
p1388
I00
sa(dp1389
Vto
p1390
F41.32
sVconfidence
p1391
F0.591
sVspeaker
p1392
I0
sVfrom
p1393
F41.23
sVfinal
p1394
I00
sa(dp1395
Vto
p1396
F41.68
sVconfidence
p1397
F0.591
sVspeaker
p1398
I0
sVfrom
p1399
F41.32
sVfinal
p1400
I00
sa(dp1401
Vto
p1402
F41.94
sVconfidence
p1403
F0.564
sVspeaker
p1404
I0
sVfrom
p1405
F41.71
sVfinal
p1406
I00
sa(dp1407
Vto
p1408
F42.24
sVconfidence
p1409
F0.564
sVspeaker
p1410
I0
sVfrom
p1411
F41.94
sVfinal
p1412
I00
sa(dp1413
Vto
p1414
F42.59
sVconfidence
p1415
F0.564
sVspeaker
p1416
I0
sVfrom
p1417
F42.24
sVfinal
p1418
I00
sa(dp1419
Vto
p1420
F42.97
sVconfidence
p1421
F0.564
sVspeaker
p1422
I0
sVfrom
p1423
F42.59
sVfinal
p1424
I00
sa(dp1425
Vto
p1426
F43.03
sVconfidence
p1427
F0.564
sVspeaker
p1428
I0
sVfrom
p1429
F42.97
sVfinal
p1430
I00
sa(dp1431
Vto
p1432
F43.19
sVconfidence
p1433
F0.564
sVspeaker
p1434
I0
sVfrom
p1435
F43.03
sVfinal
p1436
I00
sa(dp1437
Vto
p1438
F43.27
sVconfidence
p1439
F0.564
sVspeaker
p1440
I0
sVfrom
p1441
F43.19
sVfinal
p1442
I00
sa(dp1443
Vto
p1444
F43.59
sVconfidence
p1445
F0.564
sVspeaker
p1446
I0
sVfrom
p1447
F43.27
sVfinal
p1448
I00
sa(dp1449
Vto
p1450
F44.0
sVconfidence
p1451
F0.564
sVspeaker
p1452
I0
sVfrom
p1453
F43.59
sVfinal
p1454
I00
sa(dp1455
Vto
p1456
F44.46
sVconfidence
p1457
F0.636
sVspeaker
p1458
I0
sVfrom
p1459
F44.28
sVfinal
p1460
I00
sa(dp1461
Vto
p1462
F44.57
sVconfidence
p1463
F0.636
sVspeaker
p1464
I0
sVfrom
p1465
F44.46
sVfinal
p1466
I00
sa(dp1467
Vto
p1468
F44.64
sVconfidence
p1469
F0.636
sVspeaker
p1470
I0
sVfrom
p1471
F44.57
sVfinal
p1472
I00
sa(dp1473
Vto
p1474
F44.77
sVconfidence
p1475
F0.636
sVspeaker
p1476
I0
sVfrom
p1477
F44.64
sVfinal
p1478
I00
sa(dp1479
Vto
p1480
F45.23
sVconfidence
p1481
F0.636
sVspeaker
p1482
I0
sVfrom
p1483
F44.77
sVfinal
p1484
I00
sa(dp1485
Vto
p1486
F45.46
sVconfidence
p1487
F0.636
sVspeaker
p1488
I0
sVfrom
p1489
F45.23
sVfinal
p1490
I00
sa(dp1491
Vto
p1492
F45.53
sVconfidence
p1493
F0.636
sVspeaker
p1494
I0
sVfrom
p1495
F45.46
sVfinal
p1496
I00
sa(dp1497
Vto
p1498
F45.7
sVconfidence
p1499
F0.636
sVspeaker
p1500
I0
sVfrom
p1501
F45.53
sVfinal
p1502
I00
sa(dp1503
Vto
p1504
F45.79
sVconfidence
p1505
F0.636
sVspeaker
p1506
I0
sVfrom
p1507
F45.7
sVfinal
p1508
I00
sa(dp1509
Vto
p1510
F46.01
sVconfidence
p1511
F0.636
sVspeaker
p1512
I0
sVfrom
p1513
F45.79
sVfinal
p1514
I00
sa(dp1515
Vto
p1516
F46.27
sVconfidence
p1517
F0.584
sVspeaker
p1518
I0
sVfrom
p1519
F46.09
sVfinal
p1520
I00
sa(dp1521
Vto
p1522
F46.4
sVconfidence
p1523
F0.584
sVspeaker
p1524
I0
sVfrom
p1525
F46.27
sVfinal
p1526
I00
sa(dp1527
Vto
p1528
F46.66
sVconfidence
p1529
F0.584
sVspeaker
p1530
I0
sVfrom
p1531
F46.4
sVfinal
p1532
I00
sa(dp1533
Vto
p1534
F47.58
sVconfidence
p1535
F0.658
sVspeaker
p1536
I1
sVfrom
p1537
F47.38
sVfinal
p1538
I00
sa(dp1539
Vto
p1540
F47.72
sVconfidence
p1541
F0.658
sVspeaker
p1542
I1
sVfrom
p1543
F47.58
sVfinal
p1544
I00
sa(dp1545
Vto
p1546
F47.81
sVconfidence
p1547
F0.658
sVspeaker
p1548
I1
sVfrom
p1549
F47.72
sVfinal
p1550
I00
sa(dp1551
Vto
p1552
F48.19
sVconfidence
p1553
F0.658
sVspeaker
p1554
I1
sVfrom
p1555
F47.81
sVfinal
p1556
I00
sa(dp1557
Vto
p1558
F48.41
sVconfidence
p1559
F0.658
sVspeaker
p1560
I1
sVfrom
p1561
F48.19
sVfinal
p1562
I00
sa(dp1563
Vto
p1564
F48.81
sVconfidence
p1565
F0.658
sVspeaker
p1566
I1
sVfrom
p1567
F48.41
sVfinal
p1568
I00
sa(dp1569
Vto
p1570
F48.91
sVconfidence
p1571
F0.658
sVspeaker
p1572
I1
sVfrom
p1573
F48.81
sVfinal
p1574
I00
sa(dp1575
Vto
p1576
F49.51
sVconfidence
p1577
F0.658
sVspeaker
p1578
I1
sVfrom
p1579
F48.91
sVfinal
p1580
I00
sa(dp1581
Vto
p1582
F50.04
sVconfidence
p1583
F0.658
sVspeaker
p1584
I1
sVfrom
p1585
F49.51
sVfinal
p1586
I00
sa(dp1587
Vto
p1588
F50.17
sVconfidence
p1589
F0.658
sVspeaker
p1590
I1
sVfrom
p1591
F50.04
sVfinal
p1592
I00
sa(dp1593
Vto
p1594
F50.31
sVconfidence
p1595
F0.658
sVspeaker
p1596
I1
sVfrom
p1597
F50.17
sVfinal
p1598
I00
sa(dp1599
Vto
p1600
F50.43
sVconfidence
p1601
F0.658
sVspeaker
p1602
I1
sVfrom
p1603
F50.31
sVfinal
p1604
I00
sa(dp1605
Vto
p1606
F50.51
sVconfidence
p1607
F0.658
sVspeaker
p1608
I1
sVfrom
p1609
F50.43
sVfinal
p1610
I00
sa(dp1611
Vto
p1612
F50.76
sVconfidence
p1613
F0.658
sVspeaker
p1614
I1
sVfrom
p1615
F50.51
sVfinal
p1616
I00
sa(dp1617
Vto
p1618
F51.03
sVconfidence
p1619
F0.658
sVspeaker
p1620
I1
sVfrom
p1621
F50.76
sVfinal
p1622
I00
sa(dp1623
Vto
p1624
F51.19
sVconfidence
p1625
F0.658
sVspeaker
p1626
I1
sVfrom
p1627
F51.03
sVfinal
p1628
I00
sa(dp1629
Vto
p1630
F51.41
sVconfidence
p1631
F0.658
sVspeaker
p1632
I1
sVfrom
p1633
F51.19
sVfinal
p1634
I00
sa(dp1635
Vto
p1636
F51.68
sVconfidence
p1637
F0.658
sVspeaker
p1638
I1
sVfrom
p1639
F51.41
sVfinal
p1640
I00
sa(dp1641
Vto
p1642
F51.96
sVconfidence
p1643
F0.658
sVspeaker
p1644
I1
sVfrom
p1645
F51.68
sVfinal
p1646
I00
sa(dp1647
Vto
p1648
F52.76
sVconfidence
p1649
F0.608
sVspeaker
p1650
I1
sVfrom
p1651
F51.99
sVfinal
p1652
I00
sa(dp1653
Vto
p1654
F52.97
sVconfidence
p1655
F0.608
sVspeaker
p1656
I1
sVfrom
p1657
F52.76
sVfinal
p1658
I00
sa(dp1659
Vto
p1660
F53.2
sVconfidence
p1661
F0.608
sVspeaker
p1662
I1
sVfrom
p1663
F52.97
sVfinal
p1664
I00
sa(dp1665
Vto
p1666
F53.69
sVconfidence
p1667
F0.606
sVspeaker
p1668
I0
sVfrom
p1669
F53.43
sVfinal
p1670
I00
sa(dp1671
Vto
p1672
F53.89
sVconfidence
p1673
F0.606
sVspeaker
p1674
I0
sVfrom
p1675
F53.69
sVfinal
p1676
I00
sa(dp1677
Vto
p1678
F54.11
sVconfidence
p1679
F0.636
sVspeaker
p1680
I0
sVfrom
p1681
F53.95
sVfinal
p1682
I00
sa(dp1683
Vto
p1684
F54.38
sVconfidence
p1685
F0.636
sVspeaker
p1686
I0
sVfrom
p1687
F54.11
sVfinal
p1688
I00
sa(dp1689
Vto
p1690
F54.47
sVconfidence
p1691
F0.636
sVspeaker
p1692
I0
sVfrom
p1693
F54.38
sVfinal
p1694
I00
sa(dp1695
Vto
p1696
F54.57
sVconfidence
p1697
F0.636
sVspeaker
p1698
I0
sVfrom
p1699
F54.47
sVfinal
p1700
I00
sa(dp1701
Vto
p1702
F54.6
sVconfidence
p1703
F0.636
sVspeaker
p1704
I0
sVfrom
p1705
F54.57
sVfinal
p1706
I00
sa(dp1707
Vto
p1708
F54.79
sVconfidence
p1709
F0.636
sVspeaker
p1710
I0
sVfrom
p1711
F54.6
sVfinal
p1712
I00
sa(dp1713
Vto
p1714
F55.14
sVconfidence
p1715
F0.636
sVspeaker
p1716
I0
sVfrom
p1717
F54.79
sVfinal
p1718
I00
sa(dp1719
Vto
p1720
F55.23
sVconfidence
p1721
F0.636
sVspeaker
p1722
I0
sVfrom
p1723
F55.14
sVfinal
p1724
I00
sa(dp1725
Vto
p1726
F55.32
sVconfidence
p1727
F0.636
sVspeaker
p1728
I0
sVfrom
p1729
F55.23
sVfinal
p1730
I00
sa(dp1731
Vto
p1732
F55.73
sVconfidence
p1733
F0.636
sVspeaker
p1734
I0
sVfrom
p1735
F55.32
sVfinal
p1736
I00
sa(dp1737
Vto
p1738
F55.92
sVconfidence
p1739
F0.636
sVspeaker
p1740
I0
sVfrom
p1741
F55.73
sVfinal
p1742
I00
sa(dp1743
Vto
p1744
F56.32
sVconfidence
p1745
F0.636
sVspeaker
p1746
I0
sVfrom
p1747
F55.92
sVfinal
p1748
I00
sa(dp1749
Vto
p1750
F56.47
sVconfidence
p1751
F0.636
sVspeaker
p1752
I0
sVfrom
p1753
F56.32
sVfinal
p1754
I00
sa(dp1755
Vto
p1756
F56.54
sVconfidence
p1757
F0.636
sVspeaker
p1758
I0
sVfrom
p1759
F56.47
sVfinal
p1760
I00
sa(dp1761
Vto
p1762
F56.91
sVconfidence
p1763
F0.636
sVspeaker
p1764
I0
sVfrom
p1765
F56.54
sVfinal
p1766
I00
sa(dp1767
Vto
p1768
F57.33
sVconfidence
p1769
F0.636
sVspeaker
p1770
I0
sVfrom
p1771
F56.91
sVfinal
p1772
I00
sa(dp1773
Vto
p1774
F57.66
sVconfidence
p1775
F0.556
sVspeaker
p1776
I0
sVfrom
p1777
F57.36
sVfinal
p1778
I00
sa(dp1779
Vto
p1780
F57.96
sVconfidence
p1781
F0.556
sVspeaker
p1782
I0
sVfrom
p1783
F57.66
sVfinal
p1784
I00
sa(dp1785
Vto
p1786
F58.33
sVconfidence
p1787
F0.53
sVspeaker
p1788
I0
sVfrom
p1789
F58.09
sVfinal
p1790
I00
sa(dp1791
Vto
p1792
F59.07
sVconfidence
p1793
F0.521
sVspeaker
p1794
I0
sVfrom
p1795
F58.67
sVfinal
p1796
I00
sa(dp1797
Vto
p1798
F59.36
sVconfidence
p1799
F0.598
sVspeaker
p1800
I0
sVfrom
p1801
F59.1
sVfinal
p1802
I00
sa(dp1803
Vto
p1804
F59.72
sVconfidence
p1805
F0.598
sVspeaker
p1806
I0
sVfrom
p1807
F59.36
sVfinal
p1808
I00
sa(dp1809
Vto
p1810
F59.96
sVconfidence
p1811
F0.568
sVspeaker
p1812
I0
sVfrom
p1813
F59.83
sVfinal
p1814
I00
sa(dp1815
Vto
p1816
F60.1
sVconfidence
p1817
F0.568
sVspeaker
p1818
I0
sVfrom
p1819
F59.96
sVfinal
p1820
I00
sa(dp1821
Vto
p1822
F60.25
sVconfidence
p1823
F0.568
sVspeaker
p1824
I0
sVfrom
p1825
F60.1
sVfinal
p1826
I00
sa(dp1827
Vto
p1828
F60.43
sVconfidence
p1829
F0.568
sVspeaker
p1830
I0
sVfrom
p1831
F60.25
sVfinal
p1832
I00
sa(dp1833
Vto
p1834
F60.66
sVconfidence
p1835
F0.568
sVspeaker
p1836
I0
sVfrom
p1837
F60.43
sVfinal
p1838
I00
sa(dp1839
Vto
p1840
F60.89
sVconfidence
p1841
F0.568
sVspeaker
p1842
I0
sVfrom
p1843
F60.66
sVfinal
p1844
I00
sa(dp1845
Vto
p1846
F61.11
sVconfidence
p1847
F0.568
sVspeaker
p1848
I0
sVfrom
p1849
F60.89
sVfinal
p1850
I00
sa(dp1851
Vto
p1852
F62.2
sVconfidence
p1853
F0.62
sVspeaker
p1854
I1
sVfrom
p1855
F61.75
sVfinal
p1856
I00
sa(dp1857
Vto
p1858
F62.31
sVconfidence
p1859
F0.62
sVspeaker
p1860
I1
sVfrom
p1861
F62.2
sVfinal
p1862
I00
sa(dp1863
Vto
p1864
F62.59
sVconfidence
p1865
F0.62
sVspeaker
p1866
I1
sVfrom
p1867
F62.31
sVfinal
p1868
I00
sa(dp1869
Vto
p1870
F62.83
sVconfidence
p1871
F0.62
sVspeaker
p1872
I1
sVfrom
p1873
F62.59
sVfinal
p1874
I00
sa(dp1875
Vto
p1876
F62.91
sVconfidence
p1877
F0.62
sVspeaker
p1878
I1
sVfrom
p1879
F62.83
sVfinal
p1880
I00
sa(dp1881
Vto
p1882
F63.05
sVconfidence
p1883
F0.62
sVspeaker
p1884
I1
sVfrom
p1885
F62.91
sVfinal
p1886
I00
sa(dp1887
Vto
p1888
F63.3
sVconfidence
p1889
F0.62
sVspeaker
p1890
I1
sVfrom
p1891
F63.05
sVfinal
p1892
I00
sa(dp1893
Vto
p1894
F63.45
sVconfidence
p1895
F0.62
sVspeaker
p1896
I1
sVfrom
p1897
F63.3
sVfinal
p1898
I00
sa(dp1899
Vto
p1900
F63.63
sVconfidence
p1901
F0.62
sVspeaker
p1902
I1
sVfrom
p1903
F63.45
sVfinal
p1904
I00
sa(dp1905
Vto
p1906
F64.06
sVconfidence
p1907
F0.649
sVspeaker
p1908
I1
sVfrom
p1909
F63.97
sVfinal
p1910
I00
sa(dp1911
Vto
p1912
F64.24
sVconfidence
p1913
F0.649
sVspeaker
p1914
I1
sVfrom
p1915
F64.06
sVfinal
p1916
I00
sa(dp1917
Vto
p1918
F64.45
sVconfidence
p1919
F0.649
sVspeaker
p1920
I1
sVfrom
p1921
F64.24
sVfinal
p1922
I00
sa(dp1923
Vto
p1924
F64.65
sVconfidence
p1925
F0.649
sVspeaker
p1926
I1
sVfrom
p1927
F64.45
sVfinal
p1928
I00
sa(dp1929
Vto
p1930
F64.74
sVconfidence
p1931
F0.649
sVspeaker
p1932
I1
sVfrom
p1933
F64.65
sVfinal
p1934
I00
sa(dp1935
Vto
p1936
F65.14
sVconfidence
p1937
F0.649
sVspeaker
p1938
I1
sVfrom
p1939
F64.74
sVfinal
p1940
I00
sa(dp1941
Vto
p1942
F65.52
sVconfidence
p1943
F0.649
sVspeaker
p1944
I1
sVfrom
p1945
F65.14
sVfinal
p1946
I00
sa(dp1947
Vto
p1948
F66.01
sVconfidence
p1949
F0.624
sVspeaker
p1950
I0
sVfrom
p1951
F65.81
sVfinal
p1952
I00
sa(dp1953
Vto
p1954
F66.31
sVconfidence
p1955
F0.624
sVspeaker
p1956
I0
sVfrom
p1957
F66.01
sVfinal
p1958
I00
sa(dp1959
Vto
p1960
F66.45
sVconfidence
p1961
F0.624
sVspeaker
p1962
I0
sVfrom
p1963
F66.31
sVfinal
p1964
I00
sa(dp1965
Vto
p1966
F66.76
sVconfidence
p1967
F0.624
sVspeaker
p1968
I0
sVfrom
p1969
F66.45
sVfinal
p1970
I00
sa(dp1971
Vto
p1972
F66.92
sVconfidence
p1973
F0.624
sVspeaker
p1974
I0
sVfrom
p1975
F66.76
sVfinal
p1976
I00
sa(dp1977
Vto
p1978
F66.98
sVconfidence
p1979
F0.624
sVspeaker
p1980
I0
sVfrom
p1981
F66.92
sVfinal
p1982
I00
sa(dp1983
Vto
p1984
F67.31
sVconfidence
p1985
F0.624
sVspeaker
p1986
I0
sVfrom
p1987
F66.98
sVfinal
p1988
I00
sa(dp1989
Vto
p1990
F67.53
sVconfidence
p1991
F0.624
sVspeaker
p1992
I0
sVfrom
p1993
F67.31
sVfinal
p1994
I00
sa(dp1995
Vto
p1996
F67.79
sVconfidence
p1997
F0.624
sVspeaker
p1998
I0
sVfrom
p1999
F67.53
sVfinal
p2000
I00
sa(dp2001
Vto
p2002
F67.88
sVconfidence
p2003
F0.624
sVspeaker
p2004
I0
sVfrom
p2005
F67.79
sVfinal
p2006
I00
sa(dp2007
Vto
p2008
F67.97
sVconfidence
p2009
F0.624
sVspeaker
p2010
I0
sVfrom
p2011
F67.88
sVfinal
p2012
I00
sa(dp2013
Vto
p2014
F68.1
sVconfidence
p2015
F0.624
sVspeaker
p2016
I0
sVfrom
p2017
F67.97
sVfinal
p2018
I00
sa(dp2019
Vto
p2020
F68.18
sVconfidence
p2021
F0.624
sVspeaker
p2022
I0
sVfrom
p2023
F68.1
sVfinal
p2024
I00
sa(dp2025
Vto
p2026
F68.27
sVconfidence
p2027
F0.624
sVspeaker
p2028
I0
sVfrom
p2029
F68.18
sVfinal
p2030
I00
sa(dp2031
Vto
p2032
F68.72
sVconfidence
p2033
F0.624
sVspeaker
p2034
I0
sVfrom
p2035
F68.27
sVfinal
p2036
I00
sa(dp2037
Vto
p2038
F68.84
sVconfidence
p2039
F0.624
sVspeaker
p2040
I0
sVfrom
p2041
F68.72
sVfinal
p2042
I00
sa(dp2043
Vto
p2044
F69.09
sVconfidence
p2045
F0.624
sVspeaker
p2046
I0
sVfrom
p2047
F68.84
sVfinal
p2048
I00
sa(dp2049
Vto
p2050
F69.3
sVconfidence
p2051
F0.624
sVspeaker
p2052
I0
sVfrom
p2053
F69.09
sVfinal
p2054
I00
sa(dp2055
Vto
p2056
F69.77
sVconfidence
p2057
F0.624
sVspeaker
p2058
I0
sVfrom
p2059
F69.3
sVfinal
p2060
I00
sa(dp2061
Vto
p2062
F70.53
sVconfidence
p2063
F0.599
sVspeaker
p2064
I0
sVfrom
p2065
F70.01
sVfinal
p2066
I00
sa(dp2067
Vto
p2068
F70.69
sVconfidence
p2069
F0.599
sVspeaker
p2070
I0
sVfrom
p2071
F70.53
sVfinal
p2072
I00
sa(dp2073
Vto
p2074
F70.93
sVconfidence
p2075
F0.599
sVspeaker
p2076
I0
sVfrom
p2077
F70.69
sVfinal
p2078
I00
sa(dp2079
Vto
p2080
F71.12
sVconfidence
p2081
F0.599
sVspeaker
p2082
I0
sVfrom
p2083
F70.93
sVfinal
p2084
I00
sa(dp2085
Vto
p2086
F71.42
sVconfidence
p2087
F0.637
sVspeaker
p2088
I0
sVfrom
p2089
F71.23
sVfinal
p2090
I00
sa(dp2091
Vto
p2092
F71.49
sVconfidence
p2093
F0.637
sVspeaker
p2094
I0
sVfrom
p2095
F71.42
sVfinal
p2096
I00
sa(dp2097
Vto
p2098
F71.66
sVconfidence
p2099
F0.637
sVspeaker
p2100
I0
sVfrom
p2101
F71.49
sVfinal
p2102
I00
sa(dp2103
Vto
p2104
F71.78
sVconfidence
p2105
F0.637
sVspeaker
p2106
I0
sVfrom
p2107
F71.66
sVfinal
p2108
I00
sa(dp2109
Vto
p2110
F72.06
sVconfidence
p2111
F0.563
sVspeaker
p2112
I0
sVfrom
p2113
F71.85
sVfinal
p2114
I00
sa(dp2115
Vto
p2116
F72.18
sVconfidence
p2117
F0.563
sVspeaker
p2118
I0
sVfrom
p2119
F72.06
sVfinal
p2120
I00
sa(dp2121
Vto
p2122
F72.24
sVconfidence
p2123
F0.563
sVspeaker
p2124
I0
sVfrom
p2125
F72.18
sVfinal
p2126
I00
sa(dp2127
Vto
p2128
F72.37
sVconfidence
p2129
F0.563
sVspeaker
p2130
I0
sVfrom
p2131
F72.24
sVfinal
p2132
I00
sa(dp2133
Vto
p2134
F72.55
sVconfidence
p2135
F0.563
sVspeaker
p2136
I0
sVfrom
p2137
F72.37
sVfinal
p2138
I00
sa(dp2139
Vto
p2140
F72.76
sVconfidence
p2141
F0.563
sVspeaker
p2142
I0
sVfrom
p2143
F72.55
sVfinal
p2144
I00
sa(dp2145
Vto
p2146
F72.88
sVconfidence
p2147
F0.563
sVspeaker
p2148
I0
sVfrom
p2149
F72.76
sVfinal
p2150
I00
sa(dp2151
Vto
p2152
F73.47
sVconfidence
p2153
F0.646
sVspeaker
p2154
I1
sVfrom
p2155
F73.35
sVfinal
p2156
I00
sa(dp2157
Vto
p2158
F73.86
sVconfidence
p2159
F0.646
sVspeaker
p2160
I1
sVfrom
p2161
F73.47
sVfinal
p2162
I00
sa(dp2163
Vto
p2164
F74.02
sVconfidence
p2165
F0.646
sVspeaker
p2166
I1
sVfrom
p2167
F73.86
sVfinal
p2168
I00
sa(dp2169
Vto
p2170
F74.59
sVconfidence
p2171
F0.621
sVspeaker
p2172
I1
sVfrom
p2173
F74.35
sVfinal
p2174
I00
sa(dp2175
Vto
p2176
F74.75
sVconfidence
p2177
F0.621
sVspeaker
p2178
I1
sVfrom
p2179
F74.59
sVfinal
p2180
I00
sa(dp2181
Vto
p2182
F74.93
sVconfidence
p2183
F0.621
sVspeaker
p2184
I1
sVfrom
p2185
F74.75
sVfinal
p2186
I00
sa(dp2187
Vto
p2188
F75.19
sVconfidence
p2189
F0.621
sVspeaker
p2190
I1
sVfrom
p2191
F74.93
sVfinal
p2192
I00
sa(dp2193
Vto
p2194
F75.32
sVconfidence
p2195
F0.621
sVspeaker
p2196
I1
sVfrom
p2197
F75.19
sVfinal
p2198
I00
sa(dp2199
Vto
p2200
F75.43
sVconfidence
p2201
F0.621
sVspeaker
p2202
I1
sVfrom
p2203
F75.32
sVfinal
p2204
I00
sa(dp2205
Vto
p2206
F75.92
sVconfidence
p2207
F0.621
sVspeaker
p2208
I1
sVfrom
p2209
F75.43
sVfinal
p2210
I00
sa(dp2211
Vto
p2212
F76.26
sVconfidence
p2213
F0.621
sVspeaker
p2214
I1
sVfrom
p2215
F75.92
sVfinal
p2216
I00
sa(dp2217
Vto
p2218
F76.45
sVconfidence
p2219
F0.621
sVspeaker
p2220
I1
sVfrom
p2221
F76.26
sVfinal
p2222
I00
sa(dp2223
Vto
p2224
F76.66
sVconfidence
p2225
F0.621
sVspeaker
p2226
I1
sVfrom
p2227
F76.45
sVfinal
p2228
I00
sa(dp2229
Vto
p2230
F76.76
sVconfidence
p2231
F0.621
sVspeaker
p2232
I1
sVfrom
p2233
F76.66
sVfinal
p2234
I00
sa(dp2235
Vto
p2236
F76.97
sVconfidence
p2237
F0.621
sVspeaker
p2238
I1
sVfrom
p2239
F76.76
sVfinal
p2240
I00
sa(dp2241
Vto
p2242
F77.26
sVconfidence
p2243
F0.621
sVspeaker
p2244
I1
sVfrom
p2245
F76.97
sVfinal
p2246
I00
sa(dp2247
Vto
p2248
F77.67
sVconfidence
p2249
F0.621
sVspeaker
p2250
I1
sVfrom
p2251
F77.26
sVfinal
p2252
I00
sa(dp2253
Vto
p2254
F78.15
sVconfidence
p2255
F0.652
sVspeaker
p2256
I1
sVfrom
p2257
F77.92
sVfinal
p2258
I00
sa(dp2259
Vto
p2260
F78.47
sVconfidence
p2261
F0.652
sVspeaker
p2262
I1
sVfrom
p2263
F78.15
sVfinal
p2264
I00
sa(dp2265
Vto
p2266
F78.85
sVconfidence
p2267
F0.652
sVspeaker
p2268
I1
sVfrom
p2269
F78.47
sVfinal
p2270
I00
sa(dp2271
Vto
p2272
F78.96
sVconfidence
p2273
F0.652
sVspeaker
p2274
I1
sVfrom
p2275
F78.85
sVfinal
p2276
I00
sa(dp2277
Vto
p2278
F79.18
sVconfidence
p2279
F0.652
sVspeaker
p2280
I1
sVfrom
p2281
F78.96
sVfinal
p2282
I00
sa(dp2283
Vto
p2284
F79.33
sVconfidence
p2285
F0.652
sVspeaker
p2286
I1
sVfrom
p2287
F79.18
sVfinal
p2288
I00
sa(dp2289
Vto
p2290
F79.58
sVconfidence
p2291
F0.652
sVspeaker
p2292
I1
sVfrom
p2293
F79.33
sVfinal
p2294
I00
sa(dp2295
Vto
p2296
F79.85
sVconfidence
p2297
F0.652
sVspeaker
p2298
I1
sVfrom
p2299
F79.58
sVfinal
p2300
I00
sa(dp2301
Vto
p2302
F80.08
sVconfidence
p2303
F0.652
sVspeaker
p2304
I1
sVfrom
p2305
F79.85
sVfinal
p2306
I00
sa(dp2307
Vto
p2308
F80.18
sVconfidence
p2309
F0.652
sVspeaker
p2310
I1
sVfrom
p2311
F80.08
sVfinal
p2312
I00
sa(dp2313
Vto
p2314
F80.76
sVconfidence
p2315
F0.652
sVspeaker
p2316
I1
sVfrom
p2317
F80.18
sVfinal
p2318
I00
sa(dp2319
Vto
p2320
F80.92
sVconfidence
p2321
F0.652
sVspeaker
p2322
I1
sVfrom
p2323
F80.76
sVfinal
p2324
I00
sa(dp2325
Vto
p2326
F81.01
sVconfidence
p2327
F0.652
sVspeaker
p2328
I1
sVfrom
p2329
F80.92
sVfinal
p2330
I00
sa(dp2331
Vto
p2332
F81.29
sVconfidence
p2333
F0.652
sVspeaker
p2334
I1
sVfrom
p2335
F81.01
sVfinal
p2336
I00
sa(dp2337
Vto
p2338
F81.42
sVconfidence
p2339
F0.652
sVspeaker
p2340
I1
sVfrom
p2341
F81.29
sVfinal
p2342
I00
sa(dp2343
Vto
p2344
F81.6
sVconfidence
p2345
F0.652
sVspeaker
p2346
I1
sVfrom
p2347
F81.42
sVfinal
p2348
I00
sa(dp2349
Vto
p2350
F81.71
sVconfidence
p2351
F0.652
sVspeaker
p2352
I1
sVfrom
p2353
F81.6
sVfinal
p2354
I00
sa(dp2355
Vto
p2356
F81.96
sVconfidence
p2357
F0.652
sVspeaker
p2358
I1
sVfrom
p2359
F81.71
sVfinal
p2360
I00
sa(dp2361
Vto
p2362
F82.36
sVconfidence
p2363
F0.652
sVspeaker
p2364
I1
sVfrom
p2365
F81.96
sVfinal
p2366
I00
sa(dp2367
Vto
p2368
F83.45
sVconfidence
p2369
F0.622
sVspeaker
p2370
I0
sVfrom
p2371
F83.27
sVfinal
p2372
I00
sa(dp2373
Vto
p2374
F83.79
sVconfidence
p2375
F0.622
sVspeaker
p2376
I0
sVfrom
p2377
F83.45
sVfinal
p2378
I00
sa(dp2379
Vto
p2380
F83.97
sVconfidence
p2381
F0.622
sVspeaker
p2382
I0
sVfrom
p2383
F83.79
sVfinal
p2384
I00
sa(dp2385
Vto
p2386
F84.23
sVconfidence
p2387
F0.622
sVspeaker
p2388
I0
sVfrom
p2389
F83.97
sVfinal
p2390
I00
sa(dp2391
Vto
p2392
F84.35
sVconfidence
p2393
F0.622
sVspeaker
p2394
I0
sVfrom
p2395
F84.23
sVfinal
p2396
I01
sas.