(dp0
Vresults
p1
(lp2
(dp3
Valternatives
p4
(lp5
(dp6
Vtimestamps
p7
(lp8
(lp9
V%HESITATION
p10
aF0.92
aF1.21
aasVconfidence
p11
F0.573
sVtranscript
p12
V%HESITATION 
p13
sasVfinal
p14
I01
sa(dp15
Valternatives
p16
(lp17
(dp18
Vtimestamps
p19
(lp20
(lp21
Vwe
p22
aF9.09
aF9.22
aa(lp23
Vwant
p24
aF9.22
aF9.42
aa(lp25
Vto
p26
aF9.42
aF9.51
aa(lp27
Vplay
p28
aF9.51
aF9.81
aa(lp29
Vand
p30
aF9.81
aF10.32
aa(lp31
Vplaces
p32
aF10.32
aF10.69
aa(lp33
Vwe
p34
aF10.69
aF10.85
aa(lp35
Vdon't
p36
aF10.85
aF11.03
aa(lp37
Vnormally
p38
aF11.03
aF11.4
aa(lp39
Vhear
p40
aF11.4
aF11.71
aa(lp41
Vlive
p42
aF11.71
aF11.98
aa(lp43
Vmusic
p44
aF11.98
aF12.37
aa(lp45
VI
p46
aF12.37
aF12.53
aa(lp47
VI'm
p48
aF12.53
aF12.76
aa(lp49
Vgoing
p50
aF12.8
aF12.94
aa(lp51
Vto
p52
aF12.94
aF13.0
aa(lp53
Vthink
p54
aF13.0
aF13.19
aa(lp55
Vabout
p56
aF13.19
aF13.4
aa(lp57
Vmusic
p58
aF13.4
aF13.69
aa(lp59
Vbeing
p60
aF13.69
aF13.97
aasVconfidence
p61
F0.77
sVtranscript
p62
Vwe want to play and places we don't normally hear live music I I'm going to think about music being 
p63
sasVfinal
p64
I01
sa(dp65
Valternatives
p66
(lp67
(dp68
Vtimestamps
p69
(lp70
(lp71
Vtimes
p72
aF14.49
aF14.8
aa(lp73
Vof
p74
aF14.8
aF14.95
aa(lp75
Veveryday
p76
aF15.0
aF15.39
aa(lp77
Vlife
p78
aF15.39
aF15.7
aa(lp79
Vas
p80
aF15.91
aF16.05
aa(lp81
Vwell
p82
aF16.05
aF16.28
aa(lp83
Vas
p84
aF16.28
aF16.43
aa(lp85
Vthe
p86
aF18.45
aF18.63
aasVconfidence
p87
F0.431
sVtranscript
p88
Vtimes of everyday life as well as the 
p89
sasVfinal
p90
I01
sa(dp91
Valternatives
p92
(lp93
(dp94
Vtimestamps
p95
(lp96
(lp97
V%HESITATION
p98
aF19.2
aF19.61
aasVconfidence
p99
F0.838
sVtranscript
p100
V%HESITATION 
p101
sasVfinal
p102
I01
sa(dp103
Valternatives
p104
(lp105
(dp106
Vtimestamps
p107
(lp108
(lp109
g46
aF25.51
aF25.55
aa(lp110
Vlove
p111
aF25.55
aF25.93
aa(lp112
Vto
p113
aF25.96
aF26.13
aa(lp114
Vwrite
p115
aF26.66
aF26.98
aasVconfidence
p116
F0.716
sVtranscript
p117
VI love to write 
p118
sasVfinal
p119
I01
sa(dp120
Valternatives
p121
(lp122
(dp123
Vtimestamps
p124
(lp125
(lp126
Vall
p127
aF28.2
aF28.45
aa(lp128
g46
aF28.45
aF28.56
aa(lp129
Vask
p130
aF28.56
aF28.88
aa(lp131
Vof
p132
aF28.88
aF28.99
aa(lp133
Vyou
p134
aF28.99
aF29.24
aa(lp135
Vsaying
p136
aF29.49
aF29.72
aa(lp137
Vmostly
p138
aF29.82
aF30.19
aa(lp139
Vall
p140
aF30.19
aF30.36
aa(lp141
Vright
p142
aF30.5
aF30.67
aa(lp143
g46
aF31.5
aF31.53
aa(lp144
Vthink
p145
aF31.53
aF31.83
aa(lp146
Vit
p147
aF31.83
aF31.96
aa(lp148
Vwas
p149
aF31.96
aF32.15
aa(lp150
Vused
p151
aF32.22
aF32.58
aa(lp152
Vso
p153
aF32.65
aF32.77
aa(lp154
Vmuch
p155
aF32.77
aF33.02
aa(lp156
Vthey
p157
aF33.02
aF33.21
aa(lp158
Vdon't
p159
aF33.4
aF33.68
aa(lp160
Veven
p161
aF33.68
aF33.96
aa(lp162
Vwant
p163
aF33.96
aF34.19
aa(lp164
Vto
p165
aF34.32
aF34.41
aa(lp166
Vmom
p167
aF34.41
aF34.75
aa(lp168
Vgood
p169
aF35.79
aF36.04
aa(lp170
Vbecause
p171
aF36.04
aF36.26
aa(lp172
Vit
p173
aF36.26
aF36.38
aa(lp174
Vreally
p175
aF36.49
aF36.92
aasVconfidence
p176
F0.486
sVtranscript
p177
Vall I ask of you saying mostly all right I think it was used so much they don't even want to mom good because it really 
p178
sasVfinal
p179
I01
sa(dp180
Valternatives
p181
(lp182
(dp183
Vtimestamps
p184
(lp185
(lp186
Vjust
p187
aF44.1
aF44.29
aa(lp188
Vthe
p189
aF44.33
aF44.43
aa(lp190
Vinstrument
p191
aF44.43
aF45.0
aa(lp192
Vto
p193
aF45.0
aF45.1
aa(lp194
Vwhat's
p195
aF45.1
aF45.34
aa(lp196
Vabout
p197
aF45.34
aF45.66
aa(lp198
Vto
p199
aF45.66
aF45.74
aa(lp200
Vcome
p201
aF45.74
aF45.95
aa(lp202
Vdown
p203
aF45.95
aF46.16
aa(lp204
Von
p205
aF46.16
aF46.26
aa(lp206
Vthe
p207
aF46.26
aF46.39
aa(lp208
Von
p209
aF46.5
aF46.67
aa(lp210
Vthe
p211
aF46.67
aF46.8
aa(lp212
Vstring
p213
aF47.14
aF47.65
aasVconfidence
p214
F0.629
sVtranscript
p215
Vjust the instrument to what's about to come down on the on the string 
p216
sasVfinal
p217
I01
sa(dp218
Valternatives
p219
(lp220
(dp221
Vtimestamps
p222
(lp223
(lp224
Vand
p225
aF48.16
aF48.55
aa(lp226
Vand
p227
aF48.64
aF48.94
aa(lp228
Vthe
p229
aF49.06
aF49.24
aa(lp230
Vpeople
p231
aF49.24
aF49.67
aa(lp232
Vwe
p233
aF49.94
aF50.17
aa(lp234
Vcan
p235
aF50.17
aF50.37
aa(lp236
Vto
p237
aF50.37
aF50.48
aa(lp238
Vmake
p239
aF50.48
aF50.69
aa(lp240
Vthat
p241
aF50.69
aF50.86
aa(lp242
Vmusic
p243
aF50.86
aF51.18
aa(lp244
Vand
p245
aF51.18
aF51.44
aa(lp246
Vand
p247
aF51.53
aF51.78
aa(lp248
Vand
p249
aF51.78
aF51.93
aa(lp250
Vmake
p251
aF51.93
aF52.1
aa(lp252
Vit
p253
aF52.1
aF52.19
aa(lp254
Vsound
p255
aF52.19
aF52.54
aa(lp256
Vnine
p257
aF52.66
aF52.98
aasVconfidence
p258
F0.794
sVtranscript
p259
Vand and the people we can to make that music and and and make it sound nine 
p260
sasVfinal
p261
I01
sa(dp262
Valternatives
p263
(lp264
(dp265
Vtimestamps
p266
(lp267
(lp268
g46
aF54.02
aF54.16
aa(lp269
Vthink
p270
aF54.16
aF54.33
aa(lp271
Vit'll
p272
aF54.33
aF54.48
aa(lp273
Vconflicting
p274
aF54.48
aF55.09
aasVconfidence
p275
F0.606
sVtranscript
p276
VI think it'll conflicting 
p277
sasVfinal
p278
I01
sa(dp279
Valternatives
p280
(lp281
(dp282
Vtimestamps
p283
(lp284
(lp285
Vin
p286
aF56.4
aF56.53
aa(lp287
Vthe
p288
aF56.53
aF56.61
aa(lp289
Vbusiness
p290
aF56.8
aF57.2
aa(lp291
Vand
p292
aF57.2
aF57.32
aa(lp293
Vthey
p294
aF58.08
aF58.21
aa(lp295
Vdon't
p296
aF58.21
aF58.4
aa(lp297
Vseem
p298
aF58.44
aF58.65
aa(lp299
Vto
p300
aF59.27
aF59.38
aa(lp301
Vknow
p302
aF59.38
aF59.53
aa(lp303
Vreal
p304
aF59.56
aF59.79
aa(lp305
Vstuff
p306
aF59.79
aF60.11
aasVconfidence
p307
F0.619
sVtranscript
p308
Vin the business and they don't seem to know real stuff 
p309
sasVfinal
p310
I01
sa(dp311
Valternatives
p312
(lp313
(dp314
Vtimestamps
p315
(lp316
(lp317
Vif
p318
aF62.83
aF62.93
aa(lp319
Vyou're
p320
aF62.93
aF63.05
aa(lp321
Vsick
p322
aF63.05
aF63.26
aa(lp323
Vyou
p324
aF63.29
aF63.45
aa(lp325
Vhe's
p326
aF63.45
aF63.65
aa(lp327
Von
p328
aF63.65
aF63.79
aa(lp329
VTieline
p330
aF63.79
aF64.36
aa(lp331
Vto
p332
aF64.51
aF64.71
aa(lp333
Vthat
p334
aF64.71
aF64.89
aa(lp335
Vyou
p336
aF64.89
aF65.08
aa(lp337
Vknow
p338
aF65.08
aF65.32
aa(lp339
Vwhen
p340
aF65.35
aF65.49
aa(lp341
Vyou
p342
aF65.49
aF65.63
aa(lp343
Vlog
p344
aF65.66
aF65.88
aa(lp345
Vin
p346
aF65.97
aF66.13
aa(lp347
Vand
p348
aF66.13
aF66.26
aa(lp349
Vyou've
p350
aF66.26
aF66.37
aa(lp351
Vgot
p352
aF66.37
aF66.51
aa(lp353
Vmemory
p354
aF66.51
aF66.87
aa(lp355
Vbills
p356
aF66.87
aF67.15
aa(lp357
Vand
p358
aF67.15
aF67.27
aa(lp359
Vthen
p360
aF67.27
aF67.39
aa(lp361
Vit's
p362
aF67.39
aF67.58
aa(lp363
Vjust
p364
aF67.58
aF67.76
aa(lp365
Vincredible
p366
aF67.76
aF68.27
aa(lp367
Vthat
p368
aF68.44
aF68.6
aa(lp369
Vmust
p370
aF68.78
aF69.25
aa(lp371
Vmake
p372
aF69.25
aF69.39
aa(lp373
Vyou
p374
aF69.39
aF69.46
aa(lp375
Vfeel
p376
aF69.46
aF69.63
aa(lp377
Vgood
p378
aF69.63
aF69.89
aa(lp379
Vto
p380
aF70.39
aF70.52
aa(lp381
Vbe
p382
aF70.52
aF70.75
aasVconfidence
p383
F0.529
sVtranscript
p384
Vif you're sick you he's on Tieline to that you know when you log in and you've got memory bills and then it's just incredible that must make you feel good to be 
p385
sasVfinal
p386
I01
sasVresult_index
p387
I0
sVspeaker_labels
p388
(lp389
(dp390
Vto
p391
F1.21
sVconfidence
p392
F0.352
sVspeaker
p393
I3
sVfrom
p394
F0.92
sVfinal
p395
I00
sa(dp396
Vto
p397
F9.22
sVconfidence
p398
F0.463
sVspeaker
p399
I0
sVfrom
p400
F9.09
sVfinal
p401
I00
sa(dp402
Vto
p403
F9.42
sVconfidence
p404
F0.463
sVspeaker
p405
I0
sVfrom
p406
F9.22
sVfinal
p407
I00
sa(dp408
Vto
p409
F9.51
sVconfidence
p410
F0.463
sVspeaker
p411
I0
sVfrom
p412
F9.42
sVfinal
p413
I00
sa(dp414
Vto
p415
F9.81
sVconfidence
p416
F0.463
sVspeaker
p417
I0
sVfrom
p418
F9.51
sVfinal
p419
I00
sa(dp420
Vto
p421
F10.32
sVconfidence
p422
F0.463
sVspeaker
p423
I0
sVfrom
p424
F9.81
sVfinal
p425
I00
sa(dp426
Vto
p427
F10.69
sVconfidence
p428
F0.463
sVspeaker
p429
I0
sVfrom
p430
F10.32
sVfinal
p431
I00
sa(dp432
Vto
p433
F10.85
sVconfidence
p434
F0.463
sVspeaker
p435
I0
sVfrom
p436
F10.69
sVfinal
p437
I00
sa(dp438
Vto
p439
F11.03
sVconfidence
p440
F0.463
sVspeaker
p441
I0
sVfrom
p442
F10.85
sVfinal
p443
I00
sa(dp444
Vto
p445
F11.4
sVconfidence
p446
F0.463
sVspeaker
p447
I0
sVfrom
p448
F11.03
sVfinal
p449
I00
sa(dp450
Vto
p451
F11.71
sVconfidence
p452
F0.463
sVspeaker
p453
I0
sVfrom
p454
F11.4
sVfinal
p455
I00
sa(dp456
Vto
p457
F11.98
sVconfidence
p458
F0.463
sVspeaker
p459
I0
sVfrom
p460
F11.71
sVfinal
p461
I00
sa(dp462
Vto
p463
F12.37
sVconfidence
p464
F0.463
sVspeaker
p465
I0
sVfrom
p466
F11.98
sVfinal
p467
I00
sa(dp468
Vto
p469
F12.53
sVconfidence
p470
F0.463
sVspeaker
p471
I0
sVfrom
p472
F12.37
sVfinal
p473
I00
sa(dp474
Vto
p475
F12.76
sVconfidence
p476
F0.463
sVspeaker
p477
I0
sVfrom
p478
F12.53
sVfinal
p479
I00
sa(dp480
Vto
p481
F12.94
sVconfidence
p482
F0.36
sVspeaker
p483
I0
sVfrom
p484
F12.8
sVfinal
p485
I00
sa(dp486
Vto
p487
F13.0
sVconfidence
p488
F0.36
sVspeaker
p489
I0
sVfrom
p490
F12.94
sVfinal
p491
I00
sa(dp492
Vto
p493
F13.19
sVconfidence
p494
F0.36
sVspeaker
p495
I0
sVfrom
p496
F13.0
sVfinal
p497
I00
sa(dp498
Vto
p499
F13.4
sVconfidence
p500
F0.36
sVspeaker
p501
I0
sVfrom
p502
F13.19
sVfinal
p503
I00
sa(dp504
Vto
p505
F13.69
sVconfidence
p506
F0.36
sVspeaker
p507
I0
sVfrom
p508
F13.4
sVfinal
p509
I00
sa(dp510
Vto
p511
F13.97
sVconfidence
p512
F0.36
sVspeaker
p513
I0
sVfrom
p514
F13.69
sVfinal
p515
I00
sa(dp516
Vto
p517
F14.8
sVconfidence
p518
F0.407
sVspeaker
p519
I0
sVfrom
p520
F14.49
sVfinal
p521
I00
sa(dp522
Vto
p523
F14.95
sVconfidence
p524
F0.407
sVspeaker
p525
I0
sVfrom
p526
F14.8
sVfinal
p527
I00
sa(dp528
Vto
p529
F15.39
sVconfidence
p530
F0.464
sVspeaker
p531
I0
sVfrom
p532
F15.0
sVfinal
p533
I00
sa(dp534
Vto
p535
F15.7
sVconfidence
p536
F0.464
sVspeaker
p537
I0
sVfrom
p538
F15.39
sVfinal
p539
I00
sa(dp540
Vto
p541
F16.05
sVconfidence
p542
F0.351
sVspeaker
p543
I0
sVfrom
p544
F15.91
sVfinal
p545
I00
sa(dp546
Vto
p547
F16.28
sVconfidence
p548
F0.351
sVspeaker
p549
I0
sVfrom
p550
F16.05
sVfinal
p551
I00
sa(dp552
Vto
p553
F16.43
sVconfidence
p554
F0.351
sVspeaker
p555
I0
sVfrom
p556
F16.28
sVfinal
p557
I00
sa(dp558
Vto
p559
F18.63
sVconfidence
p560
F0.38
sVspeaker
p561
I3
sVfrom
p562
F18.45
sVfinal
p563
I00
sa(dp564
Vto
p565
F19.61
sVconfidence
p566
F0.452
sVspeaker
p567
I3
sVfrom
p568
F19.2
sVfinal
p569
I00
sa(dp570
Vto
p571
F25.55
sVconfidence
p572
F0.437
sVspeaker
p573
I1
sVfrom
p574
F25.51
sVfinal
p575
I00
sa(dp576
Vto
p577
F25.93
sVconfidence
p578
F0.437
sVspeaker
p579
I1
sVfrom
p580
F25.55
sVfinal
p581
I00
sa(dp582
Vto
p583
F26.13
sVconfidence
p584
F0.334
sVspeaker
p585
I1
sVfrom
p586
F25.96
sVfinal
p587
I00
sa(dp588
Vto
p589
F26.98
sVconfidence
p590
F0.336
sVspeaker
p591
I1
sVfrom
p592
F26.66
sVfinal
p593
I00
sa(dp594
Vto
p595
F28.45
sVconfidence
p596
F0.418
sVspeaker
p597
I1
sVfrom
p598
F28.2
sVfinal
p599
I00
sa(dp600
Vto
p601
F28.56
sVconfidence
p602
F0.418
sVspeaker
p603
I1
sVfrom
p604
F28.45
sVfinal
p605
I00
sa(dp606
Vto
p607
F28.88
sVconfidence
p608
F0.418
sVspeaker
p609
I1
sVfrom
p610
F28.56
sVfinal
p611
I00
sa(dp612
Vto
p613
F28.99
sVconfidence
p614
F0.418
sVspeaker
p615
I1
sVfrom
p616
F28.88
sVfinal
p617
I00
sa(dp618
Vto
p619
F29.24
sVconfidence
p620
F0.418
sVspeaker
p621
I1
sVfrom
p622
F28.99
sVfinal
p623
I00
sa(dp624
Vto
p625
F29.72
sVconfidence
p626
F0.389
sVspeaker
p627
I1
sVfrom
p628
F29.49
sVfinal
p629
I00
sa(dp630
Vto
p631
F30.19
sVconfidence
p632
F0.396
sVspeaker
p633
I0
sVfrom
p634
F29.82
sVfinal
p635
I00
sa(dp636
Vto
p637
F30.36
sVconfidence
p638
F0.396
sVspeaker
p639
I0
sVfrom
p640
F30.19
sVfinal
p641
I00
sa(dp642
Vto
p643
F30.67
sVconfidence
p644
F0.369
sVspeaker
p645
I1
sVfrom
p646
F30.5
sVfinal
p647
I00
sa(dp648
Vto
p649
F31.53
sVconfidence
p650
F0.404
sVspeaker
p651
I1
sVfrom
p652
F31.5
sVfinal
p653
I00
sa(dp654
Vto
p655
F31.83
sVconfidence
p656
F0.404
sVspeaker
p657
I1
sVfrom
p658
F31.53
sVfinal
p659
I00
sa(dp660
Vto
p661
F31.96
sVconfidence
p662
F0.404
sVspeaker
p663
I1
sVfrom
p664
F31.83
sVfinal
p665
I00
sa(dp666
Vto
p667
F32.15
sVconfidence
p668
F0.404
sVspeaker
p669
I1
sVfrom
p670
F31.96
sVfinal
p671
I00
sa(dp672
Vto
p673
F32.58
sVconfidence
p674
F0.386
sVspeaker
p675
I1
sVfrom
p676
F32.22
sVfinal
p677
I00
sa(dp678
Vto
p679
F32.77
sVconfidence
p680
F0.402
sVspeaker
p681
I1
sVfrom
p682
F32.65
sVfinal
p683
I00
sa(dp684
Vto
p685
F33.02
sVconfidence
p686
F0.402
sVspeaker
p687
I1
sVfrom
p688
F32.77
sVfinal
p689
I00
sa(dp690
Vto
p691
F33.21
sVconfidence
p692
F0.402
sVspeaker
p693
I1
sVfrom
p694
F33.02
sVfinal
p695
I00
sa(dp696
Vto
p697
F33.68
sVconfidence
p698
F0.413
sVspeaker
p699
I1
sVfrom
p700
F33.4
sVfinal
p701
I00
sa(dp702
Vto
p703
F33.96
sVconfidence
p704
F0.413
sVspeaker
p705
I1
sVfrom
p706
F33.68
sVfinal
p707
I00
sa(dp708
Vto
p709
F34.19
sVconfidence
p710
F0.413
sVspeaker
p711
I1
sVfrom
p712
F33.96
sVfinal
p713
I00
sa(dp714
Vto
p715
F34.41
sVconfidence
p716
F0.467
sVspeaker
p717
I3
sVfrom
p718
F34.32
sVfinal
p719
I00
sa(dp720
Vto
p721
F34.75
sVconfidence
p722
F0.467
sVspeaker
p723
I3
sVfrom
p724
F34.41
sVfinal
p725
I00
sa(dp726
Vto
p727
F36.04
sVconfidence
p728
F0.442
sVspeaker
p729
I3
sVfrom
p730
F35.79
sVfinal
p731
I00
sa(dp732
Vto
p733
F36.26
sVconfidence
p734
F0.442
sVspeaker
p735
I3
sVfrom
p736
F36.04
sVfinal
p737
I00
sa(dp738
Vto
p739
F36.38
sVconfidence
p740
F0.442
sVspeaker
p741
I3
sVfrom
p742
F36.26
sVfinal
p743
I00
sa(dp744
Vto
p745
F36.92
sVconfidence
p746
F0.426
sVspeaker
p747
I3
sVfrom
p748
F36.49
sVfinal
p749
I00
sa(dp750
Vto
p751
F44.29
sVconfidence
p752
F0.339
sVspeaker
p753
I0
sVfrom
p754
F44.1
sVfinal
p755
I00
sa(dp756
Vto
p757
F44.43
sVconfidence
p758
F0.367
sVspeaker
p759
I0
sVfrom
p760
F44.33
sVfinal
p761
I00
sa(dp762
Vto
p763
F45.0
sVconfidence
p764
F0.367
sVspeaker
p765
I0
sVfrom
p766
F44.43
sVfinal
p767
I00
sa(dp768
Vto
p769
F45.1
sVconfidence
p770
F0.367
sVspeaker
p771
I0
sVfrom
p772
F45.0
sVfinal
p773
I00
sa(dp774
Vto
p775
F45.34
sVconfidence
p776
F0.367
sVspeaker
p777
I0
sVfrom
p778
F45.1
sVfinal
p779
I00
sa(dp780
Vto
p781
F45.66
sVconfidence
p782
F0.367
sVspeaker
p783
I0
sVfrom
p784
F45.34
sVfinal
p785
I00
sa(dp786
Vto
p787
F45.74
sVconfidence
p788
F0.367
sVspeaker
p789
I0
sVfrom
p790
F45.66
sVfinal
p791
I00
sa(dp792
Vto
p793
F45.95
sVconfidence
p794
F0.367
sVspeaker
p795
I0
sVfrom
p796
F45.74
sVfinal
p797
I00
sa(dp798
Vto
p799
F46.16
sVconfidence
p800
F0.367
sVspeaker
p801
I0
sVfrom
p802
F45.95
sVfinal
p803
I00
sa(dp804
Vto
p805
F46.26
sVconfidence
p806
F0.367
sVspeaker
p807
I0
sVfrom
p808
F46.16
sVfinal
p809
I00
sa(dp810
Vto
p811
F46.39
sVconfidence
p812
F0.367
sVspeaker
p813
I0
sVfrom
p814
F46.26
sVfinal
p815
I00
sa(dp816
Vto
p817
F46.67
sVconfidence
p818
F0.414
sVspeaker
p819
I1
sVfrom
p820
F46.5
sVfinal
p821
I00
sa(dp822
Vto
p823
F46.8
sVconfidence
p824
F0.414
sVspeaker
p825
I1
sVfrom
p826
F46.67
sVfinal
p827
I00
sa(dp828
Vto
p829
F47.65
sVconfidence
p830
F0.491
sVspeaker
p831
I0
sVfrom
p832
F47.14
sVfinal
p833
I00
sa(dp834
Vto
p835
F48.55
sVconfidence
p836
F0.337
sVspeaker
p837
I0
sVfrom
p838
F48.16
sVfinal
p839
I00
sa(dp840
Vto
p841
F48.94
sVconfidence
p842
F0.435
sVspeaker
p843
I0
sVfrom
p844
F48.64
sVfinal
p845
I00
sa(dp846
Vto
p847
F49.24
sVconfidence
p848
F0.348
sVspeaker
p849
I0
sVfrom
p850
F49.06
sVfinal
p851
I00
sa(dp852
Vto
p853
F49.67
sVconfidence
p854
F0.348
sVspeaker
p855
I0
sVfrom
p856
F49.24
sVfinal
p857
I00
sa(dp858
Vto
p859
F50.17
sVconfidence
p860
F0.362
sVspeaker
p861
I0
sVfrom
p862
F49.94
sVfinal
p863
I00
sa(dp864
Vto
p865
F50.37
sVconfidence
p866
F0.362
sVspeaker
p867
I0
sVfrom
p868
F50.17
sVfinal
p869
I00
sa(dp870
Vto
p871
F50.48
sVconfidence
p872
F0.362
sVspeaker
p873
I0
sVfrom
p874
F50.37
sVfinal
p875
I00
sa(dp876
Vto
p877
F50.69
sVconfidence
p878
F0.362
sVspeaker
p879
I0
sVfrom
p880
F50.48
sVfinal
p881
I00
sa(dp882
Vto
p883
F50.86
sVconfidence
p884
F0.362
sVspeaker
p885
I0
sVfrom
p886
F50.69
sVfinal
p887
I00
sa(dp888
Vto
p889
F51.18
sVconfidence
p890
F0.362
sVspeaker
p891
I0
sVfrom
p892
F50.86
sVfinal
p893
I00
sa(dp894
Vto
p895
F51.44
sVconfidence
p896
F0.362
sVspeaker
p897
I0
sVfrom
p898
F51.18
sVfinal
p899
I00
sa(dp900
Vto
p901
F51.78
sVconfidence
p902
F0.461
sVspeaker
p903
I0
sVfrom
p904
F51.53
sVfinal
p905
I00
sa(dp906
Vto
p907
F51.93
sVconfidence
p908
F0.461
sVspeaker
p909
I0
sVfrom
p910
F51.78
sVfinal
p911
I00
sa(dp912
Vto
p913
F52.1
sVconfidence
p914
F0.461
sVspeaker
p915
I0
sVfrom
p916
F51.93
sVfinal
p917
I00
sa(dp918
Vto
p919
F52.19
sVconfidence
p920
F0.461
sVspeaker
p921
I0
sVfrom
p922
F52.1
sVfinal
p923
I00
sa(dp924
Vto
p925
F52.54
sVconfidence
p926
F0.461
sVspeaker
p927
I0
sVfrom
p928
F52.19
sVfinal
p929
I00
sa(dp930
Vto
p931
F52.98
sVconfidence
p932
F0.403
sVspeaker
p933
I0
sVfrom
p934
F52.66
sVfinal
p935
I00
sa(dp936
Vto
p937
F54.16
sVconfidence
p938
F0.436
sVspeaker
p939
I0
sVfrom
p940
F54.02
sVfinal
p941
I00
sa(dp942
Vto
p943
F54.33
sVconfidence
p944
F0.436
sVspeaker
p945
I0
sVfrom
p946
F54.16
sVfinal
p947
I00
sa(dp948
Vto
p949
F54.48
sVconfidence
p950
F0.436
sVspeaker
p951
I0
sVfrom
p952
F54.33
sVfinal
p953
I00
sa(dp954
Vto
p955
F55.09
sVconfidence
p956
F0.436
sVspeaker
p957
I0
sVfrom
p958
F54.48
sVfinal
p959
I00
sa(dp960
Vto
p961
F56.53
sVconfidence
p962
F0.506
sVspeaker
p963
I3
sVfrom
p964
F56.4
sVfinal
p965
I00
sa(dp966
Vto
p967
F56.61
sVconfidence
p968
F0.506
sVspeaker
p969
I3
sVfrom
p970
F56.53
sVfinal
p971
I00
sa(dp972
Vto
p973
F57.2
sVconfidence
p974
F0.504
sVspeaker
p975
I3
sVfrom
p976
F56.8
sVfinal
p977
I00
sa(dp978
Vto
p979
F57.32
sVconfidence
p980
F0.504
sVspeaker
p981
I3
sVfrom
p982
F57.2
sVfinal
p983
I00
sa(dp984
Vto
p985
F58.21
sVconfidence
p986
F0.459
sVspeaker
p987
I3
sVfrom
p988
F58.08
sVfinal
p989
I00
sa(dp990
Vto
p991
F58.4
sVconfidence
p992
F0.459
sVspeaker
p993
I3
sVfrom
p994
F58.21
sVfinal
p995
I00
sa(dp996
Vto
p997
F58.65
sVconfidence
p998
F0.496
sVspeaker
p999
I3
sVfrom
p1000
F58.44
sVfinal
p1001
I00
sa(dp1002
Vto
p1003
F59.38
sVconfidence
p1004
F0.383
sVspeaker
p1005
I1
sVfrom
p1006
F59.27
sVfinal
p1007
I00
sa(dp1008
Vto
p1009
F59.53
sVconfidence
p1010
F0.383
sVspeaker
p1011
I1
sVfrom
p1012
F59.38
sVfinal
p1013
I00
sa(dp1014
Vto
p1015
F59.79
sVconfidence
p1016
F0.346
sVspeaker
p1017
I0
sVfrom
p1018
F59.56
sVfinal
p1019
I00
sa(dp1020
Vto
p1021
F60.11
sVconfidence
p1022
F0.346
sVspeaker
p1023
I0
sVfrom
p1024
F59.79
sVfinal
p1025
I00
sa(dp1026
Vto
p1027
F62.93
sVconfidence
p1028
F0.378
sVspeaker
p1029
I0
sVfrom
p1030
F62.83
sVfinal
p1031
I00
sa(dp1032
Vto
p1033
F63.05
sVconfidence
p1034
F0.378
sVspeaker
p1035
I0
sVfrom
p1036
F62.93
sVfinal
p1037
I00
sa(dp1038
Vto
p1039
F63.26
sVconfidence
p1040
F0.378
sVspeaker
p1041
I0
sVfrom
p1042
F63.05
sVfinal
p1043
I00
sa(dp1044
Vto
p1045
F63.45
sVconfidence
p1046
F0.397
sVspeaker
p1047
I0
sVfrom
p1048
F63.29
sVfinal
p1049
I00
sa(dp1050
Vto
p1051
F63.65
sVconfidence
p1052
F0.397
sVspeaker
p1053
I0
sVfrom
p1054
F63.45
sVfinal
p1055
I00
sa(dp1056
Vto
p1057
F63.79
sVconfidence
p1058
F0.397
sVspeaker
p1059
I0
sVfrom
p1060
F63.65
sVfinal
p1061
I00
sa(dp1062
Vto
p1063
F64.36
sVconfidence
p1064
F0.397
sVspeaker
p1065
I0
sVfrom
p1066
F63.79
sVfinal
p1067
I00
sa(dp1068
Vto
p1069
F64.71
sVconfidence
p1070
F0.288
sVspeaker
p1071
I0
sVfrom
p1072
F64.51
sVfinal
p1073
I00
sa(dp1074
Vto
p1075
F64.89
sVconfidence
p1076
F0.288
sVspeaker
p1077
I0
sVfrom
p1078
F64.71
sVfinal
p1079
I00
sa(dp1080
Vto
p1081
F65.08
sVconfidence
p1082
F0.288
sVspeaker
p1083
I0
sVfrom
p1084
F64.89
sVfinal
p1085
I00
sa(dp1086
Vto
p1087
F65.32
sVconfidence
p1088
F0.288
sVspeaker
p1089
I0
sVfrom
p1090
F65.08
sVfinal
p1091
I00
sa(dp1092
Vto
p1093
F65.49
sVconfidence
p1094
F0.426
sVspeaker
p1095
I1
sVfrom
p1096
F65.35
sVfinal
p1097
I00
sa(dp1098
Vto
p1099
F65.63
sVconfidence
p1100
F0.426
sVspeaker
p1101
I1
sVfrom
p1102
F65.49
sVfinal
p1103
I00
sa(dp1104
Vto
p1105
F65.88
sVconfidence
p1106
F0.377
sVspeaker
p1107
I1
sVfrom
p1108
F65.66
sVfinal
p1109
I00
sa(dp1110
Vto
p1111
F66.13
sVconfidence
p1112
F0.355
sVspeaker
p1113
I0
sVfrom
p1114
F65.97
sVfinal
p1115
I00
sa(dp1116
Vto
p1117
F66.26
sVconfidence
p1118
F0.355
sVspeaker
p1119
I0
sVfrom
p1120
F66.13
sVfinal
p1121
I00
sa(dp1122
Vto
p1123
F66.37
sVconfidence
p1124
F0.355
sVspeaker
p1125
I0
sVfrom
p1126
F66.26
sVfinal
p1127
I00
sa(dp1128
Vto
p1129
F66.51
sVconfidence
p1130
F0.355
sVspeaker
p1131
I0
sVfrom
p1132
F66.37
sVfinal
p1133
I00
sa(dp1134
Vto
p1135
F66.87
sVconfidence
p1136
F0.355
sVspeaker
p1137
I0
sVfrom
p1138
F66.51
sVfinal
p1139
I00
sa(dp1140
Vto
p1141
F67.15
sVconfidence
p1142
F0.355
sVspeaker
p1143
I0
sVfrom
p1144
F66.87
sVfinal
p1145
I00
sa(dp1146
Vto
p1147
F67.27
sVconfidence
p1148
F0.355
sVspeaker
p1149
I0
sVfrom
p1150
F67.15
sVfinal
p1151
I00
sa(dp1152
Vto
p1153
F67.39
sVconfidence
p1154
F0.355
sVspeaker
p1155
I0
sVfrom
p1156
F67.27
sVfinal
p1157
I00
sa(dp1158
Vto
p1159
F67.58
sVconfidence
p1160
F0.355
sVspeaker
p1161
I0
sVfrom
p1162
F67.39
sVfinal
p1163
I00
sa(dp1164
Vto
p1165
F67.76
sVconfidence
p1166
F0.355
sVspeaker
p1167
I0
sVfrom
p1168
F67.58
sVfinal
p1169
I00
sa(dp1170
Vto
p1171
F68.27
sVconfidence
p1172
F0.355
sVspeaker
p1173
I0
sVfrom
p1174
F67.76
sVfinal
p1175
I00
sa(dp1176
Vto
p1177
F68.6
sVconfidence
p1178
F0.356
sVspeaker
p1179
I1
sVfrom
p1180
F68.44
sVfinal
p1181
I00
sa(dp1182
Vto
p1183
F69.25
sVconfidence
p1184
F0.393
sVspeaker
p1185
I0
sVfrom
p1186
F68.78
sVfinal
p1187
I00
sa(dp1188
Vto
p1189
F69.39
sVconfidence
p1190
F0.393
sVspeaker
p1191
I0
sVfrom
p1192
F69.25
sVfinal
p1193
I00
sa(dp1194
Vto
p1195
F69.46
sVconfidence
p1196
F0.393
sVspeaker
p1197
I0
sVfrom
p1198
F69.39
sVfinal
p1199
I00
sa(dp1200
Vto
p1201
F69.63
sVconfidence
p1202
F0.393
sVspeaker
p1203
I0
sVfrom
p1204
F69.46
sVfinal
p1205
I00
sa(dp1206
Vto
p1207
F69.89
sVconfidence
p1208
F0.393
sVspeaker
p1209
I0
sVfrom
p1210
F69.63
sVfinal
p1211
I00
sa(dp1212
Vto
p1213
F70.52
sVconfidence
p1214
F0.339
sVspeaker
p1215
I0
sVfrom
p1216
F70.39
sVfinal
p1217
I00
sa(dp1218
Vto
p1219
F70.75
sVconfidence
p1220
F0.339
sVspeaker
p1221
I0
sVfrom
p1222
F70.52
sVfinal
p1223
I01
sas.