(dp0
Vresults
p1
(lp2
(dp3
Valternatives
p4
(lp5
(dp6
Vtimestamps
p7
(lp8
(lp9
V%HESITATION
p10
aF0.92
aF1.21
aasVconfidence
p11
F0.573
sVtranscript
p12
V%HESITATION 
p13
sasVfinal
p14
I01
sa(dp15
Valternatives
p16
(lp17
(dp18
Vtimestamps
p19
(lp20
(lp21
VAmericans
p22
aF30.11
aF30.62
aa(lp23
Vmay
p24
aF30.69
aF30.82
aa(lp25
Vmake
p26
aF30.82
aF31.09
aa(lp27
Va
p28
aF31.09
aF31.18
aa(lp29
Vboating
p30
aF31.18
aF31.57
aa(lp31
Vaccident
p32
aF32.64
aF33.02
aa(lp33
Vschool
p34
aF33.02
aF33.27
aa(lp35
Vorgans
p36
aF33.27
aF33.68
aa(lp37
Vfrom
p38
aF33.77
aF34.09
aa(lp39
Vincreased
p40
aF34.15
aF34.73
aa(lp41
Vits
p42
aF34.73
aF34.94
aa(lp43
Vmost
p44
aF34.94
aF35.32
aa(lp45
Vyou
p46
aF35.32
aF35.61
aa(lp47
Vhas
p48
aF35.92
aF36.08
aa(lp49
Vbeen
p50
aF36.08
aF36.26
aa(lp51
Vnamed
p52
aF36.26
aF36.61
aa(lp53
Vas
p54
aF36.61
aF36.76
aa(lp55
Vthe
p56
aF36.79
aF36.97
aa(lp57
Vinternational
p58
aF37.01
aF37.67
aa(lp59
Vrugby
p60
aF37.67
aF38.01
aa(lp61
Vsaid
p62
aF38.01
aF38.34
aa(lp63
Vthey
p64
aF38.45
aF38.62
aa(lp65
Vsee
p66
aF38.62
aF38.77
aa(lp67
VAsians
p68
aF38.77
aF39.18
aa(lp69
Vsoy
p70
aF39.21
aF39.54
aa(lp71
Vvia
p72
aF39.54
aF40.06
aa(lp73
Vthe
p74
aF40.22
aF40.31
aa(lp75
Vtwenty
p76
aF40.31
aF40.73
aa(lp77
Vfifteen
p78
aF40.73
aF41.34
aasVconfidence
p79
F0.455
sVtranscript
p80
VAmericans may make a boating accident school organs from increased its most you has been named as the international rugby said they see Asians soy via the twenty fifteen 
p81
sasVfinal
p82
I01
sa(dp83
Valternatives
p84
(lp85
(dp86
Vtimestamps
p87
(lp88
(lp89
Vthe
p90
aF43.05
aF43.15
aa(lp91
Vtwenty
p92
aF43.15
aF43.51
aa(lp93
Vtwo
p94
aF43.51
aF43.7
aa(lp95
Vyear
p96
aF43.7
aF43.87
aa(lp97
Vold
p98
aF43.87
aF44.06
aa(lp99
Vbecomes
p100
aF44.06
aF44.37
aa(lp101
Vthis
p102
aF44.58
aF44.83
aa(lp103
Vdoesn't
p104
aF44.83
aF45.14
aa(lp105
Vwin
p106
aF45.66
aF45.96
aa(lp107
Vthe
p108
aF45.96
aF46.08
aa(lp109
Vprocedure
p110
aF46.08
aF46.58
aa(lp111
Vsupport
p112
aF46.58
aF47.06
aa(lp113
Vit
p114
aF47.52
aF47.63
aa(lp115
Vmakes
p116
aF47.63
aF47.88
aa(lp117
Vit
p118
aF47.88
aF47.97
aa(lp119
g28
aF47.97
aF48.06
aa(lp120
Vclean
p121
aF48.11
aF48.4
aa(lp122
Vsweep
p123
aF48.4
aF48.73
aa(lp124
Vnews
p125
aF48.79
aF49.06
aa(lp126
Veven
p127
aF49.06
aF49.3
aa(lp128
Vrun
p129
aF49.3
aF49.52
aa(lp130
Vthe
p131
aF49.57
aF49.77
aa(lp132
Vwindows
p133
aF49.98
aF50.25
aa(lp134
Vthe
p135
aF50.25
aF50.38
aa(lp136
Vcodes
p137
aF50.91
aF51.37
aa(lp138
Vand
p139
aF51.46
aF51.85
aa(lp140
Vteam
p141
aF51.88
aF52.15
aa(lp142
Vin
p143
aF52.15
aF52.25
aa(lp144
Vthe
p145
aF52.28
aF52.38
aa(lp146
Vyeah
p147
aF52.38
aF52.7
aasVconfidence
p148
F0.588
sVtranscript
p149
Vthe twenty two year old becomes this doesn't win the procedure support it makes it a clean sweep news even run the windows the codes and team in the yeah 
p150
sasVfinal
p151
I01
sa(dp152
Valternatives
p153
(lp154
(dp155
Vtimestamps
p156
(lp157
(lp158
Vyou
p159
aF60.17
aF60.4
aa(lp160
Vcan
p161
aF60.54
aF60.73
aa(lp162
Vdo
p163
aF60.73
aF60.93
aa(lp164
Vyou
p165
aF61.71
aF61.83
aa(lp166
Vknow
p167
aF61.83
aF62.0
aa(lp168
Vwhat
p169
aF62.58
aF62.72
aasVconfidence
p170
F0.616
sVtranscript
p171
Vyou can do you know what 
p172
sasVfinal
p173
I01
sa(dp174
Valternatives
p175
(lp176
(dp177
Vtimestamps
p178
(lp179
(lp180
V%HESITATION
p181
aF74.88
aF75.3
aa(lp182
Vto
p183
aF75.33
aF75.55
aa(lp184
Vdo
p185
aF77.78
aF78.02
aasVconfidence
p186
F0.776
sVtranscript
p187
V%HESITATION to do 
p188
sasVfinal
p189
I01
sa(dp190
Valternatives
p191
(lp192
(dp193
Vtimestamps
p194
(lp195
(lp196
Vhe
p197
aF81.33
aF81.49
aa(lp198
Vmade
p199
aF82.55
aF82.76
aa(lp200
Vme
p201
aF95.06
aF95.2
aa(lp202
Vdo
p203
aF95.2
aF95.36
aasVconfidence
p204
F0.503
sVtranscript
p205
Vhe made me do 
p206
sasVfinal
p207
I01
sasVresult_index
p208
I0
sVspeaker_labels
p209
(lp210
(dp211
Vto
p212
F1.21
sVconfidence
p213
F0.482
sVspeaker
p214
I1
sVfrom
p215
F0.92
sVfinal
p216
I00
sa(dp217
Vto
p218
F30.62
sVconfidence
p219
F0.54
sVspeaker
p220
I2
sVfrom
p221
F30.11
sVfinal
p222
I00
sa(dp223
Vto
p224
F30.82
sVconfidence
p225
F0.496
sVspeaker
p226
I2
sVfrom
p227
F30.69
sVfinal
p228
I00
sa(dp229
Vto
p230
F31.09
sVconfidence
p231
F0.496
sVspeaker
p232
I2
sVfrom
p233
F30.82
sVfinal
p234
I00
sa(dp235
Vto
p236
F31.18
sVconfidence
p237
F0.496
sVspeaker
p238
I2
sVfrom
p239
F31.09
sVfinal
p240
I00
sa(dp241
Vto
p242
F31.57
sVconfidence
p243
F0.496
sVspeaker
p244
I2
sVfrom
p245
F31.18
sVfinal
p246
I00
sa(dp247
Vto
p248
F33.02
sVconfidence
p249
F0.425
sVspeaker
p250
I2
sVfrom
p251
F32.64
sVfinal
p252
I00
sa(dp253
Vto
p254
F33.27
sVconfidence
p255
F0.425
sVspeaker
p256
I2
sVfrom
p257
F33.02
sVfinal
p258
I00
sa(dp259
Vto
p260
F33.68
sVconfidence
p261
F0.425
sVspeaker
p262
I2
sVfrom
p263
F33.27
sVfinal
p264
I00
sa(dp265
Vto
p266
F34.09
sVconfidence
p267
F0.556
sVspeaker
p268
I1
sVfrom
p269
F33.77
sVfinal
p270
I00
sa(dp271
Vto
p272
F34.73
sVconfidence
p273
F0.352
sVspeaker
p274
I2
sVfrom
p275
F34.15
sVfinal
p276
I00
sa(dp277
Vto
p278
F34.94
sVconfidence
p279
F0.352
sVspeaker
p280
I2
sVfrom
p281
F34.73
sVfinal
p282
I00
sa(dp283
Vto
p284
F35.32
sVconfidence
p285
F0.352
sVspeaker
p286
I2
sVfrom
p287
F34.94
sVfinal
p288
I00
sa(dp289
Vto
p290
F35.61
sVconfidence
p291
F0.352
sVspeaker
p292
I2
sVfrom
p293
F35.32
sVfinal
p294
I00
sa(dp295
Vto
p296
F36.08
sVconfidence
p297
F0.5
sVspeaker
p298
I2
sVfrom
p299
F35.92
sVfinal
p300
I00
sa(dp301
Vto
p302
F36.26
sVconfidence
p303
F0.5
sVspeaker
p304
I2
sVfrom
p305
F36.08
sVfinal
p306
I00
sa(dp307
Vto
p308
F36.61
sVconfidence
p309
F0.5
sVspeaker
p310
I2
sVfrom
p311
F36.26
sVfinal
p312
I00
sa(dp313
Vto
p314
F36.76
sVconfidence
p315
F0.5
sVspeaker
p316
I2
sVfrom
p317
F36.61
sVfinal
p318
I00
sa(dp319
Vto
p320
F36.97
sVconfidence
p321
F0.417
sVspeaker
p322
I2
sVfrom
p323
F36.79
sVfinal
p324
I00
sa(dp325
Vto
p326
F37.67
sVconfidence
p327
F0.416
sVspeaker
p328
I2
sVfrom
p329
F37.01
sVfinal
p330
I00
sa(dp331
Vto
p332
F38.01
sVconfidence
p333
F0.416
sVspeaker
p334
I2
sVfrom
p335
F37.67
sVfinal
p336
I00
sa(dp337
Vto
p338
F38.34
sVconfidence
p339
F0.416
sVspeaker
p340
I2
sVfrom
p341
F38.01
sVfinal
p342
I00
sa(dp343
Vto
p344
F38.62
sVconfidence
p345
F0.58
sVspeaker
p346
I2
sVfrom
p347
F38.45
sVfinal
p348
I00
sa(dp349
Vto
p350
F38.77
sVconfidence
p351
F0.58
sVspeaker
p352
I2
sVfrom
p353
F38.62
sVfinal
p354
I00
sa(dp355
Vto
p356
F39.18
sVconfidence
p357
F0.58
sVspeaker
p358
I2
sVfrom
p359
F38.77
sVfinal
p360
I00
sa(dp361
Vto
p362
F39.54
sVconfidence
p363
F0.342
sVspeaker
p364
I1
sVfrom
p365
F39.21
sVfinal
p366
I00
sa(dp367
Vto
p368
F40.06
sVconfidence
p369
F0.342
sVspeaker
p370
I1
sVfrom
p371
F39.54
sVfinal
p372
I00
sa(dp373
Vto
p374
F40.31
sVconfidence
p375
F0.334
sVspeaker
p376
I2
sVfrom
p377
F40.22
sVfinal
p378
I00
sa(dp379
Vto
p380
F40.73
sVconfidence
p381
F0.334
sVspeaker
p382
I2
sVfrom
p383
F40.31
sVfinal
p384
I00
sa(dp385
Vto
p386
F41.34
sVconfidence
p387
F0.334
sVspeaker
p388
I2
sVfrom
p389
F40.73
sVfinal
p390
I00
sa(dp391
Vto
p392
F43.15
sVconfidence
p393
F0.488
sVspeaker
p394
I2
sVfrom
p395
F43.05
sVfinal
p396
I00
sa(dp397
Vto
p398
F43.51
sVconfidence
p399
F0.488
sVspeaker
p400
I2
sVfrom
p401
F43.15
sVfinal
p402
I00
sa(dp403
Vto
p404
F43.7
sVconfidence
p405
F0.488
sVspeaker
p406
I2
sVfrom
p407
F43.51
sVfinal
p408
I00
sa(dp409
Vto
p410
F43.87
sVconfidence
p411
F0.488
sVspeaker
p412
I2
sVfrom
p413
F43.7
sVfinal
p414
I00
sa(dp415
Vto
p416
F44.06
sVconfidence
p417
F0.488
sVspeaker
p418
I2
sVfrom
p419
F43.87
sVfinal
p420
I00
sa(dp421
Vto
p422
F44.37
sVconfidence
p423
F0.488
sVspeaker
p424
I2
sVfrom
p425
F44.06
sVfinal
p426
I00
sa(dp427
Vto
p428
F44.83
sVconfidence
p429
F0.487
sVspeaker
p430
I2
sVfrom
p431
F44.58
sVfinal
p432
I00
sa(dp433
Vto
p434
F45.14
sVconfidence
p435
F0.487
sVspeaker
p436
I2
sVfrom
p437
F44.83
sVfinal
p438
I00
sa(dp439
Vto
p440
F45.96
sVconfidence
p441
F0.409
sVspeaker
p442
I2
sVfrom
p443
F45.66
sVfinal
p444
I00
sa(dp445
Vto
p446
F46.08
sVconfidence
p447
F0.409
sVspeaker
p448
I2
sVfrom
p449
F45.96
sVfinal
p450
I00
sa(dp451
Vto
p452
F46.58
sVconfidence
p453
F0.409
sVspeaker
p454
I2
sVfrom
p455
F46.08
sVfinal
p456
I00
sa(dp457
Vto
p458
F47.06
sVconfidence
p459
F0.409
sVspeaker
p460
I2
sVfrom
p461
F46.58
sVfinal
p462
I00
sa(dp463
Vto
p464
F47.63
sVconfidence
p465
F0.444
sVspeaker
p466
I2
sVfrom
p467
F47.52
sVfinal
p468
I00
sa(dp469
Vto
p470
F47.88
sVconfidence
p471
F0.444
sVspeaker
p472
I2
sVfrom
p473
F47.63
sVfinal
p474
I00
sa(dp475
Vto
p476
F47.97
sVconfidence
p477
F0.444
sVspeaker
p478
I2
sVfrom
p479
F47.88
sVfinal
p480
I00
sa(dp481
Vto
p482
F48.06
sVconfidence
p483
F0.444
sVspeaker
p484
I2
sVfrom
p485
F47.97
sVfinal
p486
I00
sa(dp487
Vto
p488
F48.4
sVconfidence
p489
F0.475
sVspeaker
p490
I2
sVfrom
p491
F48.11
sVfinal
p492
I00
sa(dp493
Vto
p494
F48.73
sVconfidence
p495
F0.475
sVspeaker
p496
I2
sVfrom
p497
F48.4
sVfinal
p498
I00
sa(dp499
Vto
p500
F49.06
sVconfidence
p501
F0.536
sVspeaker
p502
I2
sVfrom
p503
F48.79
sVfinal
p504
I00
sa(dp505
Vto
p506
F49.3
sVconfidence
p507
F0.536
sVspeaker
p508
I2
sVfrom
p509
F49.06
sVfinal
p510
I00
sa(dp511
Vto
p512
F49.52
sVconfidence
p513
F0.536
sVspeaker
p514
I2
sVfrom
p515
F49.3
sVfinal
p516
I00
sa(dp517
Vto
p518
F49.77
sVconfidence
p519
F0.321
sVspeaker
p520
I1
sVfrom
p521
F49.57
sVfinal
p522
I00
sa(dp523
Vto
p524
F50.25
sVconfidence
p525
F0.544
sVspeaker
p526
I2
sVfrom
p527
F49.98
sVfinal
p528
I00
sa(dp529
Vto
p530
F50.38
sVconfidence
p531
F0.544
sVspeaker
p532
I2
sVfrom
p533
F50.25
sVfinal
p534
I00
sa(dp535
Vto
p536
F51.37
sVconfidence
p537
F0.489
sVspeaker
p538
I2
sVfrom
p539
F50.91
sVfinal
p540
I00
sa(dp541
Vto
p542
F51.85
sVconfidence
p543
F0.519
sVspeaker
p544
I2
sVfrom
p545
F51.46
sVfinal
p546
I00
sa(dp547
Vto
p548
F52.15
sVconfidence
p549
F0.6
sVspeaker
p550
I2
sVfrom
p551
F51.88
sVfinal
p552
I00
sa(dp553
Vto
p554
F52.25
sVconfidence
p555
F0.6
sVspeaker
p556
I2
sVfrom
p557
F52.15
sVfinal
p558
I00
sa(dp559
Vto
p560
F52.38
sVconfidence
p561
F0.452
sVspeaker
p562
I2
sVfrom
p563
F52.28
sVfinal
p564
I00
sa(dp565
Vto
p566
F52.7
sVconfidence
p567
F0.452
sVspeaker
p568
I2
sVfrom
p569
F52.38
sVfinal
p570
I00
sa(dp571
Vto
p572
F60.4
sVconfidence
p573
F0.554
sVspeaker
p574
I1
sVfrom
p575
F60.17
sVfinal
p576
I00
sa(dp577
Vto
p578
F60.73
sVconfidence
p579
F0.64
sVspeaker
p580
I1
sVfrom
p581
F60.54
sVfinal
p582
I00
sa(dp583
Vto
p584
F60.93
sVconfidence
p585
F0.64
sVspeaker
p586
I1
sVfrom
p587
F60.73
sVfinal
p588
I00
sa(dp589
Vto
p590
F61.83
sVconfidence
p591
F0.621
sVspeaker
p592
I1
sVfrom
p593
F61.71
sVfinal
p594
I00
sa(dp595
Vto
p596
F62.0
sVconfidence
p597
F0.621
sVspeaker
p598
I1
sVfrom
p599
F61.83
sVfinal
p600
I00
sa(dp601
Vto
p602
F62.72
sVconfidence
p603
F0.624
sVspeaker
p604
I1
sVfrom
p605
F62.58
sVfinal
p606
I00
sa(dp607
Vto
p608
F75.3
sVconfidence
p609
F0.511
sVspeaker
p610
I1
sVfrom
p611
F74.88
sVfinal
p612
I00
sa(dp613
Vto
p614
F75.55
sVconfidence
p615
F0.561
sVspeaker
p616
I1
sVfrom
p617
F75.33
sVfinal
p618
I00
sa(dp619
Vto
p620
F78.02
sVconfidence
p621
F0.501
sVspeaker
p622
I1
sVfrom
p623
F77.78
sVfinal
p624
I00
sa(dp625
Vto
p626
F81.49
sVconfidence
p627
F0.539
sVspeaker
p628
I1
sVfrom
p629
F81.33
sVfinal
p630
I00
sa(dp631
Vto
p632
F82.76
sVconfidence
p633
F0.464
sVspeaker
p634
I1
sVfrom
p635
F82.55
sVfinal
p636
I00
sa(dp637
Vto
p638
F95.2
sVconfidence
p639
F0.436
sVspeaker
p640
I1
sVfrom
p641
F95.06
sVfinal
p642
I00
sa(dp643
Vto
p644
F95.36
sVconfidence
p645
F0.436
sVspeaker
p646
I1
sVfrom
p647
F95.2
sVfinal
p648
I01
sas.