(dp0
Vresults
p1
(lp2
(dp3
Valternatives
p4
(lp5
(dp6
Vtimestamps
p7
(lp8
(lp9
V%HESITATION
p10
aF0.92
aF1.21
aasVconfidence
p11
F0.567
sVtranscript
p12
V%HESITATION 
p13
sasVfinal
p14
I01
sa(dp15
Valternatives
p16
(lp17
(dp18
Vtimestamps
p19
(lp20
(lp21
Vrunning
p22
aF2.31
aF2.58
aa(lp23
Vlike
p24
aF2.58
aF2.8
aa(lp25
Va
p26
aF2.85
aF2.93
aa(lp27
Vfine
p28
aF2.93
aF3.22
aa(lp29
Vmorning
p30
aF3.38
aF3.7
aa(lp31
VI
p32
aF3.84
aF4.01
aa(lp33
Vtook
p34
aF4.01
aF4.3
aa(lp35
V%HESITATION
p36
aF4.3
aF4.87
aasVconfidence
p37
F0.563
sVtranscript
p38
Vrunning like a fine morning I took %HESITATION 
p39
sasVfinal
p40
I01
sa(dp41
Valternatives
p42
(lp43
(dp44
Vtimestamps
p45
(lp46
(lp47
V%HESITATION
p48
aF5.46
aF5.98
aa(lp49
Vdo
p50
aF6.01
aF6.17
aa(lp51
Vis
p52
aF6.17
aF6.4
aa(lp53
Vonly
p54
aF6.4
aF6.65
aa(lp55
Vused
p56
aF6.65
aF6.9
aa(lp57
Vher
p58
aF6.9
aF7.02
aa(lp59
Vhe
p60
aF7.02
aF7.21
aa(lp61
Vrushes
p62
aF7.68
aF8.04
aa(lp63
Vcheap
p64
aF8.04
aF8.27
aa(lp65
V%HESITATION
p66
aF9.22
aF9.49
aa(lp67
Von
p68
aF9.49
aF9.7
aa(lp69
Vthe
p70
aF9.8
aF10.12
aa(lp71
V%HESITATION
p72
aF10.12
aF10.43
aa(lp73
V%HESITATION
p74
aF10.67
aF10.9
aa(lp75
Vwhat's
p76
aF10.9
aF11.09
aa(lp77
Vcool
p78
aF11.09
aF11.35
aa(lp79
Vcool
p80
aF11.52
aF11.72
aa(lp81
Vcool
p82
aF11.72
aF12.09
aa(lp83
Vwe
p84
aF12.16
aF12.36
aa(lp85
Vdon't
p86
aF12.36
aF12.63
aa(lp87
Vwant
p88
aF12.67
aF12.86
aa(lp89
Vto
p90
aF12.86
aF12.92
aa(lp91
Vget
p92
aF12.92
aF13.08
aa(lp93
Van
p94
aF13.08
aF13.16
aa(lp95
Vanswer
p96
aF13.16
aF13.51
aasVconfidence
p97
F0.625
sVtranscript
p98
V%HESITATION do is only used her he rushes cheap %HESITATION on the %HESITATION %HESITATION what's cool cool cool we don't want to get an answer 
p99
sasVfinal
p100
I01
sa(dp101
Valternatives
p102
(lp103
(dp104
Vtimestamps
p105
(lp106
(lp107
V%HESITATION
p108
aF14.35
aF14.62
aa(lp109
Vand
p110
aF14.62
aF14.8
aa(lp111
Vit's
p112
aF14.8
aF15.09
aa(lp113
V%HESITATION
p114
aF15.09
aF15.48
aa(lp115
Vyou
p116
aF17.2
aF17.52
aa(lp117
Vsupposed
p118
aF17.52
aF17.87
aa(lp119
Vto
p120
aF17.87
aF17.95
aa(lp121
Vgo
p122
aF17.95
aF18.07
aa(lp123
Vthrough
p124
aF18.07
aF18.35
aa(lp125
Vsecurity
p126
aF18.63
aF19.08
aa(lp127
Vso
p128
aF19.64
aF19.75
aa(lp129
Vyou
p130
aF19.75
aF20.09
aa(lp131
Vyou're
p132
aF21.19
aF21.41
aa(lp133
Vreally
p134
aF21.96
aF22.21
aa(lp135
Vnot
p136
aF22.39
aF22.72
aa(lp137
V%HESITATION
p138
aF22.72
aF22.86
aa(lp139
Vdidn't
p140
aF22.86
aF23.14
aa(lp141
Vbudge
p142
aF23.14
aF23.41
aa(lp143
Vfrom
p144
aF23.41
aF23.64
aa(lp145
Vsecurity
p146
aF23.64
aF24.04
aa(lp147
Vvideo
p148
aF24.04
aF24.44
aa(lp149
Vas
p150
aF24.44
aF24.56
aa(lp151
Vwell
p152
aF24.61
aF24.75
aa(lp153
g32
aF24.75
aF24.93
aa(lp154
Vwent
p155
aF25.4
aF25.64
aa(lp156
Vthrough
p157
aF25.64
aF25.95
aa(lp158
Vthe
p159
aF25.95
aF26.07
aa(lp160
Vwall
p161
aF26.07
aF26.34
aa(lp162
Vof
p163
aF26.83
aF27.08
aa(lp164
Vthe
p165
aF27.08
aF27.14
aa(lp166
Vweapons
p167
aF27.14
aF27.52
aa(lp168
Vthat
p169
aF27.52
aF27.77
aa(lp170
V%HESITATION
p171
aF27.77
aF28.09
aa(lp172
Vthe
p173
aF28.09
aF28.25
aa(lp174
Vmotion
p175
aF28.25
aF28.53
aa(lp176
Vto
p177
aF28.53
aF28.61
aa(lp178
Vgo
p179
aF28.61
aF28.75
aa(lp180
Vthrough
p181
aF28.75
aF28.93
aa(lp182
Vthree
p183
aF29.45
aF29.58
aa(lp184
Vso
p185
aF29.58
aF29.74
aa(lp186
Vyou
p187
aF29.74
aF29.81
aa(lp188
Vcan
p189
aF29.81
aF29.97
aa(lp190
Vsee
p191
aF29.97
aF30.17
aa(lp192
Vsome
p193
aF30.17
aF30.4
aa(lp194
V%HESITATION
p195
aF30.69
aF30.99
aa(lp196
Vtry
p197
aF30.99
aF31.26
aa(lp198
Vto
p199
aF31.26
aF31.36
aa(lp200
Vlike
p201
aF31.36
aF31.64
aa(lp202
V%HESITATION
p203
aF32.02
aF32.43
aa(lp204
Vseeking
p205
aF32.51
aF32.83
aa(lp206
Vthe
p207
aF32.83
aF32.97
aa(lp208
Vguys
p209
aF32.97
aF33.23
aa(lp210
Vthat
p211
aF33.27
aF33.44
aa(lp212
Vhe's
p213
aF33.44
aF33.79
aa(lp214
Vunreservedly
p215
aF33.99
aF35.02
aa(lp216
Vapologise
p217
aF35.07
aF35.8
aa(lp218
Vage
p219
aF36.12
aF36.49
aa(lp220
Vunreservedly
p221
aF36.58
aF37.34
aa(lp222
Vtype
p223
aF37.37
aF37.58
aasVconfidence
p224
F0.702
sVtranscript
p225
V%HESITATION and it's %HESITATION you supposed to go through security so you you're really not %HESITATION didn't budge from security video as well I went through the wall of the weapons that %HESITATION the motion to go through three so you can see some %HESITATION try to like %HESITATION seeking the guys that he's unreservedly apologise age unreservedly type 
p226
sasVfinal
p227
I01
sa(dp228
Valternatives
p229
(lp230
(dp231
Vtimestamps
p232
(lp233
(lp234
Vand
p235
aF39.0
aF39.38
aa(lp236
Vthe
p237
aF39.38
aF39.45
aa(lp238
Vhistory
p239
aF39.45
aF39.91
aa(lp240
Vof
p241
aF39.91
aF40.13
aa(lp242
Vhow
p243
aF40.19
aF40.47
aa(lp244
Vwe
p245
aF40.59
aF40.71
aa(lp246
Vcan
p247
aF40.71
aF40.85
aa(lp248
Vpoint
p249
aF40.85
aF41.12
aa(lp250
Vto
p251
aF41.15
aF41.26
aa(lp252
Vof
p253
aF41.26
aF41.42
aa(lp254
V%HESITATION
p255
aF41.42
aF41.65
aa(lp256
V%HESITATION
p257
aF41.91
aF42.16
aa(lp258
Vminutes
p259
aF42.16
aF42.58
aa(lp260
Vof
p261
aF42.58
aF42.74
aa(lp262
Vthe
p263
aF42.74
aF42.85
aa(lp264
Vprevious
p265
aF42.88
aF43.34
aa(lp266
Vgovernment
p267
aF43.34
aF43.78
aa(lp268
Vhaving
p269
aF44.21
aF44.48
aa(lp270
Vthe
p271
aF44.48
aF44.58
aa(lp272
Vsincerely
p273
aF44.58
aF45.15
aa(lp274
Vtaking
p275
aF45.15
aF45.49
aa(lp276
Vresponsibility
p277
aF45.49
aF46.26
aa(lp278
Vfor
p279
aF46.26
aF46.49
aa(lp280
Vactions
p281
aF46.6
aF46.99
aa(lp282
Vthat
p283
aF47.35
aF47.46
aa(lp284
Vdoesn't
p285
aF47.46
aF47.69
aa(lp286
Vmake
p287
aF47.69
aF47.86
aa(lp288
Vit
p289
aF47.86
aF47.95
aa(lp290
Vany
p291
aF47.95
aF48.14
aa(lp292
Vbetter
p293
aF48.14
aF48.43
aa(lp294
Vin
p295
aF48.46
aF48.57
aa(lp296
Vthe
p297
aF48.57
aF48.64
aa(lp298
Vcity
p299
aF48.64
aF48.99
aa(lp300
Vthat
p301
aF48.99
aF49.15
aa(lp302
g32
aF49.29
aF49.4
aa(lp303
Vcould
p304
aF49.4
aF49.58
aa(lp305
Vwalk
p306
aF49.58
aF49.83
aa(lp307
Vand
p308
aF50.24
aF50.41
aa(lp309
VI'm
p310
aF50.41
aF50.67
aa(lp311
Vvery
p312
aF50.7
aF50.91
aa(lp313
Vdisappointed
p314
aF50.91
aF51.44
aa(lp315
Vin
p316
aF51.44
aF51.5
aa(lp317
Vthe
p318
aF51.5
aF51.57
aa(lp319
Vjury
p320
aF51.57
aF51.89
aa(lp321
Vand
p322
aF51.89
aF52.19
aa(lp323
g32
aF52.19
aF52.27
aa(lp324
Vused
p325
aF52.27
aF52.54
aa(lp326
Vto
p327
aF52.54
aF52.67
aa(lp328
Vsell
p329
aF53.66
aF53.93
aa(lp330
V%HESITATION
p331
aF54.33
aF54.63
aa(lp332
VLevin's
p333
aF54.63
aF55.0
aa(lp334
Voffice
p335
aF55.0
aF55.26
aa(lp336
Vso
p337
aF55.74
aF55.98
aa(lp338
g32
aF55.98
aF56.11
aa(lp339
Vthink
p340
aF56.11
aF56.34
aa(lp341
Vit's
p342
aF56.37
aF56.53
aa(lp343
g26
aF56.53
aF56.6
aa(lp344
Vrecent
p345
aF56.86
aF57.24
aa(lp346
Vspeech
p347
aF57.3
aF57.69
aa(lp348
Vall
p349
aF57.77
aF57.98
aa(lp350
Vcool
p351
aF58.46
aF58.67
aa(lp352
Vlike
p353
aF58.67
aF58.92
aa(lp354
Vin
p355
aF58.92
aF59.02
aa(lp356
Vscience
p357
aF59.02
aF59.47
aa(lp358
g32
aF59.47
aF59.63
aa(lp359
Vconsider
p360
aF59.81
aF60.25
aa(lp361
Vwithout
p362
aF60.25
aF60.71
aa(lp363
V%HESITATION
p364
aF61.0
aF61.35
aa(lp365
V%HESITATION
p366
aF61.52
aF61.81
aa(lp367
Vsix
p368
aF61.81
aF62.13
aa(lp369
Vyears
p370
aF62.13
aF62.41
aa(lp371
Vof
p372
aF62.41
aF62.53
aa(lp373
Vincredibly
p374
aF62.53
aF63.07
aa(lp375
Vhot
p376
aF63.1
aF63.45
aa(lp377
Vwe
p378
aF63.51
aF63.76
aa(lp379
Vshould
p380
aF64.08
aF64.35
aa(lp381
V%HESITATION
p382
aF64.35
aF64.7
aa(lp383
V%HESITATION
p384
aF65.01
aF65.24
aa(lp385
Vbe
p386
aF65.24
aF65.37
aa(lp387
Vwashed
p388
aF65.37
aF65.71
aa(lp389
Vaway
p390
aF65.71
aF66.12
aa(lp391
Vwas
p392
aF66.42
aF66.59
aa(lp393
Vone
p394
aF66.59
aF66.82
aa(lp395
Vreally
p396
aF66.82
aF67.02
aa(lp397
Vsilly
p398
aF67.02
aF67.38
aa(lp399
Vactions
p400
aF67.38
aF67.81
aa(lp401
Vthe
p402
aF67.87
aF67.98
aa(lp403
Vcompany
p404
aF67.98
aF68.32
aa(lp405
Vshould
p406
aF68.54
aF68.76
aa(lp407
Vof
p408
aF69.42
aF69.74
aa(lp409
Vgot
p410
aF69.74
aF69.87
aa(lp411
Vupset
p412
aF69.87
aF70.19
aa(lp413
Vwhen
p414
aF70.34
aF70.56
aa(lp415
V%HESITATION
p416
aF70.56
aF70.84
aa(lp417
V%HESITATION
p418
aF70.87
aF71.3
aa(lp419
Visn't
p420
aF71.59
aF71.92
aa(lp421
g26
aF72.76
aF72.85
aa(lp422
VRolex
p423
aF72.85
aF73.29
aasVconfidence
p424
F0.619
sVtranscript
p425
Vand the history of how we can point to of %HESITATION %HESITATION minutes of the previous government having the sincerely taking responsibility for actions that doesn't make it any better in the city that I could walk and I'm very disappointed in the jury and I used to sell %HESITATION Levin's office so I think it's a recent speech all cool like in science I consider without %HESITATION %HESITATION six years of incredibly hot we should %HESITATION %HESITATION be washed away was one really silly actions the company should of got upset when %HESITATION %HESITATION isn't a Rolex 
p426
sasVfinal
p427
I01
sa(dp428
Valternatives
p429
(lp430
(dp431
Vtimestamps
p432
(lp433
(lp434
Vseems
p435
aF74.27
aF74.58
aa(lp436
Vto
p437
aF75.03
aF75.18
aa(lp438
Vnot
p439
aF75.18
aF75.38
aa(lp440
Vthat
p441
aF75.6
aF75.76
aa(lp442
Vsort
p443
aF75.76
aF75.91
aa(lp444
Vof
p445
aF75.91
aF75.99
aa(lp446
Vthing
p447
aF75.99
aF76.18
aa(lp448
Vis
p449
aF76.22
aF76.33
aa(lp450
Vcoming
p451
aF76.33
aF76.63
aa(lp452
Vin
p453
aF76.63
aF76.72
aasVconfidence
p454
F0.616
sVtranscript
p455
Vseems to not that sort of thing is coming in 
p456
sasVfinal
p457
I01
sa(dp458
Valternatives
p459
(lp460
(dp461
Vtimestamps
p462
(lp463
(lp464
Vdouble
p465
aF77.93
aF78.28
aa(lp466
Vthe
p467
aF78.28
aF78.46
aa(lp468
Vtrouble
p469
aF78.91
aF79.19
aa(lp470
Vyou're
p471
aF79.82
aF79.94
aa(lp472
Vwelcome
p473
aF79.94
aF80.19
aa(lp474
Vto
p475
aF80.19
aF80.3
aa(lp476
Vresign
p477
aF80.3
aF80.73
aa(lp478
Vbecause
p479
aF81.24
aF81.55
aa(lp480
Vof
p481
aF81.55
aF81.71
aa(lp482
Vputting
p483
aF81.71
aF81.98
aa(lp484
Vhim
p485
aF81.98
aF82.18
aa(lp486
Vin
p487
aF82.18
aF82.27
aa(lp488
g26
aF82.27
aF82.35
aa(lp489
Vterrible
p490
aF82.35
aF82.71
aa(lp491
Vposition
p492
aF82.77
aF83.23
aa(lp493
Vwith
p494
aF83.47
aF83.59
aa(lp495
Vthe
p496
aF83.59
aF83.84
aa(lp497
Vcompany
p498
aF84.04
aF84.36
aa(lp499
Vthat
p500
aF84.36
aF84.56
aa(lp501
Vin
p502
aF84.6
aF84.71
aa(lp503
g26
aF84.71
aF84.79
aa(lp504
Vdifficult
p505
aF84.79
aF85.16
aa(lp506
Vposition
p507
aF85.21
aF85.61
aa(lp508
Vbecause
p509
aF86.24
aF86.52
aa(lp510
Vit
p511
aF86.52
aF86.63
aa(lp512
Vbut
p513
aF86.77
aF86.93
aa(lp514
Vit
p515
aF86.93
aF87.02
aa(lp516
Vsure
p517
aF87.02
aF87.2
aa(lp518
Vwould
p519
aF87.53
aF87.69
aa(lp520
Vbe
p521
aF87.69
aF87.78
aa(lp522
Vresponsible
p523
aF87.78
aF88.47
aa(lp524
Vfor
p525
aF88.53
aF88.78
aa(lp526
g32
aF88.78
aF88.86
aa(lp527
Vmean
p528
aF88.86
aF89.01
aa(lp529
Vit's
p530
aF89.01
aF89.39
aa(lp531
Vprobably
p532
aF90.36
aF90.72
aa(lp533
Vsome
p534
aF90.72
aF91.17
aa(lp535
Vreasons
p536
aF91.79
aF92.26
aa(lp537
Vwhy
p538
aF92.26
aF92.44
aa(lp539
Vyou
p540
aF92.44
aF92.62
aa(lp541
Vlike
p542
aF92.78
aF93.13
aa(lp543
g32
aF93.63
aF93.72
aa(lp544
Vmean
p545
aF93.72
aF93.88
aa(lp546
Vwe
p547
aF93.88
aF94.06
aa(lp548
Vin
p549
aF94.06
aF94.21
aa(lp550
Vthe
p551
aF94.21
aF94.32
aa(lp552
Vhealing
p553
aF94.32
aF94.65
aa(lp554
Vclock
p555
aF94.65
aF95.18
aa(lp556
Vwas
p557
aF95.26
aF95.44
aa(lp558
Vattacked
p559
aF95.44
aF95.79
aa(lp560
Vbecause
p561
aF95.82
aF96.21
aasVconfidence
p562
F0.625
sVtranscript
p563
Vdouble the trouble you're welcome to resign because of putting him in a terrible position with the company that in a difficult position because it but it sure would be responsible for I mean it's probably some reasons why you like I mean we in the healing clock was attacked because 
p564
sasVfinal
p565
I01
sa(dp566
Valternatives
p567
(lp568
(dp569
Vtimestamps
p570
(lp571
(lp572
Vto
p573
aF96.86
aF97.27
aa(lp574
V%HESITATION
p575
aF97.3
aF97.54
aa(lp576
Vmother
p577
aF97.57
aF97.84
aa(lp578
Vso
p579
aF97.84
aF98.15
aasVconfidence
p580
F0.576
sVtranscript
p581
Vto %HESITATION mother so 
p582
sasVfinal
p583
I01
sa(dp584
Valternatives
p585
(lp586
(dp587
Vtimestamps
p588
(lp589
(lp590
Vbut
p591
aF100.14
aF100.33
aa(lp592
Vstate
p593
aF100.71
aF101.07
aa(lp594
g32
aF101.07
aF101.25
aasVconfidence
p595
F0.327
sVtranscript
p596
Vbut state I 
p597
sasVfinal
p598
I01
sa(dp599
Valternatives
p600
(lp601
(dp602
Vtimestamps
p603
(lp604
(lp605
Vand
p606
aF102.18
aF102.62
aasVconfidence
p607
F0.834
sVtranscript
p608
Vand 
p609
sasVfinal
p610
I01
sa(dp611
Valternatives
p612
(lp613
(dp614
Vtimestamps
p615
(lp616
(lp617
Vthe
p618
aF103.42
aF103.5
aa(lp619
Vprime
p620
aF103.5
aF103.8
aa(lp621
Vis
p622
aF103.8
aF104.03
aa(lp623
Vgonna
p624
aF104.03
aF104.2
aa(lp625
Vget
p626
aF104.2
aF104.33
aa(lp627
Vsomewhere
p628
aF104.33
aF104.61
aa(lp629
Vquick
p630
aF104.61
aF104.99
aa(lp631
Vwhy
p632
aF104.99
aF105.18
aa(lp633
Vnot
p634
aF105.18
aF105.45
aa(lp635
Vthat
p636
aF105.45
aF105.54
aa(lp637
Vwe
p638
aF105.54
aF105.66
aa(lp639
Vhave
p640
aF105.66
aF105.8
aa(lp641
Vanother
p642
aF105.8
aF106.08
aa(lp643
Vcountry
p644
aF106.08
aF106.55
aasVconfidence
p645
F0.724
sVtranscript
p646
Vthe prime is gonna get somewhere quick why not that we have another country 
p647
sasVfinal
p648
I01
sa(dp649
Valternatives
p650
(lp651
(dp652
Vtimestamps
p653
(lp654
(lp655
Vyou
p656
aF107.44
aF107.56
aa(lp657
Vknow
p658
aF107.56
aF107.77
aa(lp659
V%HESITATION
p660
aF107.96
aF108.22
aa(lp661
VMister
p662
aF108.22
aF108.51
aa(lp663
Vbrown
p664
aF108.51
aF108.81
aa(lp665
Vwe
p666
aF108.81
aF108.93
aa(lp667
Vprobably
p668
aF108.93
aF109.19
aa(lp669
Vhad
p670
aF109.19
aF109.3
aa(lp671
Vsomething
p672
aF109.3
aF109.57
aa(lp673
Vvery
p674
aF109.57
aF109.92
aa(lp675
Vurgent
p676
aF110.18
aF110.57
aa(lp677
Vto
p678
aF110.57
aF110.65
aa(lp679
Vget
p680
aF110.65
aF110.83
aa(lp681
Vto
p682
aF110.86
aF111.02
aa(lp683
Vwalk
p684
aF111.02
aF111.22
aa(lp685
Vwalk
p686
aF111.22
aF111.46
aa(lp687
Vcome
p688
aF111.46
aF111.74
aa(lp689
Vlike
p690
aF111.77
aF112.05
aasVconfidence
p691
F0.724
sVtranscript
p692
Vyou know %HESITATION Mister brown we probably had something very urgent to get to walk walk come like 
p693
sasVfinal
p694
I01
sa(dp695
Valternatives
p696
(lp697
(dp698
Vtimestamps
p699
(lp700
(lp701
Vjump
p702
aF112.57
aF112.83
aa(lp703
Vthe
p704
aF112.83
aF112.91
aa(lp705
Vqueue
p706
aF112.91
aF113.18
aa(lp707
Vnot
p708
aF113.66
aF113.94
aa(lp709
Veveryone
p710
aF113.94
aF114.3
aa(lp711
Vhas
p712
aF114.3
aF114.42
aa(lp713
Vto
p714
aF114.42
aF114.54
aa(lp715
Vgo
p716
aF114.54
aF114.64
aa(lp717
Vthrough
p718
aF114.64
aF114.87
aa(lp719
g26
aF115.14
aF115.19
aa(lp720
Vpilot
p721
aF115.19
aF115.58
aa(lp722
Vin
p723
aF115.62
aF115.73
aa(lp724
Van
p725
aF115.73
aF115.95
aasVconfidence
p726
F0.583
sVtranscript
p727
Vjump the queue not everyone has to go through a pilot in an 
p728
sasVfinal
p729
I01
sa(dp730
Valternatives
p731
(lp732
(dp733
Vtimestamps
p734
(lp735
(lp736
Vthat
p737
aF117.27
aF117.47
aa(lp738
Vwill
p739
aF117.59
aF117.83
aa(lp740
Vbe
p741
aF118.06
aF118.13
aa(lp742
Vone
p743
aF118.13
aF118.36
aa(lp744
Vof
p745
aF119.07
aF119.15
aa(lp746
Vthe
p747
aF119.15
aF119.27
aa(lp748
Vfinest
p749
aF119.31
aF119.69
aa(lp750
Vhere
p751
aF120.28
aF120.42
aa(lp752
Vtoday
p753
aF120.42
aF120.68
aa(lp754
V%HESITATION
p755
aF120.85
aF121.11
aa(lp756
Veven
p757
aF121.14
aF121.38
aasVconfidence
p758
F0.644
sVtranscript
p759
Vthat will be one of the finest here today %HESITATION even 
p760
sasVfinal
p761
I01
sa(dp762
Valternatives
p763
(lp764
(dp765
Vtimestamps
p766
(lp767
(lp768
g32
aF124.19
aF124.25
aa(lp769
Vdo
p770
aF124.25
aF124.42
aa(lp771
Vthink
p772
aF124.42
aF124.59
aa(lp773
Vit's
p774
aF124.59
aF124.68
aa(lp775
g26
aF124.68
aF124.74
aa(lp776
Vbit
p777
aF124.74
aF124.86
aa(lp778
Vridiculous
p779
aF124.86
aF125.34
aa(lp780
Vthat
p781
aF125.34
aF125.45
aa(lp782
Vhe
p783
aF125.45
aF125.51
aa(lp784
Vmay
p785
aF125.51
aF125.69
aa(lp786
Vhave
p787
aF125.69
aF125.85
aa(lp788
Vto
p789
aF125.85
aF125.97
aa(lp790
Vstand
p791
aF125.97
aF126.31
aa(lp792
Vdown
p793
aF126.31
aF126.67
aasVconfidence
p794
F0.806
sVtranscript
p795
VI do think it's a bit ridiculous that he may have to stand down 
p796
sasVfinal
p797
I01
sa(dp798
Valternatives
p799
(lp800
(dp801
Vtimestamps
p802
(lp803
(lp804
Vbut
p805
aF127.23
aF127.45
aa(lp806
Vit's
p807
aF127.76
aF128.21
aa(lp808
Vsort
p809
aF128.24
aF128.47
aa(lp810
Vof
p811
aF128.47
aF128.55
aa(lp812
Vbreaking
p813
aF128.55
aF128.94
aa(lp814
g26
aF128.94
aF129.0
aa(lp815
Vfew
p816
aF129.0
aF129.37
aa(lp817
Vboys
p818
aF129.52
aF130.03
aa(lp819
Vthat
p820
aF130.43
aF130.56
aa(lp821
Vhe
p822
aF130.56
aF130.66
aa(lp823
Vshould
p824
aF130.66
aF130.96
aa(lp825
Vnot
p826
aF131.06
aF131.29
aa(lp827
Vbe
p828
aF131.29
aF131.43
aa(lp829
Vdoing
p830
aF131.43
aF131.71
aa(lp831
Vany
p832
aF131.96
aF132.2
aa(lp833
Vconcern
p834
aF132.2
aF132.85
aa(lp835
Vthat
p836
aF132.85
aF133.05
aa(lp837
Vthe
p838
aF133.05
aF133.17
aa(lp839
Vgovernment's
p840
aF133.17
aF133.68
aa(lp841
Vwalking
p842
aF133.68
aF134.1
aa(lp843
Vand
p844
aF134.1
aF134.3
aa(lp845
Vcycling
p846
aF134.3
aF134.81
aa(lp847
Vpolicy
p848
aF134.81
aF135.48
aa(lp849
Vhas
p850
aF135.74
aF135.92
aa(lp851
Vnow
p852
aF135.92
aF136.08
aa(lp853
Vbeen
p854
aF136.08
aF136.25
aa(lp855
Vextended
p856
aF136.25
aF136.79
aa(lp857
Vto
p858
aF136.79
aF136.95
aa(lp859
Vinclude
p860
aF136.95
aF137.43
aa(lp861
Vthe
p862
aF137.43
aF137.5
aa(lp863
Vminister
p864
aF137.5
aF137.85
aa(lp865
Vof
p866
aF137.85
aF137.93
aa(lp867
Vtransport
p868
aF137.93
aF138.47
aa(lp869
Vhimself
p870
aF138.47
aF138.95
aa(lp871
Vundertaking
p872
aF138.95
aF139.69
aa(lp873
g26
aF139.73
aF139.86
aa(lp874
Vpilot
p875
aF139.86
aF140.45
aa(lp876
Vproject
p877
aF140.52
aF141.08
aa(lp878
Vinto
p879
aF141.37
aF141.68
aa(lp880
Vrunning
p881
aF141.68
aF142.19
aa(lp882
Vwhich
p883
aF142.75
aF142.94
aa(lp884
Vshe
p885
aF142.94
aF143.08
aa(lp886
Vlaunched
p887
aF143.08
aF143.5
aa(lp888
g26
aF143.5
aF143.54
aa(lp889
Vquestion
p890
aF143.54
aF144.04
aa(lp891
Vshe
p892
aF144.04
aF144.23
aa(lp893
Vpours
p894
aF144.23
aF144.65
aasVconfidence
p895
F0.7
sVtranscript
p896
Vbut it's sort of breaking a few boys that he should not be doing any concern that the government's walking and cycling policy has now been extended to include the minister of transport himself undertaking a pilot project into running which she launched a question she pours 
p897
sasVfinal
p898
I01
sa(dp899
Valternatives
p900
(lp901
(dp902
Vtimestamps
p903
(lp904
(lp905
VJerry
p906
aF148.15
aF148.54
aa(lp907
VBrown
p908
aF148.54
aF148.83
aa(lp909
Vwe
p910
aF148.83
aF148.97
aa(lp911
V%HESITATION
p912
aF149.3
aF149.61
aa(lp913
Vwould
p914
aF149.61
aF149.79
aa(lp915
Vrecommend
p916
aF149.82
aF150.3
aa(lp917
Vto
p918
aF150.3
aF150.47
aa(lp919
Vanybody
p920
aF150.47
aF150.94
aa(lp921
Vthe
p922
aF150.94
aF151.08
aa(lp923
Vopportunities
p924
aF151.08
aF151.72
aa(lp925
Vto
p926
aF151.72
aF151.95
aa(lp927
Vother
p928
aF151.95
aF152.23
aa(lp929
Vrun
p930
aF152.23
aF152.63
aa(lp931
Vcycle
p932
aF152.7
aF153.31
aa(lp933
Vwill
p934
aF153.31
aF153.54
aa(lp935
V%HESITATION
p936
aF154.02
aF154.38
aa(lp937
Vfor
p938
aF154.41
aF154.59
aa(lp939
Vits
p940
aF154.59
aF154.73
aa(lp941
Vhealth
p942
aF154.73
aF154.98
aa(lp943
Vbenefits
p944
aF155.01
aF155.47
aa(lp945
Vbut
p946
aF155.47
aF155.68
aa(lp947
Vfrankly
p948
aF155.71
aF156.07
aa(lp949
Vnot
p950
aF156.07
aF156.26
aa(lp951
Vfor
p952
aF156.31
aF156.51
aa(lp953
Vits
p954
aF156.51
aF156.64
aa(lp955
Vpolitical
p956
aF156.64
aF157.06
aa(lp957
Vbenefits
p958
aF157.06
aF157.62
aa(lp959
Vfor
p960
aF160.93
aF161.11
aa(lp961
Vdoing
p962
aF161.11
aF161.45
aa(lp963
Vthe
p964
aF161.56
aF161.66
aa(lp965
Vhonorable
p966
aF161.66
aF162.01
aa(lp967
Vthing
p968
aF162.38
aF162.54
aa(lp969
Vplease
p970
aF162.54
aF162.97
aa(lp971
V%HESITATION
p972
aF162.97
aF163.23
aa(lp973
Vunification
p974
aF163.34
aF163.97
aa(lp975
Vhas
p976
aF163.97
aF164.24
aa(lp977
g26
aF164.24
aF164.3
aa(lp978
Vtitle
p979
aF164.3
aF164.62
aa(lp980
Vtwo
p981
aF164.62
aF164.8
aa(lp982
Vdocuments
p983
aF164.8
aF165.42
aa(lp984
Vone
p985
aF165.88
aF166.24
aa(lp986
Vis
p987
aF166.24
aF166.64
aa(lp988
V%HESITATION
p989
aF166.67
aF167.07
aa(lp990
Vhave
p991
aF167.36
aF167.57
aa(lp992
Ventitled
p993
aF167.57
aF168.18
aa(lp994
Vhell
p995
aF168.18
aF168.37
aa(lp996
Vto
p997
aF168.37
aF168.49
aa(lp998
Vgo
p999
aF168.49
aF168.67
aa(lp1000
Vthrough
p1001
aF168.67
aF168.99
aa(lp1002
g26
aF168.99
aF169.2
aa(lp1003
Vport
p1004
aF169.2
aF169.5
aa(lp1005
Vsecurity
p1006
aF169.5
aF170.11
aa(lp1007
Vsmoothly
p1008
aF170.11
aF170.79
aa(lp1009
Vby
p1010
aF171.15
aF171.38
aa(lp1011
Vpublication
p1012
aF171.38
aF172.19
aa(lp1013
Vquarter
p1014
aF172.22
aF172.66
aa(lp1015
Vdocuments
p1016
aF173.3
aF173.81
aa(lp1017
Vand
p1018
aF173.85
aF174.01
aa(lp1019
Vthe
p1020
aF174.01
aF174.08
aa(lp1021
Vsecond
p1022
aF174.08
aF174.44
aa(lp1023
Vdocument
p1024
aF174.44
aF174.86
aa(lp1025
Vis
p1026
aF175.68
aF175.99
aa(lp1027
Ventitled
p1028
aF176.13
aF176.92
aa(lp1029
Vthe
p1030
aF176.92
aF177.07
aa(lp1031
Vidiots
p1032
aF177.1
aF177.53
aa(lp1033
Vguide
p1034
aF177.53
aF177.89
aa(lp1035
Vto
p1036
aF177.89
aF178.06
aa(lp1037
Vdeport
p1038
aF178.1
aF178.6
aa(lp1039
Vspot
p1040
aF178.6
aF178.99
aa(lp1041
Vpublication
p1042
aF178.99
aF179.66
aa(lp1043
Vof
p1044
aF179.66
aF179.73
aa(lp1045
VVictoria
p1046
aF179.73
aF180.29
aa(lp1047
VBC
p1048
aF180.29
aF180.7
aa(lp1049
Vdocuments
p1050
aF182.67
aF183.1
aa(lp1051
Vobtained
p1052
aF183.1
aF183.41
aa(lp1053
Vdescribe
p1054
aF183.41
aF184.04
aa(lp1055
Vits
p1056
aF184.55
aF184.78
aa(lp1057
Vthere's
p1058
aF184.78
aF185.16
aa(lp1059
g32
aF185.16
aF185.39
aa(lp1060
Vbelieve
p1061
aF186.28
aF186.71
aa(lp1062
Vtitleist
p1063
aF186.88
aF187.51
aa(lp1064
Vto
p1065
aF187.51
aF187.6
aa(lp1066
Vdocument
p1067
aF187.6
aF188.03
aa(lp1068
Vthe
p1069
aF188.03
aF188.13
aa(lp1070
Vsize
p1071
aF188.13
aF188.44
aa(lp1072
Vof
p1073
aF188.44
aF188.53
aa(lp1074
Vthe
p1075
aF188.53
aF188.61
aa(lp1076
Vhouse
p1077
aF188.61
aF188.9
aa(lp1078
Vleaders
p1079
aF189.29
aF189.63
aa(lp1080
Vsort
p1081
aF189.63
aF189.89
aa(lp1082
Vis
p1083
aF189.89
aF190.0
aa(lp1084
Vthere
p1085
aF190.0
aF190.1
aa(lp1086
Vany
p1087
aF190.1
aF190.23
aa(lp1088
Vobjection
p1089
aF190.23
aF190.77
aasVconfidence
p1090
F0.663
sVtranscript
p1091
VJerry Brown we %HESITATION would recommend to anybody the opportunities to other run cycle will %HESITATION for its health benefits but frankly not for its political benefits for doing the honorable thing please %HESITATION unification has a title two documents one is %HESITATION have entitled hell to go through a port security smoothly by publication quarter documents and the second document is entitled the idiots guide to deport spot publication of Victoria BC documents obtained describe its there's I believe titleist to document the size of the house leaders sort is there any objection 
p1092
sasVfinal
p1093
I01
sa(dp1094
Valternatives
p1095
(lp1096
(dp1097
Vtimestamps
p1098
(lp1099
(lp1100
g32
aF191.44
aF191.55
aa(lp1101
Vwill
p1102
aF191.55
aF191.73
aa(lp1103
Vbe
p1104
aF191.73
aF191.84
aa(lp1105
Vtabled
p1106
aF191.84
aF192.28
aasVconfidence
p1107
F0.672
sVtranscript
p1108
VI will be tabled 
p1109
sasVfinal
p1110
I01
sa(dp1111
Valternatives
p1112
(lp1113
(dp1114
Vtimestamps
p1115
(lp1116
(lp1117
Vdoes
p1118
aF195.13
aF195.37
aa(lp1119
Vthe
p1120
aF195.37
aF195.5
aa(lp1121
Vminister
p1122
aF195.5
aF195.99
aa(lp1123
Vagree
p1124
aF196.05
aF196.8
aa(lp1125
Vthat
p1126
aF196.85
aF197.16
aa(lp1127
Vbig
p1128
aF197.19
aF197.57
aa(lp1129
Vpenalties
p1130
aF197.61
aF198.46
aa(lp1131
V%HESITATION
p1132
aF198.49
aF198.71
aa(lp1133
Vneeded
p1134
aF198.71
aF199.29
aasVconfidence
p1135
F0.922
sVtranscript
p1136
Vdoes the minister agree that big penalties %HESITATION needed 
p1137
sasVfinal
p1138
I01
sa(dp1139
Valternatives
p1140
(lp1141
(dp1142
Vtimestamps
p1143
(lp1144
(lp1145
Vto
p1146
aF199.81
aF199.99
aa(lp1147
Vensure
p1148
aF199.99
aF200.63
aa(lp1149
Vpublic
p1150
aF200.75
aF201.19
aa(lp1151
Vcompliance
p1152
aF201.22
aF202.06
aa(lp1153
Vwith
p1154
aF202.06
aF202.32
aa(lp1155
Vhere
p1156
aF202.36
aF202.61
aa(lp1157
Vpull
p1158
aF202.61
aF202.92
aa(lp1159
Vsecurity
p1160
aF202.95
aF203.61
aa(lp1161
Vrequirements
p1162
aF203.61
aF204.41
aasVconfidence
p1163
F0.83
sVtranscript
p1164
Vto ensure public compliance with here pull security requirements 
p1165
sasVfinal
p1166
I01
sa(dp1167
Valternatives
p1168
(lp1169
(dp1170
Vtimestamps
p1171
(lp1172
(lp1173
Vall
p1174
aF207.03
aF207.27
aa(lp1175
Vright
p1176
aF208.08
aF208.24
aa(lp1177
V%HESITATION
p1178
aF208.41
aF208.76
aa(lp1179
Vlike
p1180
aF208.76
aF208.91
aa(lp1181
Van
p1182
aF208.91
aF209.01
aa(lp1183
VID
p1184
aF209.01
aF209.19
aa(lp1185
Vsay
p1186
aF209.19
aF209.45
aa(lp1187
Vthat
p1188
aF209.45
aF209.72
aa(lp1189
V%HESITATION
p1190
aF209.72
aF210.04
aa(lp1191
V%HESITATION
p1192
aF210.43
aF210.68
aa(lp1193
g32
aF210.68
aF210.85
aa(lp1194
Vdo
p1195
aF210.85
aF211.06
aa(lp1196
Vrespect
p1197
aF211.06
aF211.67
aa(lp1198
Vthe
p1199
aF211.72
aF211.83
aa(lp1200
Vlaw
p1201
aF211.83
aF211.97
aa(lp1202
Vwas
p1203
aF211.97
aF212.32
aa(lp1204
Vwhen
p1205
aF212.37
aF212.63
aa(lp1206
Vthe
p1207
aF212.63
aF212.75
aa(lp1208
Vup
p1209
aF212.75
aF213.0
aa(lp1210
Vfront
p1211
aF213.0
aF213.24
aa(lp1212
Vabout
p1213
aF213.24
aF213.46
aa(lp1214
Vpeople
p1215
aF213.46
aF213.79
aa(lp1216
Vand
p1217
aF213.79
aF213.93
aa(lp1218
Vthey
p1219
aF213.93
aF214.05
aa(lp1220
Vshould
p1221
aF214.05
aF214.26
aa(lp1222
Vbe
p1223
aF214.26
aF214.38
aa(lp1224
Vvery
p1225
aF214.38
aF214.64
aa(lp1226
Vsorry
p1227
aF214.64
aF214.97
aa(lp1228
Vfor
p1229
aF214.97
aF215.07
aa(lp1230
Vdoing
p1231
aF215.07
aF215.29
aa(lp1232
Vsuch
p1233
aF215.29
aF215.57
aasVconfidence
p1234
F0.667
sVtranscript
p1235
Vall right %HESITATION like an ID say that %HESITATION %HESITATION I do respect the law was when the up front about people and they should be very sorry for doing such 
p1236
sasVfinal
p1237
I01
sasVresult_index
p1238
I0
sVspeaker_labels
p1239
(lp1240
(dp1241
Vto
p1242
F1.21
sVconfidence
p1243
F0.461
sVspeaker
p1244
I0
sVfrom
p1245
F0.92
sVfinal
p1246
I00
sa(dp1247
Vto
p1248
F2.58
sVconfidence
p1249
F0.505
sVspeaker
p1250
I1
sVfrom
p1251
F2.31
sVfinal
p1252
I00
sa(dp1253
Vto
p1254
F2.8
sVconfidence
p1255
F0.505
sVspeaker
p1256
I1
sVfrom
p1257
F2.58
sVfinal
p1258
I00
sa(dp1259
Vto
p1260
F2.93
sVconfidence
p1261
F0.572
sVspeaker
p1262
I1
sVfrom
p1263
F2.85
sVfinal
p1264
I00
sa(dp1265
Vto
p1266
F3.22
sVconfidence
p1267
F0.572
sVspeaker
p1268
I1
sVfrom
p1269
F2.93
sVfinal
p1270
I00
sa(dp1271
Vto
p1272
F3.7
sVconfidence
p1273
F0.532
sVspeaker
p1274
I1
sVfrom
p1275
F3.38
sVfinal
p1276
I00
sa(dp1277
Vto
p1278
F4.01
sVconfidence
p1279
F0.581
sVspeaker
p1280
I1
sVfrom
p1281
F3.84
sVfinal
p1282
I00
sa(dp1283
Vto
p1284
F4.3
sVconfidence
p1285
F0.581
sVspeaker
p1286
I1
sVfrom
p1287
F4.01
sVfinal
p1288
I00
sa(dp1289
Vto
p1290
F4.87
sVconfidence
p1291
F0.581
sVspeaker
p1292
I1
sVfrom
p1293
F4.3
sVfinal
p1294
I00
sa(dp1295
Vto
p1296
F5.98
sVconfidence
p1297
F0.363
sVspeaker
p1298
I1
sVfrom
p1299
F5.46
sVfinal
p1300
I00
sa(dp1301
Vto
p1302
F6.17
sVconfidence
p1303
F0.549
sVspeaker
p1304
I1
sVfrom
p1305
F6.01
sVfinal
p1306
I00
sa(dp1307
Vto
p1308
F6.4
sVconfidence
p1309
F0.549
sVspeaker
p1310
I1
sVfrom
p1311
F6.17
sVfinal
p1312
I00
sa(dp1313
Vto
p1314
F6.65
sVconfidence
p1315
F0.549
sVspeaker
p1316
I1
sVfrom
p1317
F6.4
sVfinal
p1318
I00
sa(dp1319
Vto
p1320
F6.9
sVconfidence
p1321
F0.549
sVspeaker
p1322
I1
sVfrom
p1323
F6.65
sVfinal
p1324
I00
sa(dp1325
Vto
p1326
F7.02
sVconfidence
p1327
F0.549
sVspeaker
p1328
I1
sVfrom
p1329
F6.9
sVfinal
p1330
I00
sa(dp1331
Vto
p1332
F7.21
sVconfidence
p1333
F0.549
sVspeaker
p1334
I1
sVfrom
p1335
F7.02
sVfinal
p1336
I00
sa(dp1337
Vto
p1338
F8.04
sVconfidence
p1339
F0.551
sVspeaker
p1340
I1
sVfrom
p1341
F7.68
sVfinal
p1342
I00
sa(dp1343
Vto
p1344
F8.27
sVconfidence
p1345
F0.551
sVspeaker
p1346
I1
sVfrom
p1347
F8.04
sVfinal
p1348
I00
sa(dp1349
Vto
p1350
F9.49
sVconfidence
p1351
F0.484
sVspeaker
p1352
I1
sVfrom
p1353
F9.22
sVfinal
p1354
I00
sa(dp1355
Vto
p1356
F9.7
sVconfidence
p1357
F0.484
sVspeaker
p1358
I1
sVfrom
p1359
F9.49
sVfinal
p1360
I00
sa(dp1361
Vto
p1362
F10.12
sVconfidence
p1363
F0.413
sVspeaker
p1364
I1
sVfrom
p1365
F9.8
sVfinal
p1366
I00
sa(dp1367
Vto
p1368
F10.43
sVconfidence
p1369
F0.413
sVspeaker
p1370
I1
sVfrom
p1371
F10.12
sVfinal
p1372
I00
sa(dp1373
Vto
p1374
F10.9
sVconfidence
p1375
F0.52
sVspeaker
p1376
I1
sVfrom
p1377
F10.67
sVfinal
p1378
I00
sa(dp1379
Vto
p1380
F11.09
sVconfidence
p1381
F0.52
sVspeaker
p1382
I1
sVfrom
p1383
F10.9
sVfinal
p1384
I00
sa(dp1385
Vto
p1386
F11.35
sVconfidence
p1387
F0.52
sVspeaker
p1388
I1
sVfrom
p1389
F11.09
sVfinal
p1390
I00
sa(dp1391
Vto
p1392
F11.72
sVconfidence
p1393
F0.43
sVspeaker
p1394
I1
sVfrom
p1395
F11.52
sVfinal
p1396
I00
sa(dp1397
Vto
p1398
F12.09
sVconfidence
p1399
F0.43
sVspeaker
p1400
I1
sVfrom
p1401
F11.72
sVfinal
p1402
I00
sa(dp1403
Vto
p1404
F12.36
sVconfidence
p1405
F0.523
sVspeaker
p1406
I1
sVfrom
p1407
F12.16
sVfinal
p1408
I00
sa(dp1409
Vto
p1410
F12.63
sVconfidence
p1411
F0.523
sVspeaker
p1412
I1
sVfrom
p1413
F12.36
sVfinal
p1414
I00
sa(dp1415
Vto
p1416
F12.86
sVconfidence
p1417
F0.475
sVspeaker
p1418
I1
sVfrom
p1419
F12.67
sVfinal
p1420
I00
sa(dp1421
Vto
p1422
F12.92
sVconfidence
p1423
F0.475
sVspeaker
p1424
I1
sVfrom
p1425
F12.86
sVfinal
p1426
I00
sa(dp1427
Vto
p1428
F13.08
sVconfidence
p1429
F0.475
sVspeaker
p1430
I1
sVfrom
p1431
F12.92
sVfinal
p1432
I00
sa(dp1433
Vto
p1434
F13.16
sVconfidence
p1435
F0.475
sVspeaker
p1436
I1
sVfrom
p1437
F13.08
sVfinal
p1438
I00
sa(dp1439
Vto
p1440
F13.51
sVconfidence
p1441
F0.475
sVspeaker
p1442
I1
sVfrom
p1443
F13.16
sVfinal
p1444
I00
sa(dp1445
Vto
p1446
F14.62
sVconfidence
p1447
F0.513
sVspeaker
p1448
I1
sVfrom
p1449
F14.35
sVfinal
p1450
I00
sa(dp1451
Vto
p1452
F14.8
sVconfidence
p1453
F0.513
sVspeaker
p1454
I1
sVfrom
p1455
F14.62
sVfinal
p1456
I00
sa(dp1457
Vto
p1458
F15.09
sVconfidence
p1459
F0.513
sVspeaker
p1460
I1
sVfrom
p1461
F14.8
sVfinal
p1462
I00
sa(dp1463
Vto
p1464
F15.48
sVconfidence
p1465
F0.513
sVspeaker
p1466
I1
sVfrom
p1467
F15.09
sVfinal
p1468
I00
sa(dp1469
Vto
p1470
F17.52
sVconfidence
p1471
F0.646
sVspeaker
p1472
I1
sVfrom
p1473
F17.2
sVfinal
p1474
I00
sa(dp1475
Vto
p1476
F17.87
sVconfidence
p1477
F0.646
sVspeaker
p1478
I1
sVfrom
p1479
F17.52
sVfinal
p1480
I00
sa(dp1481
Vto
p1482
F17.95
sVconfidence
p1483
F0.646
sVspeaker
p1484
I1
sVfrom
p1485
F17.87
sVfinal
p1486
I00
sa(dp1487
Vto
p1488
F18.07
sVconfidence
p1489
F0.646
sVspeaker
p1490
I1
sVfrom
p1491
F17.95
sVfinal
p1492
I00
sa(dp1493
Vto
p1494
F18.35
sVconfidence
p1495
F0.646
sVspeaker
p1496
I1
sVfrom
p1497
F18.07
sVfinal
p1498
I00
sa(dp1499
Vto
p1500
F19.08
sVconfidence
p1501
F0.596
sVspeaker
p1502
I1
sVfrom
p1503
F18.63
sVfinal
p1504
I00
sa(dp1505
Vto
p1506
F19.75
sVconfidence
p1507
F0.603
sVspeaker
p1508
I1
sVfrom
p1509
F19.64
sVfinal
p1510
I00
sa(dp1511
Vto
p1512
F20.09
sVconfidence
p1513
F0.603
sVspeaker
p1514
I1
sVfrom
p1515
F19.75
sVfinal
p1516
I00
sa(dp1517
Vto
p1518
F21.41
sVconfidence
p1519
F0.364
sVspeaker
p1520
I1
sVfrom
p1521
F21.19
sVfinal
p1522
I00
sa(dp1523
Vto
p1524
F22.21
sVconfidence
p1525
F0.57
sVspeaker
p1526
I1
sVfrom
p1527
F21.96
sVfinal
p1528
I00
sa(dp1529
Vto
p1530
F22.72
sVconfidence
p1531
F0.642
sVspeaker
p1532
I1
sVfrom
p1533
F22.39
sVfinal
p1534
I00
sa(dp1535
Vto
p1536
F22.86
sVconfidence
p1537
F0.642
sVspeaker
p1538
I1
sVfrom
p1539
F22.72
sVfinal
p1540
I00
sa(dp1541
Vto
p1542
F23.14
sVconfidence
p1543
F0.642
sVspeaker
p1544
I1
sVfrom
p1545
F22.86
sVfinal
p1546
I00
sa(dp1547
Vto
p1548
F23.41
sVconfidence
p1549
F0.642
sVspeaker
p1550
I1
sVfrom
p1551
F23.14
sVfinal
p1552
I00
sa(dp1553
Vto
p1554
F23.64
sVconfidence
p1555
F0.642
sVspeaker
p1556
I1
sVfrom
p1557
F23.41
sVfinal
p1558
I00
sa(dp1559
Vto
p1560
F24.04
sVconfidence
p1561
F0.642
sVspeaker
p1562
I1
sVfrom
p1563
F23.64
sVfinal
p1564
I00
sa(dp1565
Vto
p1566
F24.44
sVconfidence
p1567
F0.642
sVspeaker
p1568
I1
sVfrom
p1569
F24.04
sVfinal
p1570
I00
sa(dp1571
Vto
p1572
F24.56
sVconfidence
p1573
F0.642
sVspeaker
p1574
I1
sVfrom
p1575
F24.44
sVfinal
p1576
I00
sa(dp1577
Vto
p1578
F24.75
sVconfidence
p1579
F0.572
sVspeaker
p1580
I1
sVfrom
p1581
F24.61
sVfinal
p1582
I00
sa(dp1583
Vto
p1584
F24.93
sVconfidence
p1585
F0.572
sVspeaker
p1586
I1
sVfrom
p1587
F24.75
sVfinal
p1588
I00
sa(dp1589
Vto
p1590
F25.64
sVconfidence
p1591
F0.635
sVspeaker
p1592
I1
sVfrom
p1593
F25.4
sVfinal
p1594
I00
sa(dp1595
Vto
p1596
F25.95
sVconfidence
p1597
F0.635
sVspeaker
p1598
I1
sVfrom
p1599
F25.64
sVfinal
p1600
I00
sa(dp1601
Vto
p1602
F26.07
sVconfidence
p1603
F0.635
sVspeaker
p1604
I1
sVfrom
p1605
F25.95
sVfinal
p1606
I00
sa(dp1607
Vto
p1608
F26.34
sVconfidence
p1609
F0.635
sVspeaker
p1610
I1
sVfrom
p1611
F26.07
sVfinal
p1612
I00
sa(dp1613
Vto
p1614
F27.08
sVconfidence
p1615
F0.644
sVspeaker
p1616
I1
sVfrom
p1617
F26.83
sVfinal
p1618
I00
sa(dp1619
Vto
p1620
F27.14
sVconfidence
p1621
F0.644
sVspeaker
p1622
I1
sVfrom
p1623
F27.08
sVfinal
p1624
I00
sa(dp1625
Vto
p1626
F27.52
sVconfidence
p1627
F0.644
sVspeaker
p1628
I1
sVfrom
p1629
F27.14
sVfinal
p1630
I00
sa(dp1631
Vto
p1632
F27.77
sVconfidence
p1633
F0.644
sVspeaker
p1634
I1
sVfrom
p1635
F27.52
sVfinal
p1636
I00
sa(dp1637
Vto
p1638
F28.09
sVconfidence
p1639
F0.644
sVspeaker
p1640
I1
sVfrom
p1641
F27.77
sVfinal
p1642
I00
sa(dp1643
Vto
p1644
F28.25
sVconfidence
p1645
F0.644
sVspeaker
p1646
I1
sVfrom
p1647
F28.09
sVfinal
p1648
I00
sa(dp1649
Vto
p1650
F28.53
sVconfidence
p1651
F0.644
sVspeaker
p1652
I1
sVfrom
p1653
F28.25
sVfinal
p1654
I00
sa(dp1655
Vto
p1656
F28.61
sVconfidence
p1657
F0.644
sVspeaker
p1658
I1
sVfrom
p1659
F28.53
sVfinal
p1660
I00
sa(dp1661
Vto
p1662
F28.75
sVconfidence
p1663
F0.644
sVspeaker
p1664
I1
sVfrom
p1665
F28.61
sVfinal
p1666
I00
sa(dp1667
Vto
p1668
F28.93
sVconfidence
p1669
F0.644
sVspeaker
p1670
I1
sVfrom
p1671
F28.75
sVfinal
p1672
I00
sa(dp1673
Vto
p1674
F29.58
sVconfidence
p1675
F0.649
sVspeaker
p1676
I0
sVfrom
p1677
F29.45
sVfinal
p1678
I00
sa(dp1679
Vto
p1680
F29.74
sVconfidence
p1681
F0.649
sVspeaker
p1682
I0
sVfrom
p1683
F29.58
sVfinal
p1684
I00
sa(dp1685
Vto
p1686
F29.81
sVconfidence
p1687
F0.649
sVspeaker
p1688
I0
sVfrom
p1689
F29.74
sVfinal
p1690
I00
sa(dp1691
Vto
p1692
F29.97
sVconfidence
p1693
F0.649
sVspeaker
p1694
I0
sVfrom
p1695
F29.81
sVfinal
p1696
I00
sa(dp1697
Vto
p1698
F30.17
sVconfidence
p1699
F0.649
sVspeaker
p1700
I0
sVfrom
p1701
F29.97
sVfinal
p1702
I00
sa(dp1703
Vto
p1704
F30.4
sVconfidence
p1705
F0.649
sVspeaker
p1706
I0
sVfrom
p1707
F30.17
sVfinal
p1708
I00
sa(dp1709
Vto
p1710
F30.99
sVconfidence
p1711
F0.655
sVspeaker
p1712
I0
sVfrom
p1713
F30.69
sVfinal
p1714
I00
sa(dp1715
Vto
p1716
F31.26
sVconfidence
p1717
F0.655
sVspeaker
p1718
I0
sVfrom
p1719
F30.99
sVfinal
p1720
I00
sa(dp1721
Vto
p1722
F31.36
sVconfidence
p1723
F0.655
sVspeaker
p1724
I0
sVfrom
p1725
F31.26
sVfinal
p1726
I00
sa(dp1727
Vto
p1728
F31.64
sVconfidence
p1729
F0.655
sVspeaker
p1730
I0
sVfrom
p1731
F31.36
sVfinal
p1732
I00
sa(dp1733
Vto
p1734
F32.43
sVconfidence
p1735
F0.598
sVspeaker
p1736
I0
sVfrom
p1737
F32.02
sVfinal
p1738
I00
sa(dp1739
Vto
p1740
F32.83
sVconfidence
p1741
F0.651
sVspeaker
p1742
I0
sVfrom
p1743
F32.51
sVfinal
p1744
I00
sa(dp1745
Vto
p1746
F32.97
sVconfidence
p1747
F0.651
sVspeaker
p1748
I0
sVfrom
p1749
F32.83
sVfinal
p1750
I00
sa(dp1751
Vto
p1752
F33.23
sVconfidence
p1753
F0.651
sVspeaker
p1754
I0
sVfrom
p1755
F32.97
sVfinal
p1756
I00
sa(dp1757
Vto
p1758
F33.44
sVconfidence
p1759
F0.597
sVspeaker
p1760
I0
sVfrom
p1761
F33.27
sVfinal
p1762
I00
sa(dp1763
Vto
p1764
F33.79
sVconfidence
p1765
F0.597
sVspeaker
p1766
I0
sVfrom
p1767
F33.44
sVfinal
p1768
I00
sa(dp1769
Vto
p1770
F35.02
sVconfidence
p1771
F0.636
sVspeaker
p1772
I0
sVfrom
p1773
F33.99
sVfinal
p1774
I00
sa(dp1775
Vto
p1776
F35.8
sVconfidence
p1777
F0.631
sVspeaker
p1778
I0
sVfrom
p1779
F35.07
sVfinal
p1780
I00
sa(dp1781
Vto
p1782
F36.49
sVconfidence
p1783
F0.623
sVspeaker
p1784
I0
sVfrom
p1785
F36.12
sVfinal
p1786
I00
sa(dp1787
Vto
p1788
F37.34
sVconfidence
p1789
F0.61
sVspeaker
p1790
I0
sVfrom
p1791
F36.58
sVfinal
p1792
I00
sa(dp1793
Vto
p1794
F37.58
sVconfidence
p1795
F0.536
sVspeaker
p1796
I0
sVfrom
p1797
F37.37
sVfinal
p1798
I00
sa(dp1799
Vto
p1800
F39.38
sVconfidence
p1801
F0.596
sVspeaker
p1802
I0
sVfrom
p1803
F39.0
sVfinal
p1804
I00
sa(dp1805
Vto
p1806
F39.45
sVconfidence
p1807
F0.596
sVspeaker
p1808
I0
sVfrom
p1809
F39.38
sVfinal
p1810
I00
sa(dp1811
Vto
p1812
F39.91
sVconfidence
p1813
F0.596
sVspeaker
p1814
I0
sVfrom
p1815
F39.45
sVfinal
p1816
I00
sa(dp1817
Vto
p1818
F40.13
sVconfidence
p1819
F0.596
sVspeaker
p1820
I0
sVfrom
p1821
F39.91
sVfinal
p1822
I00
sa(dp1823
Vto
p1824
F40.47
sVconfidence
p1825
F0.61
sVspeaker
p1826
I0
sVfrom
p1827
F40.19
sVfinal
p1828
I00
sa(dp1829
Vto
p1830
F40.71
sVconfidence
p1831
F0.645
sVspeaker
p1832
I0
sVfrom
p1833
F40.59
sVfinal
p1834
I00
sa(dp1835
Vto
p1836
F40.85
sVconfidence
p1837
F0.645
sVspeaker
p1838
I0
sVfrom
p1839
F40.71
sVfinal
p1840
I00
sa(dp1841
Vto
p1842
F41.12
sVconfidence
p1843
F0.645
sVspeaker
p1844
I0
sVfrom
p1845
F40.85
sVfinal
p1846
I00
sa(dp1847
Vto
p1848
F41.26
sVconfidence
p1849
F0.655
sVspeaker
p1850
I0
sVfrom
p1851
F41.15
sVfinal
p1852
I00
sa(dp1853
Vto
p1854
F41.42
sVconfidence
p1855
F0.655
sVspeaker
p1856
I0
sVfrom
p1857
F41.26
sVfinal
p1858
I00
sa(dp1859
Vto
p1860
F41.65
sVconfidence
p1861
F0.655
sVspeaker
p1862
I0
sVfrom
p1863
F41.42
sVfinal
p1864
I00
sa(dp1865
Vto
p1866
F42.16
sVconfidence
p1867
F0.613
sVspeaker
p1868
I0
sVfrom
p1869
F41.91
sVfinal
p1870
I00
sa(dp1871
Vto
p1872
F42.58
sVconfidence
p1873
F0.613
sVspeaker
p1874
I0
sVfrom
p1875
F42.16
sVfinal
p1876
I00
sa(dp1877
Vto
p1878
F42.74
sVconfidence
p1879
F0.613
sVspeaker
p1880
I0
sVfrom
p1881
F42.58
sVfinal
p1882
I00
sa(dp1883
Vto
p1884
F42.85
sVconfidence
p1885
F0.613
sVspeaker
p1886
I0
sVfrom
p1887
F42.74
sVfinal
p1888
I00
sa(dp1889
Vto
p1890
F43.34
sVconfidence
p1891
F0.641
sVspeaker
p1892
I0
sVfrom
p1893
F42.88
sVfinal
p1894
I00
sa(dp1895
Vto
p1896
F43.78
sVconfidence
p1897
F0.641
sVspeaker
p1898
I0
sVfrom
p1899
F43.34
sVfinal
p1900
I00
sa(dp1901
Vto
p1902
F44.48
sVconfidence
p1903
F0.643
sVspeaker
p1904
I0
sVfrom
p1905
F44.21
sVfinal
p1906
I00
sa(dp1907
Vto
p1908
F44.58
sVconfidence
p1909
F0.643
sVspeaker
p1910
I0
sVfrom
p1911
F44.48
sVfinal
p1912
I00
sa(dp1913
Vto
p1914
F45.15
sVconfidence
p1915
F0.643
sVspeaker
p1916
I0
sVfrom
p1917
F44.58
sVfinal
p1918
I00
sa(dp1919
Vto
p1920
F45.49
sVconfidence
p1921
F0.643
sVspeaker
p1922
I0
sVfrom
p1923
F45.15
sVfinal
p1924
I00
sa(dp1925
Vto
p1926
F46.26
sVconfidence
p1927
F0.643
sVspeaker
p1928
I0
sVfrom
p1929
F45.49
sVfinal
p1930
I00
sa(dp1931
Vto
p1932
F46.49
sVconfidence
p1933
F0.643
sVspeaker
p1934
I0
sVfrom
p1935
F46.26
sVfinal
p1936
I00
sa(dp1937
Vto
p1938
F46.99
sVconfidence
p1939
F0.579
sVspeaker
p1940
I0
sVfrom
p1941
F46.6
sVfinal
p1942
I00
sa(dp1943
Vto
p1944
F47.46
sVconfidence
p1945
F0.605
sVspeaker
p1946
I0
sVfrom
p1947
F47.35
sVfinal
p1948
I00
sa(dp1949
Vto
p1950
F47.69
sVconfidence
p1951
F0.605
sVspeaker
p1952
I0
sVfrom
p1953
F47.46
sVfinal
p1954
I00
sa(dp1955
Vto
p1956
F47.86
sVconfidence
p1957
F0.605
sVspeaker
p1958
I0
sVfrom
p1959
F47.69
sVfinal
p1960
I00
sa(dp1961
Vto
p1962
F47.95
sVconfidence
p1963
F0.605
sVspeaker
p1964
I0
sVfrom
p1965
F47.86
sVfinal
p1966
I00
sa(dp1967
Vto
p1968
F48.14
sVconfidence
p1969
F0.605
sVspeaker
p1970
I0
sVfrom
p1971
F47.95
sVfinal
p1972
I00
sa(dp1973
Vto
p1974
F48.43
sVconfidence
p1975
F0.605
sVspeaker
p1976
I0
sVfrom
p1977
F48.14
sVfinal
p1978
I00
sa(dp1979
Vto
p1980
F48.57
sVconfidence
p1981
F0.653
sVspeaker
p1982
I0
sVfrom
p1983
F48.46
sVfinal
p1984
I00
sa(dp1985
Vto
p1986
F48.64
sVconfidence
p1987
F0.653
sVspeaker
p1988
I0
sVfrom
p1989
F48.57
sVfinal
p1990
I00
sa(dp1991
Vto
p1992
F48.99
sVconfidence
p1993
F0.653
sVspeaker
p1994
I0
sVfrom
p1995
F48.64
sVfinal
p1996
I00
sa(dp1997
Vto
p1998
F49.15
sVconfidence
p1999
F0.653
sVspeaker
p2000
I0
sVfrom
p2001
F48.99
sVfinal
p2002
I00
sa(dp2003
Vto
p2004
F49.4
sVconfidence
p2005
F0.555
sVspeaker
p2006
I0
sVfrom
p2007
F49.29
sVfinal
p2008
I00
sa(dp2009
Vto
p2010
F49.58
sVconfidence
p2011
F0.555
sVspeaker
p2012
I0
sVfrom
p2013
F49.4
sVfinal
p2014
I00
sa(dp2015
Vto
p2016
F49.83
sVconfidence
p2017
F0.555
sVspeaker
p2018
I0
sVfrom
p2019
F49.58
sVfinal
p2020
I00
sa(dp2021
Vto
p2022
F50.41
sVconfidence
p2023
F0.589
sVspeaker
p2024
I0
sVfrom
p2025
F50.24
sVfinal
p2026
I00
sa(dp2027
Vto
p2028
F50.67
sVconfidence
p2029
F0.589
sVspeaker
p2030
I0
sVfrom
p2031
F50.41
sVfinal
p2032
I00
sa(dp2033
Vto
p2034
F50.91
sVconfidence
p2035
F0.637
sVspeaker
p2036
I0
sVfrom
p2037
F50.7
sVfinal
p2038
I00
sa(dp2039
Vto
p2040
F51.44
sVconfidence
p2041
F0.637
sVspeaker
p2042
I0
sVfrom
p2043
F50.91
sVfinal
p2044
I00
sa(dp2045
Vto
p2046
F51.5
sVconfidence
p2047
F0.637
sVspeaker
p2048
I0
sVfrom
p2049
F51.44
sVfinal
p2050
I00
sa(dp2051
Vto
p2052
F51.57
sVconfidence
p2053
F0.637
sVspeaker
p2054
I0
sVfrom
p2055
F51.5
sVfinal
p2056
I00
sa(dp2057
Vto
p2058
F51.89
sVconfidence
p2059
F0.637
sVspeaker
p2060
I0
sVfrom
p2061
F51.57
sVfinal
p2062
I00
sa(dp2063
Vto
p2064
F52.19
sVconfidence
p2065
F0.637
sVspeaker
p2066
I0
sVfrom
p2067
F51.89
sVfinal
p2068
I00
sa(dp2069
Vto
p2070
F52.27
sVconfidence
p2071
F0.637
sVspeaker
p2072
I0
sVfrom
p2073
F52.19
sVfinal
p2074
I00
sa(dp2075
Vto
p2076
F52.54
sVconfidence
p2077
F0.637
sVspeaker
p2078
I0
sVfrom
p2079
F52.27
sVfinal
p2080
I00
sa(dp2081
Vto
p2082
F52.67
sVconfidence
p2083
F0.637
sVspeaker
p2084
I0
sVfrom
p2085
F52.54
sVfinal
p2086
I00
sa(dp2087
Vto
p2088
F53.93
sVconfidence
p2089
F0.576
sVspeaker
p2090
I0
sVfrom
p2091
F53.66
sVfinal
p2092
I00
sa(dp2093
Vto
p2094
F54.63
sVconfidence
p2095
F0.566
sVspeaker
p2096
I0
sVfrom
p2097
F54.33
sVfinal
p2098
I00
sa(dp2099
Vto
p2100
F55.0
sVconfidence
p2101
F0.566
sVspeaker
p2102
I0
sVfrom
p2103
F54.63
sVfinal
p2104
I00
sa(dp2105
Vto
p2106
F55.26
sVconfidence
p2107
F0.566
sVspeaker
p2108
I0
sVfrom
p2109
F55.0
sVfinal
p2110
I00
sa(dp2111
Vto
p2112
F55.98
sVconfidence
p2113
F0.616
sVspeaker
p2114
I0
sVfrom
p2115
F55.74
sVfinal
p2116
I00
sa(dp2117
Vto
p2118
F56.11
sVconfidence
p2119
F0.616
sVspeaker
p2120
I0
sVfrom
p2121
F55.98
sVfinal
p2122
I00
sa(dp2123
Vto
p2124
F56.34
sVconfidence
p2125
F0.616
sVspeaker
p2126
I0
sVfrom
p2127
F56.11
sVfinal
p2128
I00
sa(dp2129
Vto
p2130
F56.53
sVconfidence
p2131
F0.588
sVspeaker
p2132
I0
sVfrom
p2133
F56.37
sVfinal
p2134
I00
sa(dp2135
Vto
p2136
F56.6
sVconfidence
p2137
F0.588
sVspeaker
p2138
I0
sVfrom
p2139
F56.53
sVfinal
p2140
I00
sa(dp2141
Vto
p2142
F57.24
sVconfidence
p2143
F0.605
sVspeaker
p2144
I0
sVfrom
p2145
F56.86
sVfinal
p2146
I00
sa(dp2147
Vto
p2148
F57.69
sVconfidence
p2149
F0.549
sVspeaker
p2150
I0
sVfrom
p2151
F57.3
sVfinal
p2152
I00
sa(dp2153
Vto
p2154
F57.98
sVconfidence
p2155
F0.585
sVspeaker
p2156
I0
sVfrom
p2157
F57.77
sVfinal
p2158
I00
sa(dp2159
Vto
p2160
F58.67
sVconfidence
p2161
F0.634
sVspeaker
p2162
I0
sVfrom
p2163
F58.46
sVfinal
p2164
I00
sa(dp2165
Vto
p2166
F58.92
sVconfidence
p2167
F0.634
sVspeaker
p2168
I0
sVfrom
p2169
F58.67
sVfinal
p2170
I00
sa(dp2171
Vto
p2172
F59.02
sVconfidence
p2173
F0.634
sVspeaker
p2174
I0
sVfrom
p2175
F58.92
sVfinal
p2176
I00
sa(dp2177
Vto
p2178
F59.47
sVconfidence
p2179
F0.634
sVspeaker
p2180
I0
sVfrom
p2181
F59.02
sVfinal
p2182
I00
sa(dp2183
Vto
p2184
F59.63
sVconfidence
p2185
F0.634
sVspeaker
p2186
I0
sVfrom
p2187
F59.47
sVfinal
p2188
I00
sa(dp2189
Vto
p2190
F60.25
sVconfidence
p2191
F0.637
sVspeaker
p2192
I0
sVfrom
p2193
F59.81
sVfinal
p2194
I00
sa(dp2195
Vto
p2196
F60.71
sVconfidence
p2197
F0.637
sVspeaker
p2198
I0
sVfrom
p2199
F60.25
sVfinal
p2200
I00
sa(dp2201
Vto
p2202
F61.35
sVconfidence
p2203
F0.463
sVspeaker
p2204
I0
sVfrom
p2205
F61.0
sVfinal
p2206
I00
sa(dp2207
Vto
p2208
F61.81
sVconfidence
p2209
F0.654
sVspeaker
p2210
I0
sVfrom
p2211
F61.52
sVfinal
p2212
I00
sa(dp2213
Vto
p2214
F62.13
sVconfidence
p2215
F0.654
sVspeaker
p2216
I0
sVfrom
p2217
F61.81
sVfinal
p2218
I00
sa(dp2219
Vto
p2220
F62.41
sVconfidence
p2221
F0.654
sVspeaker
p2222
I0
sVfrom
p2223
F62.13
sVfinal
p2224
I00
sa(dp2225
Vto
p2226
F62.53
sVconfidence
p2227
F0.654
sVspeaker
p2228
I0
sVfrom
p2229
F62.41
sVfinal
p2230
I00
sa(dp2231
Vto
p2232
F63.07
sVconfidence
p2233
F0.654
sVspeaker
p2234
I0
sVfrom
p2235
F62.53
sVfinal
p2236
I00
sa(dp2237
Vto
p2238
F63.45
sVconfidence
p2239
F0.481
sVspeaker
p2240
I0
sVfrom
p2241
F63.1
sVfinal
p2242
I00
sa(dp2243
Vto
p2244
F63.76
sVconfidence
p2245
F0.63
sVspeaker
p2246
I0
sVfrom
p2247
F63.51
sVfinal
p2248
I00
sa(dp2249
Vto
p2250
F64.35
sVconfidence
p2251
F0.455
sVspeaker
p2252
I0
sVfrom
p2253
F64.08
sVfinal
p2254
I00
sa(dp2255
Vto
p2256
F64.7
sVconfidence
p2257
F0.455
sVspeaker
p2258
I0
sVfrom
p2259
F64.35
sVfinal
p2260
I00
sa(dp2261
Vto
p2262
F65.24
sVconfidence
p2263
F0.594
sVspeaker
p2264
I0
sVfrom
p2265
F65.01
sVfinal
p2266
I00
sa(dp2267
Vto
p2268
F65.37
sVconfidence
p2269
F0.594
sVspeaker
p2270
I0
sVfrom
p2271
F65.24
sVfinal
p2272
I00
sa(dp2273
Vto
p2274
F65.71
sVconfidence
p2275
F0.594
sVspeaker
p2276
I0
sVfrom
p2277
F65.37
sVfinal
p2278
I00
sa(dp2279
Vto
p2280
F66.12
sVconfidence
p2281
F0.594
sVspeaker
p2282
I0
sVfrom
p2283
F65.71
sVfinal
p2284
I00
sa(dp2285
Vto
p2286
F66.59
sVconfidence
p2287
F0.611
sVspeaker
p2288
I0
sVfrom
p2289
F66.42
sVfinal
p2290
I00
sa(dp2291
Vto
p2292
F66.82
sVconfidence
p2293
F0.611
sVspeaker
p2294
I0
sVfrom
p2295
F66.59
sVfinal
p2296
I00
sa(dp2297
Vto
p2298
F67.02
sVconfidence
p2299
F0.611
sVspeaker
p2300
I0
sVfrom
p2301
F66.82
sVfinal
p2302
I00
sa(dp2303
Vto
p2304
F67.38
sVconfidence
p2305
F0.611
sVspeaker
p2306
I0
sVfrom
p2307
F67.02
sVfinal
p2308
I00
sa(dp2309
Vto
p2310
F67.81
sVconfidence
p2311
F0.611
sVspeaker
p2312
I0
sVfrom
p2313
F67.38
sVfinal
p2314
I00
sa(dp2315
Vto
p2316
F67.98
sVconfidence
p2317
F0.657
sVspeaker
p2318
I0
sVfrom
p2319
F67.87
sVfinal
p2320
I00
sa(dp2321
Vto
p2322
F68.32
sVconfidence
p2323
F0.657
sVspeaker
p2324
I0
sVfrom
p2325
F67.98
sVfinal
p2326
I00
sa(dp2327
Vto
p2328
F68.76
sVconfidence
p2329
F0.548
sVspeaker
p2330
I0
sVfrom
p2331
F68.54
sVfinal
p2332
I00
sa(dp2333
Vto
p2334
F69.74
sVconfidence
p2335
F0.648
sVspeaker
p2336
I1
sVfrom
p2337
F69.42
sVfinal
p2338
I00
sa(dp2339
Vto
p2340
F69.87
sVconfidence
p2341
F0.648
sVspeaker
p2342
I1
sVfrom
p2343
F69.74
sVfinal
p2344
I00
sa(dp2345
Vto
p2346
F70.19
sVconfidence
p2347
F0.648
sVspeaker
p2348
I1
sVfrom
p2349
F69.87
sVfinal
p2350
I00
sa(dp2351
Vto
p2352
F70.56
sVconfidence
p2353
F0.662
sVspeaker
p2354
I1
sVfrom
p2355
F70.34
sVfinal
p2356
I00
sa(dp2357
Vto
p2358
F70.84
sVconfidence
p2359
F0.662
sVspeaker
p2360
I1
sVfrom
p2361
F70.56
sVfinal
p2362
I00
sa(dp2363
Vto
p2364
F71.3
sVconfidence
p2365
F0.587
sVspeaker
p2366
I1
sVfrom
p2367
F70.87
sVfinal
p2368
I00
sa(dp2369
Vto
p2370
F71.92
sVconfidence
p2371
F0.629
sVspeaker
p2372
I1
sVfrom
p2373
F71.59
sVfinal
p2374
I00
sa(dp2375
Vto
p2376
F72.85
sVconfidence
p2377
F0.632
sVspeaker
p2378
I1
sVfrom
p2379
F72.76
sVfinal
p2380
I00
sa(dp2381
Vto
p2382
F73.29
sVconfidence
p2383
F0.632
sVspeaker
p2384
I1
sVfrom
p2385
F72.85
sVfinal
p2386
I00
sa(dp2387
Vto
p2388
F74.58
sVconfidence
p2389
F0.662
sVspeaker
p2390
I1
sVfrom
p2391
F74.27
sVfinal
p2392
I00
sa(dp2393
Vto
p2394
F75.18
sVconfidence
p2395
F0.645
sVspeaker
p2396
I1
sVfrom
p2397
F75.03
sVfinal
p2398
I00
sa(dp2399
Vto
p2400
F75.38
sVconfidence
p2401
F0.645
sVspeaker
p2402
I1
sVfrom
p2403
F75.18
sVfinal
p2404
I00
sa(dp2405
Vto
p2406
F75.76
sVconfidence
p2407
F0.663
sVspeaker
p2408
I1
sVfrom
p2409
F75.6
sVfinal
p2410
I00
sa(dp2411
Vto
p2412
F75.91
sVconfidence
p2413
F0.663
sVspeaker
p2414
I1
sVfrom
p2415
F75.76
sVfinal
p2416
I00
sa(dp2417
Vto
p2418
F75.99
sVconfidence
p2419
F0.663
sVspeaker
p2420
I1
sVfrom
p2421
F75.91
sVfinal
p2422
I00
sa(dp2423
Vto
p2424
F76.18
sVconfidence
p2425
F0.663
sVspeaker
p2426
I1
sVfrom
p2427
F75.99
sVfinal
p2428
I00
sa(dp2429
Vto
p2430
F76.33
sVconfidence
p2431
F0.65
sVspeaker
p2432
I1
sVfrom
p2433
F76.22
sVfinal
p2434
I00
sa(dp2435
Vto
p2436
F76.63
sVconfidence
p2437
F0.65
sVspeaker
p2438
I1
sVfrom
p2439
F76.33
sVfinal
p2440
I00
sa(dp2441
Vto
p2442
F76.72
sVconfidence
p2443
F0.65
sVspeaker
p2444
I1
sVfrom
p2445
F76.63
sVfinal
p2446
I00
sa(dp2447
Vto
p2448
F78.28
sVconfidence
p2449
F0.662
sVspeaker
p2450
I1
sVfrom
p2451
F77.93
sVfinal
p2452
I00
sa(dp2453
Vto
p2454
F78.46
sVconfidence
p2455
F0.662
sVspeaker
p2456
I1
sVfrom
p2457
F78.28
sVfinal
p2458
I00
sa(dp2459
Vto
p2460
F79.19
sVconfidence
p2461
F0.638
sVspeaker
p2462
I1
sVfrom
p2463
F78.91
sVfinal
p2464
I00
sa(dp2465
Vto
p2466
F79.94
sVconfidence
p2467
F0.53
sVspeaker
p2468
I1
sVfrom
p2469
F79.82
sVfinal
p2470
I00
sa(dp2471
Vto
p2472
F80.19
sVconfidence
p2473
F0.53
sVspeaker
p2474
I1
sVfrom
p2475
F79.94
sVfinal
p2476
I00
sa(dp2477
Vto
p2478
F80.3
sVconfidence
p2479
F0.53
sVspeaker
p2480
I1
sVfrom
p2481
F80.19
sVfinal
p2482
I00
sa(dp2483
Vto
p2484
F80.73
sVconfidence
p2485
F0.53
sVspeaker
p2486
I1
sVfrom
p2487
F80.3
sVfinal
p2488
I00
sa(dp2489
Vto
p2490
F81.55
sVconfidence
p2491
F0.652
sVspeaker
p2492
I1
sVfrom
p2493
F81.24
sVfinal
p2494
I00
sa(dp2495
Vto
p2496
F81.71
sVconfidence
p2497
F0.652
sVspeaker
p2498
I1
sVfrom
p2499
F81.55
sVfinal
p2500
I00
sa(dp2501
Vto
p2502
F81.98
sVconfidence
p2503
F0.652
sVspeaker
p2504
I1
sVfrom
p2505
F81.71
sVfinal
p2506
I00
sa(dp2507
Vto
p2508
F82.18
sVconfidence
p2509
F0.652
sVspeaker
p2510
I1
sVfrom
p2511
F81.98
sVfinal
p2512
I00
sa(dp2513
Vto
p2514
F82.27
sVconfidence
p2515
F0.652
sVspeaker
p2516
I1
sVfrom
p2517
F82.18
sVfinal
p2518
I00
sa(dp2519
Vto
p2520
F82.35
sVconfidence
p2521
F0.652
sVspeaker
p2522
I1
sVfrom
p2523
F82.27
sVfinal
p2524
I00
sa(dp2525
Vto
p2526
F82.71
sVconfidence
p2527
F0.652
sVspeaker
p2528
I1
sVfrom
p2529
F82.35
sVfinal
p2530
I00
sa(dp2531
Vto
p2532
F83.23
sVconfidence
p2533
F0.648
sVspeaker
p2534
I1
sVfrom
p2535
F82.77
sVfinal
p2536
I00
sa(dp2537
Vto
p2538
F83.59
sVconfidence
p2539
F0.601
sVspeaker
p2540
I1
sVfrom
p2541
F83.47
sVfinal
p2542
I00
sa(dp2543
Vto
p2544
F83.84
sVconfidence
p2545
F0.601
sVspeaker
p2546
I1
sVfrom
p2547
F83.59
sVfinal
p2548
I00
sa(dp2549
Vto
p2550
F84.36
sVconfidence
p2551
F0.646
sVspeaker
p2552
I1
sVfrom
p2553
F84.04
sVfinal
p2554
I00
sa(dp2555
Vto
p2556
F84.56
sVconfidence
p2557
F0.646
sVspeaker
p2558
I1
sVfrom
p2559
F84.36
sVfinal
p2560
I00
sa(dp2561
Vto
p2562
F84.71
sVconfidence
p2563
F0.65
sVspeaker
p2564
I1
sVfrom
p2565
F84.6
sVfinal
p2566
I00
sa(dp2567
Vto
p2568
F84.79
sVconfidence
p2569
F0.65
sVspeaker
p2570
I1
sVfrom
p2571
F84.71
sVfinal
p2572
I00
sa(dp2573
Vto
p2574
F85.16
sVconfidence
p2575
F0.65
sVspeaker
p2576
I1
sVfrom
p2577
F84.79
sVfinal
p2578
I00
sa(dp2579
Vto
p2580
F85.61
sVconfidence
p2581
F0.648
sVspeaker
p2582
I1
sVfrom
p2583
F85.21
sVfinal
p2584
I00
sa(dp2585
Vto
p2586
F86.52
sVconfidence
p2587
F0.626
sVspeaker
p2588
I1
sVfrom
p2589
F86.24
sVfinal
p2590
I00
sa(dp2591
Vto
p2592
F86.63
sVconfidence
p2593
F0.626
sVspeaker
p2594
I1
sVfrom
p2595
F86.52
sVfinal
p2596
I00
sa(dp2597
Vto
p2598
F86.93
sVconfidence
p2599
F0.647
sVspeaker
p2600
I1
sVfrom
p2601
F86.77
sVfinal
p2602
I00
sa(dp2603
Vto
p2604
F87.02
sVconfidence
p2605
F0.647
sVspeaker
p2606
I1
sVfrom
p2607
F86.93
sVfinal
p2608
I00
sa(dp2609
Vto
p2610
F87.2
sVconfidence
p2611
F0.647
sVspeaker
p2612
I1
sVfrom
p2613
F87.02
sVfinal
p2614
I00
sa(dp2615
Vto
p2616
F87.69
sVconfidence
p2617
F0.643
sVspeaker
p2618
I1
sVfrom
p2619
F87.53
sVfinal
p2620
I00
sa(dp2621
Vto
p2622
F87.78
sVconfidence
p2623
F0.643
sVspeaker
p2624
I1
sVfrom
p2625
F87.69
sVfinal
p2626
I00
sa(dp2627
Vto
p2628
F88.47
sVconfidence
p2629
F0.643
sVspeaker
p2630
I1
sVfrom
p2631
F87.78
sVfinal
p2632
I00
sa(dp2633
Vto
p2634
F88.78
sVconfidence
p2635
F0.657
sVspeaker
p2636
I1
sVfrom
p2637
F88.53
sVfinal
p2638
I00
sa(dp2639
Vto
p2640
F88.86
sVconfidence
p2641
F0.657
sVspeaker
p2642
I1
sVfrom
p2643
F88.78
sVfinal
p2644
I00
sa(dp2645
Vto
p2646
F89.01
sVconfidence
p2647
F0.657
sVspeaker
p2648
I1
sVfrom
p2649
F88.86
sVfinal
p2650
I00
sa(dp2651
Vto
p2652
F89.39
sVconfidence
p2653
F0.657
sVspeaker
p2654
I1
sVfrom
p2655
F89.01
sVfinal
p2656
I00
sa(dp2657
Vto
p2658
F90.72
sVconfidence
p2659
F0.46
sVspeaker
p2660
I0
sVfrom
p2661
F90.36
sVfinal
p2662
I00
sa(dp2663
Vto
p2664
F91.17
sVconfidence
p2665
F0.46
sVspeaker
p2666
I0
sVfrom
p2667
F90.72
sVfinal
p2668
I00
sa(dp2669
Vto
p2670
F92.26
sVconfidence
p2671
F0.5
sVspeaker
p2672
I0
sVfrom
p2673
F91.79
sVfinal
p2674
I00
sa(dp2675
Vto
p2676
F92.44
sVconfidence
p2677
F0.5
sVspeaker
p2678
I0
sVfrom
p2679
F92.26
sVfinal
p2680
I00
sa(dp2681
Vto
p2682
F92.62
sVconfidence
p2683
F0.5
sVspeaker
p2684
I0
sVfrom
p2685
F92.44
sVfinal
p2686
I00
sa(dp2687
Vto
p2688
F93.13
sVconfidence
p2689
F0.488
sVspeaker
p2690
I0
sVfrom
p2691
F92.78
sVfinal
p2692
I00
sa(dp2693
Vto
p2694
F93.72
sVconfidence
p2695
F0.496
sVspeaker
p2696
I0
sVfrom
p2697
F93.63
sVfinal
p2698
I00
sa(dp2699
Vto
p2700
F93.88
sVconfidence
p2701
F0.496
sVspeaker
p2702
I0
sVfrom
p2703
F93.72
sVfinal
p2704
I00
sa(dp2705
Vto
p2706
F94.06
sVconfidence
p2707
F0.496
sVspeaker
p2708
I0
sVfrom
p2709
F93.88
sVfinal
p2710
I00
sa(dp2711
Vto
p2712
F94.21
sVconfidence
p2713
F0.496
sVspeaker
p2714
I0
sVfrom
p2715
F94.06
sVfinal
p2716
I00
sa(dp2717
Vto
p2718
F94.32
sVconfidence
p2719
F0.496
sVspeaker
p2720
I0
sVfrom
p2721
F94.21
sVfinal
p2722
I00
sa(dp2723
Vto
p2724
F94.65
sVconfidence
p2725
F0.496
sVspeaker
p2726
I0
sVfrom
p2727
F94.32
sVfinal
p2728
I00
sa(dp2729
Vto
p2730
F95.18
sVconfidence
p2731
F0.496
sVspeaker
p2732
I0
sVfrom
p2733
F94.65
sVfinal
p2734
I00
sa(dp2735
Vto
p2736
F95.44
sVconfidence
p2737
F0.496
sVspeaker
p2738
I0
sVfrom
p2739
F95.26
sVfinal
p2740
I00
sa(dp2741
Vto
p2742
F95.79
sVconfidence
p2743
F0.496
sVspeaker
p2744
I0
sVfrom
p2745
F95.44
sVfinal
p2746
I00
sa(dp2747
Vto
p2748
F96.21
sVconfidence
p2749
F0.51
sVspeaker
p2750
I0
sVfrom
p2751
F95.82
sVfinal
p2752
I00
sa(dp2753
Vto
p2754
F97.27
sVconfidence
p2755
F0.549
sVspeaker
p2756
I0
sVfrom
p2757
F96.86
sVfinal
p2758
I00
sa(dp2759
Vto
p2760
F97.54
sVconfidence
p2761
F0.404
sVspeaker
p2762
I0
sVfrom
p2763
F97.3
sVfinal
p2764
I00
sa(dp2765
Vto
p2766
F97.84
sVconfidence
p2767
F0.528
sVspeaker
p2768
I0
sVfrom
p2769
F97.57
sVfinal
p2770
I00
sa(dp2771
Vto
p2772
F98.15
sVconfidence
p2773
F0.528
sVspeaker
p2774
I0
sVfrom
p2775
F97.84
sVfinal
p2776
I00
sa(dp2777
Vto
p2778
F100.33
sVconfidence
p2779
F0.548
sVspeaker
p2780
I0
sVfrom
p2781
F100.14
sVfinal
p2782
I00
sa(dp2783
Vto
p2784
F101.07
sVconfidence
p2785
F0.455
sVspeaker
p2786
I0
sVfrom
p2787
F100.71
sVfinal
p2788
I00
sa(dp2789
Vto
p2790
F101.25
sVconfidence
p2791
F0.455
sVspeaker
p2792
I0
sVfrom
p2793
F101.07
sVfinal
p2794
I00
sa(dp2795
Vto
p2796
F102.62
sVconfidence
p2797
F0.568
sVspeaker
p2798
I0
sVfrom
p2799
F102.18
sVfinal
p2800
I00
sa(dp2801
Vto
p2802
F103.5
sVconfidence
p2803
F0.49
sVspeaker
p2804
I0
sVfrom
p2805
F103.42
sVfinal
p2806
I00
sa(dp2807
Vto
p2808
F103.8
sVconfidence
p2809
F0.49
sVspeaker
p2810
I0
sVfrom
p2811
F103.5
sVfinal
p2812
I00
sa(dp2813
Vto
p2814
F104.03
sVconfidence
p2815
F0.49
sVspeaker
p2816
I0
sVfrom
p2817
F103.8
sVfinal
p2818
I00
sa(dp2819
Vto
p2820
F104.2
sVconfidence
p2821
F0.49
sVspeaker
p2822
I0
sVfrom
p2823
F104.03
sVfinal
p2824
I00
sa(dp2825
Vto
p2826
F104.33
sVconfidence
p2827
F0.49
sVspeaker
p2828
I0
sVfrom
p2829
F104.2
sVfinal
p2830
I00
sa(dp2831
Vto
p2832
F104.61
sVconfidence
p2833
F0.49
sVspeaker
p2834
I0
sVfrom
p2835
F104.33
sVfinal
p2836
I00
sa(dp2837
Vto
p2838
F104.99
sVconfidence
p2839
F0.49
sVspeaker
p2840
I0
sVfrom
p2841
F104.61
sVfinal
p2842
I00
sa(dp2843
Vto
p2844
F105.18
sVconfidence
p2845
F0.49
sVspeaker
p2846
I0
sVfrom
p2847
F104.99
sVfinal
p2848
I00
sa(dp2849
Vto
p2850
F105.45
sVconfidence
p2851
F0.49
sVspeaker
p2852
I0
sVfrom
p2853
F105.18
sVfinal
p2854
I00
sa(dp2855
Vto
p2856
F105.54
sVconfidence
p2857
F0.49
sVspeaker
p2858
I0
sVfrom
p2859
F105.45
sVfinal
p2860
I00
sa(dp2861
Vto
p2862
F105.66
sVconfidence
p2863
F0.49
sVspeaker
p2864
I0
sVfrom
p2865
F105.54
sVfinal
p2866
I00
sa(dp2867
Vto
p2868
F105.8
sVconfidence
p2869
F0.49
sVspeaker
p2870
I0
sVfrom
p2871
F105.66
sVfinal
p2872
I00
sa(dp2873
Vto
p2874
F106.08
sVconfidence
p2875
F0.49
sVspeaker
p2876
I0
sVfrom
p2877
F105.8
sVfinal
p2878
I00
sa(dp2879
Vto
p2880
F106.55
sVconfidence
p2881
F0.49
sVspeaker
p2882
I0
sVfrom
p2883
F106.08
sVfinal
p2884
I00
sa(dp2885
Vto
p2886
F107.56
sVconfidence
p2887
F0.56
sVspeaker
p2888
I0
sVfrom
p2889
F107.44
sVfinal
p2890
I00
sa(dp2891
Vto
p2892
F107.77
sVconfidence
p2893
F0.56
sVspeaker
p2894
I0
sVfrom
p2895
F107.56
sVfinal
p2896
I00
sa(dp2897
Vto
p2898
F108.22
sVconfidence
p2899
F0.512
sVspeaker
p2900
I0
sVfrom
p2901
F107.96
sVfinal
p2902
I00
sa(dp2903
Vto
p2904
F108.51
sVconfidence
p2905
F0.512
sVspeaker
p2906
I0
sVfrom
p2907
F108.22
sVfinal
p2908
I00
sa(dp2909
Vto
p2910
F108.81
sVconfidence
p2911
F0.512
sVspeaker
p2912
I0
sVfrom
p2913
F108.51
sVfinal
p2914
I00
sa(dp2915
Vto
p2916
F108.93
sVconfidence
p2917
F0.512
sVspeaker
p2918
I0
sVfrom
p2919
F108.81
sVfinal
p2920
I00
sa(dp2921
Vto
p2922
F109.19
sVconfidence
p2923
F0.512
sVspeaker
p2924
I0
sVfrom
p2925
F108.93
sVfinal
p2926
I00
sa(dp2927
Vto
p2928
F109.3
sVconfidence
p2929
F0.512
sVspeaker
p2930
I0
sVfrom
p2931
F109.19
sVfinal
p2932
I00
sa(dp2933
Vto
p2934
F109.57
sVconfidence
p2935
F0.512
sVspeaker
p2936
I0
sVfrom
p2937
F109.3
sVfinal
p2938
I00
sa(dp2939
Vto
p2940
F109.92
sVconfidence
p2941
F0.512
sVspeaker
p2942
I0
sVfrom
p2943
F109.57
sVfinal
p2944
I00
sa(dp2945
Vto
p2946
F110.57
sVconfidence
p2947
F0.575
sVspeaker
p2948
I0
sVfrom
p2949
F110.18
sVfinal
p2950
I00
sa(dp2951
Vto
p2952
F110.65
sVconfidence
p2953
F0.575
sVspeaker
p2954
I0
sVfrom
p2955
F110.57
sVfinal
p2956
I00
sa(dp2957
Vto
p2958
F110.83
sVconfidence
p2959
F0.575
sVspeaker
p2960
I0
sVfrom
p2961
F110.65
sVfinal
p2962
I00
sa(dp2963
Vto
p2964
F111.02
sVconfidence
p2965
F0.585
sVspeaker
p2966
I0
sVfrom
p2967
F110.86
sVfinal
p2968
I00
sa(dp2969
Vto
p2970
F111.22
sVconfidence
p2971
F0.585
sVspeaker
p2972
I0
sVfrom
p2973
F111.02
sVfinal
p2974
I00
sa(dp2975
Vto
p2976
F111.46
sVconfidence
p2977
F0.585
sVspeaker
p2978
I0
sVfrom
p2979
F111.22
sVfinal
p2980
I00
sa(dp2981
Vto
p2982
F111.74
sVconfidence
p2983
F0.585
sVspeaker
p2984
I0
sVfrom
p2985
F111.46
sVfinal
p2986
I00
sa(dp2987
Vto
p2988
F112.05
sVconfidence
p2989
F0.566
sVspeaker
p2990
I0
sVfrom
p2991
F111.77
sVfinal
p2992
I00
sa(dp2993
Vto
p2994
F112.83
sVconfidence
p2995
F0.539
sVspeaker
p2996
I0
sVfrom
p2997
F112.57
sVfinal
p2998
I00
sa(dp2999
Vto
p3000
F112.91
sVconfidence
p3001
F0.539
sVspeaker
p3002
I0
sVfrom
p3003
F112.83
sVfinal
p3004
I00
sa(dp3005
Vto
p3006
F113.18
sVconfidence
p3007
F0.539
sVspeaker
p3008
I0
sVfrom
p3009
F112.91
sVfinal
p3010
I00
sa(dp3011
Vto
p3012
F113.94
sVconfidence
p3013
F0.591
sVspeaker
p3014
I0
sVfrom
p3015
F113.66
sVfinal
p3016
I00
sa(dp3017
Vto
p3018
F114.3
sVconfidence
p3019
F0.591
sVspeaker
p3020
I0
sVfrom
p3021
F113.94
sVfinal
p3022
I00
sa(dp3023
Vto
p3024
F114.42
sVconfidence
p3025
F0.591
sVspeaker
p3026
I0
sVfrom
p3027
F114.3
sVfinal
p3028
I00
sa(dp3029
Vto
p3030
F114.54
sVconfidence
p3031
F0.591
sVspeaker
p3032
I0
sVfrom
p3033
F114.42
sVfinal
p3034
I00
sa(dp3035
Vto
p3036
F114.64
sVconfidence
p3037
F0.591
sVspeaker
p3038
I0
sVfrom
p3039
F114.54
sVfinal
p3040
I00
sa(dp3041
Vto
p3042
F114.87
sVconfidence
p3043
F0.591
sVspeaker
p3044
I0
sVfrom
p3045
F114.64
sVfinal
p3046
I00
sa(dp3047
Vto
p3048
F115.19
sVconfidence
p3049
F0.57
sVspeaker
p3050
I0
sVfrom
p3051
F115.14
sVfinal
p3052
I00
sa(dp3053
Vto
p3054
F115.58
sVconfidence
p3055
F0.57
sVspeaker
p3056
I0
sVfrom
p3057
F115.19
sVfinal
p3058
I00
sa(dp3059
Vto
p3060
F115.73
sVconfidence
p3061
F0.567
sVspeaker
p3062
I0
sVfrom
p3063
F115.62
sVfinal
p3064
I00
sa(dp3065
Vto
p3066
F115.95
sVconfidence
p3067
F0.567
sVspeaker
p3068
I0
sVfrom
p3069
F115.73
sVfinal
p3070
I00
sa(dp3071
Vto
p3072
F117.47
sVconfidence
p3073
F0.583
sVspeaker
p3074
I0
sVfrom
p3075
F117.27
sVfinal
p3076
I00
sa(dp3077
Vto
p3078
F117.83
sVconfidence
p3079
F0.506
sVspeaker
p3080
I0
sVfrom
p3081
F117.59
sVfinal
p3082
I00
sa(dp3083
Vto
p3084
F118.13
sVconfidence
p3085
F0.534
sVspeaker
p3086
I0
sVfrom
p3087
F118.06
sVfinal
p3088
I00
sa(dp3089
Vto
p3090
F118.36
sVconfidence
p3091
F0.534
sVspeaker
p3092
I0
sVfrom
p3093
F118.13
sVfinal
p3094
I00
sa(dp3095
Vto
p3096
F119.15
sVconfidence
p3097
F0.516
sVspeaker
p3098
I0
sVfrom
p3099
F119.07
sVfinal
p3100
I00
sa(dp3101
Vto
p3102
F119.27
sVconfidence
p3103
F0.516
sVspeaker
p3104
I0
sVfrom
p3105
F119.15
sVfinal
p3106
I00
sa(dp3107
Vto
p3108
F119.69
sVconfidence
p3109
F0.559
sVspeaker
p3110
I0
sVfrom
p3111
F119.31
sVfinal
p3112
I00
sa(dp3113
Vto
p3114
F120.42
sVconfidence
p3115
F0.565
sVspeaker
p3116
I0
sVfrom
p3117
F120.28
sVfinal
p3118
I00
sa(dp3119
Vto
p3120
F120.68
sVconfidence
p3121
F0.565
sVspeaker
p3122
I0
sVfrom
p3123
F120.42
sVfinal
p3124
I00
sa(dp3125
Vto
p3126
F121.11
sVconfidence
p3127
F0.587
sVspeaker
p3128
I0
sVfrom
p3129
F120.85
sVfinal
p3130
I00
sa(dp3131
Vto
p3132
F121.38
sVconfidence
p3133
F0.575
sVspeaker
p3134
I0
sVfrom
p3135
F121.14
sVfinal
p3136
I00
sa(dp3137
Vto
p3138
F124.25
sVconfidence
p3139
F0.586
sVspeaker
p3140
I0
sVfrom
p3141
F124.19
sVfinal
p3142
I00
sa(dp3143
Vto
p3144
F124.42
sVconfidence
p3145
F0.586
sVspeaker
p3146
I0
sVfrom
p3147
F124.25
sVfinal
p3148
I00
sa(dp3149
Vto
p3150
F124.59
sVconfidence
p3151
F0.586
sVspeaker
p3152
I0
sVfrom
p3153
F124.42
sVfinal
p3154
I00
sa(dp3155
Vto
p3156
F124.68
sVconfidence
p3157
F0.586
sVspeaker
p3158
I0
sVfrom
p3159
F124.59
sVfinal
p3160
I00
sa(dp3161
Vto
p3162
F124.74
sVconfidence
p3163
F0.586
sVspeaker
p3164
I0
sVfrom
p3165
F124.68
sVfinal
p3166
I00
sa(dp3167
Vto
p3168
F124.86
sVconfidence
p3169
F0.586
sVspeaker
p3170
I0
sVfrom
p3171
F124.74
sVfinal
p3172
I00
sa(dp3173
Vto
p3174
F125.34
sVconfidence
p3175
F0.586
sVspeaker
p3176
I0
sVfrom
p3177
F124.86
sVfinal
p3178
I00
sa(dp3179
Vto
p3180
F125.45
sVconfidence
p3181
F0.586
sVspeaker
p3182
I0
sVfrom
p3183
F125.34
sVfinal
p3184
I00
sa(dp3185
Vto
p3186
F125.51
sVconfidence
p3187
F0.586
sVspeaker
p3188
I0
sVfrom
p3189
F125.45
sVfinal
p3190
I00
sa(dp3191
Vto
p3192
F125.69
sVconfidence
p3193
F0.586
sVspeaker
p3194
I0
sVfrom
p3195
F125.51
sVfinal
p3196
I00
sa(dp3197
Vto
p3198
F125.85
sVconfidence
p3199
F0.586
sVspeaker
p3200
I0
sVfrom
p3201
F125.69
sVfinal
p3202
I00
sa(dp3203
Vto
p3204
F125.97
sVconfidence
p3205
F0.586
sVspeaker
p3206
I0
sVfrom
p3207
F125.85
sVfinal
p3208
I00
sa(dp3209
Vto
p3210
F126.31
sVconfidence
p3211
F0.586
sVspeaker
p3212
I0
sVfrom
p3213
F125.97
sVfinal
p3214
I00
sa(dp3215
Vto
p3216
F126.67
sVconfidence
p3217
F0.586
sVspeaker
p3218
I0
sVfrom
p3219
F126.31
sVfinal
p3220
I00
sa(dp3221
Vto
p3222
F127.45
sVconfidence
p3223
F0.479
sVspeaker
p3224
I0
sVfrom
p3225
F127.23
sVfinal
p3226
I00
sa(dp3227
Vto
p3228
F128.21
sVconfidence
p3229
F0.537
sVspeaker
p3230
I0
sVfrom
p3231
F127.76
sVfinal
p3232
I00
sa(dp3233
Vto
p3234
F128.47
sVconfidence
p3235
F0.583
sVspeaker
p3236
I0
sVfrom
p3237
F128.24
sVfinal
p3238
I00
sa(dp3239
Vto
p3240
F128.55
sVconfidence
p3241
F0.583
sVspeaker
p3242
I0
sVfrom
p3243
F128.47
sVfinal
p3244
I00
sa(dp3245
Vto
p3246
F128.94
sVconfidence
p3247
F0.583
sVspeaker
p3248
I0
sVfrom
p3249
F128.55
sVfinal
p3250
I00
sa(dp3251
Vto
p3252
F129.0
sVconfidence
p3253
F0.583
sVspeaker
p3254
I0
sVfrom
p3255
F128.94
sVfinal
p3256
I00
sa(dp3257
Vto
p3258
F129.37
sVconfidence
p3259
F0.583
sVspeaker
p3260
I0
sVfrom
p3261
F129.0
sVfinal
p3262
I00
sa(dp3263
Vto
p3264
F130.03
sVconfidence
p3265
F0.517
sVspeaker
p3266
I0
sVfrom
p3267
F129.52
sVfinal
p3268
I00
sa(dp3269
Vto
p3270
F130.56
sVconfidence
p3271
F0.528
sVspeaker
p3272
I0
sVfrom
p3273
F130.43
sVfinal
p3274
I00
sa(dp3275
Vto
p3276
F130.66
sVconfidence
p3277
F0.528
sVspeaker
p3278
I0
sVfrom
p3279
F130.56
sVfinal
p3280
I00
sa(dp3281
Vto
p3282
F130.96
sVconfidence
p3283
F0.528
sVspeaker
p3284
I0
sVfrom
p3285
F130.66
sVfinal
p3286
I00
sa(dp3287
Vto
p3288
F131.29
sVconfidence
p3289
F0.588
sVspeaker
p3290
I0
sVfrom
p3291
F131.06
sVfinal
p3292
I00
sa(dp3293
Vto
p3294
F131.43
sVconfidence
p3295
F0.588
sVspeaker
p3296
I0
sVfrom
p3297
F131.29
sVfinal
p3298
I00
sa(dp3299
Vto
p3300
F131.71
sVconfidence
p3301
F0.588
sVspeaker
p3302
I0
sVfrom
p3303
F131.43
sVfinal
p3304
I00
sa(dp3305
Vto
p3306
F132.2
sVconfidence
p3307
F0.593
sVspeaker
p3308
I0
sVfrom
p3309
F131.96
sVfinal
p3310
I00
sa(dp3311
Vto
p3312
F132.85
sVconfidence
p3313
F0.593
sVspeaker
p3314
I0
sVfrom
p3315
F132.2
sVfinal
p3316
I00
sa(dp3317
Vto
p3318
F133.05
sVconfidence
p3319
F0.593
sVspeaker
p3320
I0
sVfrom
p3321
F132.85
sVfinal
p3322
I00
sa(dp3323
Vto
p3324
F133.17
sVconfidence
p3325
F0.593
sVspeaker
p3326
I0
sVfrom
p3327
F133.05
sVfinal
p3328
I00
sa(dp3329
Vto
p3330
F133.68
sVconfidence
p3331
F0.593
sVspeaker
p3332
I0
sVfrom
p3333
F133.17
sVfinal
p3334
I00
sa(dp3335
Vto
p3336
F134.1
sVconfidence
p3337
F0.593
sVspeaker
p3338
I0
sVfrom
p3339
F133.68
sVfinal
p3340
I00
sa(dp3341
Vto
p3342
F134.3
sVconfidence
p3343
F0.593
sVspeaker
p3344
I0
sVfrom
p3345
F134.1
sVfinal
p3346
I00
sa(dp3347
Vto
p3348
F134.81
sVconfidence
p3349
F0.593
sVspeaker
p3350
I0
sVfrom
p3351
F134.3
sVfinal
p3352
I00
sa(dp3353
Vto
p3354
F135.48
sVconfidence
p3355
F0.593
sVspeaker
p3356
I0
sVfrom
p3357
F134.81
sVfinal
p3358
I00
sa(dp3359
Vto
p3360
F135.92
sVconfidence
p3361
F0.643
sVspeaker
p3362
I0
sVfrom
p3363
F135.74
sVfinal
p3364
I00
sa(dp3365
Vto
p3366
F136.08
sVconfidence
p3367
F0.643
sVspeaker
p3368
I0
sVfrom
p3369
F135.92
sVfinal
p3370
I00
sa(dp3371
Vto
p3372
F136.25
sVconfidence
p3373
F0.643
sVspeaker
p3374
I0
sVfrom
p3375
F136.08
sVfinal
p3376
I00
sa(dp3377
Vto
p3378
F136.79
sVconfidence
p3379
F0.643
sVspeaker
p3380
I0
sVfrom
p3381
F136.25
sVfinal
p3382
I00
sa(dp3383
Vto
p3384
F136.95
sVconfidence
p3385
F0.643
sVspeaker
p3386
I0
sVfrom
p3387
F136.79
sVfinal
p3388
I00
sa(dp3389
Vto
p3390
F137.43
sVconfidence
p3391
F0.643
sVspeaker
p3392
I0
sVfrom
p3393
F136.95
sVfinal
p3394
I00
sa(dp3395
Vto
p3396
F137.5
sVconfidence
p3397
F0.643
sVspeaker
p3398
I0
sVfrom
p3399
F137.43
sVfinal
p3400
I00
sa(dp3401
Vto
p3402
F137.85
sVconfidence
p3403
F0.643
sVspeaker
p3404
I0
sVfrom
p3405
F137.5
sVfinal
p3406
I00
sa(dp3407
Vto
p3408
F137.93
sVconfidence
p3409
F0.643
sVspeaker
p3410
I0
sVfrom
p3411
F137.85
sVfinal
p3412
I00
sa(dp3413
Vto
p3414
F138.47
sVconfidence
p3415
F0.643
sVspeaker
p3416
I0
sVfrom
p3417
F137.93
sVfinal
p3418
I00
sa(dp3419
Vto
p3420
F138.95
sVconfidence
p3421
F0.643
sVspeaker
p3422
I0
sVfrom
p3423
F138.47
sVfinal
p3424
I00
sa(dp3425
Vto
p3426
F139.69
sVconfidence
p3427
F0.643
sVspeaker
p3428
I0
sVfrom
p3429
F138.95
sVfinal
p3430
I00
sa(dp3431
Vto
p3432
F139.86
sVconfidence
p3433
F0.306
sVspeaker
p3434
I0
sVfrom
p3435
F139.73
sVfinal
p3436
I00
sa(dp3437
Vto
p3438
F140.45
sVconfidence
p3439
F0.306
sVspeaker
p3440
I0
sVfrom
p3441
F139.86
sVfinal
p3442
I00
sa(dp3443
Vto
p3444
F141.08
sVconfidence
p3445
F0.572
sVspeaker
p3446
I0
sVfrom
p3447
F140.52
sVfinal
p3448
I00
sa(dp3449
Vto
p3450
F141.68
sVconfidence
p3451
F0.608
sVspeaker
p3452
I0
sVfrom
p3453
F141.37
sVfinal
p3454
I00
sa(dp3455
Vto
p3456
F142.19
sVconfidence
p3457
F0.608
sVspeaker
p3458
I0
sVfrom
p3459
F141.68
sVfinal
p3460
I00
sa(dp3461
Vto
p3462
F142.94
sVconfidence
p3463
F0.432
sVspeaker
p3464
I0
sVfrom
p3465
F142.75
sVfinal
p3466
I00
sa(dp3467
Vto
p3468
F143.08
sVconfidence
p3469
F0.432
sVspeaker
p3470
I0
sVfrom
p3471
F142.94
sVfinal
p3472
I00
sa(dp3473
Vto
p3474
F143.5
sVconfidence
p3475
F0.432
sVspeaker
p3476
I0
sVfrom
p3477
F143.08
sVfinal
p3478
I00
sa(dp3479
Vto
p3480
F143.54
sVconfidence
p3481
F0.432
sVspeaker
p3482
I0
sVfrom
p3483
F143.5
sVfinal
p3484
I00
sa(dp3485
Vto
p3486
F144.04
sVconfidence
p3487
F0.432
sVspeaker
p3488
I0
sVfrom
p3489
F143.54
sVfinal
p3490
I00
sa(dp3491
Vto
p3492
F144.23
sVconfidence
p3493
F0.432
sVspeaker
p3494
I0
sVfrom
p3495
F144.04
sVfinal
p3496
I00
sa(dp3497
Vto
p3498
F144.65
sVconfidence
p3499
F0.432
sVspeaker
p3500
I0
sVfrom
p3501
F144.23
sVfinal
p3502
I00
sa(dp3503
Vto
p3504
F148.54
sVconfidence
p3505
F0.346
sVspeaker
p3506
I0
sVfrom
p3507
F148.15
sVfinal
p3508
I00
sa(dp3509
Vto
p3510
F148.83
sVconfidence
p3511
F0.346
sVspeaker
p3512
I0
sVfrom
p3513
F148.54
sVfinal
p3514
I00
sa(dp3515
Vto
p3516
F148.97
sVconfidence
p3517
F0.346
sVspeaker
p3518
I0
sVfrom
p3519
F148.83
sVfinal
p3520
I00
sa(dp3521
Vto
p3522
F149.61
sVconfidence
p3523
F0.484
sVspeaker
p3524
I0
sVfrom
p3525
F149.3
sVfinal
p3526
I00
sa(dp3527
Vto
p3528
F149.79
sVconfidence
p3529
F0.484
sVspeaker
p3530
I0
sVfrom
p3531
F149.61
sVfinal
p3532
I00
sa(dp3533
Vto
p3534
F150.3
sVconfidence
p3535
F0.499
sVspeaker
p3536
I0
sVfrom
p3537
F149.82
sVfinal
p3538
I00
sa(dp3539
Vto
p3540
F150.47
sVconfidence
p3541
F0.499
sVspeaker
p3542
I0
sVfrom
p3543
F150.3
sVfinal
p3544
I00
sa(dp3545
Vto
p3546
F150.94
sVconfidence
p3547
F0.499
sVspeaker
p3548
I0
sVfrom
p3549
F150.47
sVfinal
p3550
I00
sa(dp3551
Vto
p3552
F151.08
sVconfidence
p3553
F0.499
sVspeaker
p3554
I0
sVfrom
p3555
F150.94
sVfinal
p3556
I00
sa(dp3557
Vto
p3558
F151.72
sVconfidence
p3559
F0.499
sVspeaker
p3560
I0
sVfrom
p3561
F151.08
sVfinal
p3562
I00
sa(dp3563
Vto
p3564
F151.95
sVconfidence
p3565
F0.499
sVspeaker
p3566
I0
sVfrom
p3567
F151.72
sVfinal
p3568
I00
sa(dp3569
Vto
p3570
F152.23
sVconfidence
p3571
F0.499
sVspeaker
p3572
I0
sVfrom
p3573
F151.95
sVfinal
p3574
I00
sa(dp3575
Vto
p3576
F152.63
sVconfidence
p3577
F0.499
sVspeaker
p3578
I0
sVfrom
p3579
F152.23
sVfinal
p3580
I00
sa(dp3581
Vto
p3582
F153.31
sVconfidence
p3583
F0.521
sVspeaker
p3584
I1
sVfrom
p3585
F152.7
sVfinal
p3586
I00
sa(dp3587
Vto
p3588
F153.54
sVconfidence
p3589
F0.521
sVspeaker
p3590
I1
sVfrom
p3591
F153.31
sVfinal
p3592
I00
sa(dp3593
Vto
p3594
F154.38
sVconfidence
p3595
F0.355
sVspeaker
p3596
I0
sVfrom
p3597
F154.02
sVfinal
p3598
I00
sa(dp3599
Vto
p3600
F154.59
sVconfidence
p3601
F0.411
sVspeaker
p3602
I0
sVfrom
p3603
F154.41
sVfinal
p3604
I00
sa(dp3605
Vto
p3606
F154.73
sVconfidence
p3607
F0.411
sVspeaker
p3608
I0
sVfrom
p3609
F154.59
sVfinal
p3610
I00
sa(dp3611
Vto
p3612
F154.98
sVconfidence
p3613
F0.411
sVspeaker
p3614
I0
sVfrom
p3615
F154.73
sVfinal
p3616
I00
sa(dp3617
Vto
p3618
F155.47
sVconfidence
p3619
F0.465
sVspeaker
p3620
I0
sVfrom
p3621
F155.01
sVfinal
p3622
I00
sa(dp3623
Vto
p3624
F155.68
sVconfidence
p3625
F0.465
sVspeaker
p3626
I0
sVfrom
p3627
F155.47
sVfinal
p3628
I00
sa(dp3629
Vto
p3630
F156.07
sVconfidence
p3631
F0.437
sVspeaker
p3632
I0
sVfrom
p3633
F155.71
sVfinal
p3634
I00
sa(dp3635
Vto
p3636
F156.26
sVconfidence
p3637
F0.437
sVspeaker
p3638
I0
sVfrom
p3639
F156.07
sVfinal
p3640
I00
sa(dp3641
Vto
p3642
F156.51
sVconfidence
p3643
F0.507
sVspeaker
p3644
I0
sVfrom
p3645
F156.31
sVfinal
p3646
I00
sa(dp3647
Vto
p3648
F156.64
sVconfidence
p3649
F0.507
sVspeaker
p3650
I0
sVfrom
p3651
F156.51
sVfinal
p3652
I00
sa(dp3653
Vto
p3654
F157.06
sVconfidence
p3655
F0.507
sVspeaker
p3656
I0
sVfrom
p3657
F156.64
sVfinal
p3658
I00
sa(dp3659
Vto
p3660
F157.62
sVconfidence
p3661
F0.507
sVspeaker
p3662
I0
sVfrom
p3663
F157.06
sVfinal
p3664
I00
sa(dp3665
Vto
p3666
F161.11
sVconfidence
p3667
F0.489
sVspeaker
p3668
I1
sVfrom
p3669
F160.93
sVfinal
p3670
I00
sa(dp3671
Vto
p3672
F161.45
sVconfidence
p3673
F0.489
sVspeaker
p3674
I1
sVfrom
p3675
F161.11
sVfinal
p3676
I00
sa(dp3677
Vto
p3678
F161.66
sVconfidence
p3679
F0.629
sVspeaker
p3680
I1
sVfrom
p3681
F161.56
sVfinal
p3682
I00
sa(dp3683
Vto
p3684
F162.01
sVconfidence
p3685
F0.629
sVspeaker
p3686
I1
sVfrom
p3687
F161.66
sVfinal
p3688
I00
sa(dp3689
Vto
p3690
F162.54
sVconfidence
p3691
F0.407
sVspeaker
p3692
I0
sVfrom
p3693
F162.38
sVfinal
p3694
I00
sa(dp3695
Vto
p3696
F162.97
sVconfidence
p3697
F0.407
sVspeaker
p3698
I0
sVfrom
p3699
F162.54
sVfinal
p3700
I00
sa(dp3701
Vto
p3702
F163.23
sVconfidence
p3703
F0.407
sVspeaker
p3704
I0
sVfrom
p3705
F162.97
sVfinal
p3706
I00
sa(dp3707
Vto
p3708
F163.97
sVconfidence
p3709
F0.52
sVspeaker
p3710
I0
sVfrom
p3711
F163.34
sVfinal
p3712
I00
sa(dp3713
Vto
p3714
F164.24
sVconfidence
p3715
F0.52
sVspeaker
p3716
I0
sVfrom
p3717
F163.97
sVfinal
p3718
I00
sa(dp3719
Vto
p3720
F164.3
sVconfidence
p3721
F0.52
sVspeaker
p3722
I0
sVfrom
p3723
F164.24
sVfinal
p3724
I00
sa(dp3725
Vto
p3726
F164.62
sVconfidence
p3727
F0.52
sVspeaker
p3728
I0
sVfrom
p3729
F164.3
sVfinal
p3730
I00
sa(dp3731
Vto
p3732
F164.8
sVconfidence
p3733
F0.52
sVspeaker
p3734
I0
sVfrom
p3735
F164.62
sVfinal
p3736
I00
sa(dp3737
Vto
p3738
F165.42
sVconfidence
p3739
F0.52
sVspeaker
p3740
I0
sVfrom
p3741
F164.8
sVfinal
p3742
I00
sa(dp3743
Vto
p3744
F166.24
sVconfidence
p3745
F0.432
sVspeaker
p3746
I0
sVfrom
p3747
F165.88
sVfinal
p3748
I00
sa(dp3749
Vto
p3750
F166.64
sVconfidence
p3751
F0.432
sVspeaker
p3752
I0
sVfrom
p3753
F166.24
sVfinal
p3754
I00
sa(dp3755
Vto
p3756
F167.07
sVconfidence
p3757
F0.532
sVspeaker
p3758
I1
sVfrom
p3759
F166.67
sVfinal
p3760
I00
sa(dp3761
Vto
p3762
F167.57
sVconfidence
p3763
F0.519
sVspeaker
p3764
I0
sVfrom
p3765
F167.36
sVfinal
p3766
I00
sa(dp3767
Vto
p3768
F168.18
sVconfidence
p3769
F0.519
sVspeaker
p3770
I0
sVfrom
p3771
F167.57
sVfinal
p3772
I00
sa(dp3773
Vto
p3774
F168.37
sVconfidence
p3775
F0.519
sVspeaker
p3776
I0
sVfrom
p3777
F168.18
sVfinal
p3778
I00
sa(dp3779
Vto
p3780
F168.49
sVconfidence
p3781
F0.519
sVspeaker
p3782
I0
sVfrom
p3783
F168.37
sVfinal
p3784
I00
sa(dp3785
Vto
p3786
F168.67
sVconfidence
p3787
F0.519
sVspeaker
p3788
I0
sVfrom
p3789
F168.49
sVfinal
p3790
I00
sa(dp3791
Vto
p3792
F168.99
sVconfidence
p3793
F0.519
sVspeaker
p3794
I0
sVfrom
p3795
F168.67
sVfinal
p3796
I00
sa(dp3797
Vto
p3798
F169.2
sVconfidence
p3799
F0.519
sVspeaker
p3800
I0
sVfrom
p3801
F168.99
sVfinal
p3802
I00
sa(dp3803
Vto
p3804
F169.5
sVconfidence
p3805
F0.519
sVspeaker
p3806
I0
sVfrom
p3807
F169.2
sVfinal
p3808
I00
sa(dp3809
Vto
p3810
F170.11
sVconfidence
p3811
F0.519
sVspeaker
p3812
I0
sVfrom
p3813
F169.5
sVfinal
p3814
I00
sa(dp3815
Vto
p3816
F170.79
sVconfidence
p3817
F0.519
sVspeaker
p3818
I0
sVfrom
p3819
F170.11
sVfinal
p3820
I00
sa(dp3821
Vto
p3822
F171.38
sVconfidence
p3823
F0.335
sVspeaker
p3824
I0
sVfrom
p3825
F171.15
sVfinal
p3826
I00
sa(dp3827
Vto
p3828
F172.19
sVconfidence
p3829
F0.335
sVspeaker
p3830
I0
sVfrom
p3831
F171.38
sVfinal
p3832
I00
sa(dp3833
Vto
p3834
F172.66
sVconfidence
p3835
F0.312
sVspeaker
p3836
I0
sVfrom
p3837
F172.22
sVfinal
p3838
I00
sa(dp3839
Vto
p3840
F173.81
sVconfidence
p3841
F0.312
sVspeaker
p3842
I0
sVfrom
p3843
F173.3
sVfinal
p3844
I00
sa(dp3845
Vto
p3846
F174.01
sVconfidence
p3847
F0.597
sVspeaker
p3848
I0
sVfrom
p3849
F173.85
sVfinal
p3850
I00
sa(dp3851
Vto
p3852
F174.08
sVconfidence
p3853
F0.597
sVspeaker
p3854
I0
sVfrom
p3855
F174.01
sVfinal
p3856
I00
sa(dp3857
Vto
p3858
F174.44
sVconfidence
p3859
F0.597
sVspeaker
p3860
I0
sVfrom
p3861
F174.08
sVfinal
p3862
I00
sa(dp3863
Vto
p3864
F174.86
sVconfidence
p3865
F0.597
sVspeaker
p3866
I0
sVfrom
p3867
F174.44
sVfinal
p3868
I00
sa(dp3869
Vto
p3870
F175.99
sVconfidence
p3871
F0.435
sVspeaker
p3872
I0
sVfrom
p3873
F175.68
sVfinal
p3874
I00
sa(dp3875
Vto
p3876
F176.92
sVconfidence
p3877
F0.372
sVspeaker
p3878
I0
sVfrom
p3879
F176.13
sVfinal
p3880
I00
sa(dp3881
Vto
p3882
F177.07
sVconfidence
p3883
F0.372
sVspeaker
p3884
I0
sVfrom
p3885
F176.92
sVfinal
p3886
I00
sa(dp3887
Vto
p3888
F177.53
sVconfidence
p3889
F0.375
sVspeaker
p3890
I0
sVfrom
p3891
F177.1
sVfinal
p3892
I00
sa(dp3893
Vto
p3894
F177.89
sVconfidence
p3895
F0.375
sVspeaker
p3896
I0
sVfrom
p3897
F177.53
sVfinal
p3898
I00
sa(dp3899
Vto
p3900
F178.06
sVconfidence
p3901
F0.375
sVspeaker
p3902
I0
sVfrom
p3903
F177.89
sVfinal
p3904
I00
sa(dp3905
Vto
p3906
F178.6
sVconfidence
p3907
F0.45
sVspeaker
p3908
I0
sVfrom
p3909
F178.1
sVfinal
p3910
I00
sa(dp3911
Vto
p3912
F178.99
sVconfidence
p3913
F0.45
sVspeaker
p3914
I0
sVfrom
p3915
F178.6
sVfinal
p3916
I00
sa(dp3917
Vto
p3918
F179.66
sVconfidence
p3919
F0.45
sVspeaker
p3920
I0
sVfrom
p3921
F178.99
sVfinal
p3922
I00
sa(dp3923
Vto
p3924
F179.73
sVconfidence
p3925
F0.45
sVspeaker
p3926
I0
sVfrom
p3927
F179.66
sVfinal
p3928
I00
sa(dp3929
Vto
p3930
F180.29
sVconfidence
p3931
F0.45
sVspeaker
p3932
I0
sVfrom
p3933
F179.73
sVfinal
p3934
I00
sa(dp3935
Vto
p3936
F180.7
sVconfidence
p3937
F0.45
sVspeaker
p3938
I0
sVfrom
p3939
F180.29
sVfinal
p3940
I00
sa(dp3941
Vto
p3942
F183.1
sVconfidence
p3943
F0.529
sVspeaker
p3944
I0
sVfrom
p3945
F182.67
sVfinal
p3946
I00
sa(dp3947
Vto
p3948
F183.41
sVconfidence
p3949
F0.529
sVspeaker
p3950
I0
sVfrom
p3951
F183.1
sVfinal
p3952
I00
sa(dp3953
Vto
p3954
F184.04
sVconfidence
p3955
F0.529
sVspeaker
p3956
I0
sVfrom
p3957
F183.41
sVfinal
p3958
I00
sa(dp3959
Vto
p3960
F184.78
sVconfidence
p3961
F0.488
sVspeaker
p3962
I0
sVfrom
p3963
F184.55
sVfinal
p3964
I00
sa(dp3965
Vto
p3966
F185.16
sVconfidence
p3967
F0.488
sVspeaker
p3968
I0
sVfrom
p3969
F184.78
sVfinal
p3970
I00
sa(dp3971
Vto
p3972
F185.39
sVconfidence
p3973
F0.488
sVspeaker
p3974
I0
sVfrom
p3975
F185.16
sVfinal
p3976
I00
sa(dp3977
Vto
p3978
F186.71
sVconfidence
p3979
F0.622
sVspeaker
p3980
I0
sVfrom
p3981
F186.28
sVfinal
p3982
I00
sa(dp3983
Vto
p3984
F187.51
sVconfidence
p3985
F0.523
sVspeaker
p3986
I0
sVfrom
p3987
F186.88
sVfinal
p3988
I00
sa(dp3989
Vto
p3990
F187.6
sVconfidence
p3991
F0.523
sVspeaker
p3992
I0
sVfrom
p3993
F187.51
sVfinal
p3994
I00
sa(dp3995
Vto
p3996
F188.03
sVconfidence
p3997
F0.523
sVspeaker
p3998
I0
sVfrom
p3999
F187.6
sVfinal
p4000
I00
sa(dp4001
Vto
p4002
F188.13
sVconfidence
p4003
F0.523
sVspeaker
p4004
I0
sVfrom
p4005
F188.03
sVfinal
p4006
I00
sa(dp4007
Vto
p4008
F188.44
sVconfidence
p4009
F0.523
sVspeaker
p4010
I0
sVfrom
p4011
F188.13
sVfinal
p4012
I00
sa(dp4013
Vto
p4014
F188.53
sVconfidence
p4015
F0.523
sVspeaker
p4016
I0
sVfrom
p4017
F188.44
sVfinal
p4018
I00
sa(dp4019
Vto
p4020
F188.61
sVconfidence
p4021
F0.523
sVspeaker
p4022
I0
sVfrom
p4023
F188.53
sVfinal
p4024
I00
sa(dp4025
Vto
p4026
F188.9
sVconfidence
p4027
F0.523
sVspeaker
p4028
I0
sVfrom
p4029
F188.61
sVfinal
p4030
I00
sa(dp4031
Vto
p4032
F189.63
sVconfidence
p4033
F0.534
sVspeaker
p4034
I0
sVfrom
p4035
F189.29
sVfinal
p4036
I00
sa(dp4037
Vto
p4038
F189.89
sVconfidence
p4039
F0.534
sVspeaker
p4040
I0
sVfrom
p4041
F189.63
sVfinal
p4042
I00
sa(dp4043
Vto
p4044
F190.0
sVconfidence
p4045
F0.534
sVspeaker
p4046
I0
sVfrom
p4047
F189.89
sVfinal
p4048
I00
sa(dp4049
Vto
p4050
F190.1
sVconfidence
p4051
F0.534
sVspeaker
p4052
I0
sVfrom
p4053
F190.0
sVfinal
p4054
I00
sa(dp4055
Vto
p4056
F190.23
sVconfidence
p4057
F0.534
sVspeaker
p4058
I0
sVfrom
p4059
F190.1
sVfinal
p4060
I00
sa(dp4061
Vto
p4062
F190.77
sVconfidence
p4063
F0.534
sVspeaker
p4064
I0
sVfrom
p4065
F190.23
sVfinal
p4066
I00
sa(dp4067
Vto
p4068
F191.55
sVconfidence
p4069
F0.3
sVspeaker
p4070
I0
sVfrom
p4071
F191.44
sVfinal
p4072
I00
sa(dp4073
Vto
p4074
F191.73
sVconfidence
p4075
F0.3
sVspeaker
p4076
I0
sVfrom
p4077
F191.55
sVfinal
p4078
I00
sa(dp4079
Vto
p4080
F191.84
sVconfidence
p4081
F0.3
sVspeaker
p4082
I0
sVfrom
p4083
F191.73
sVfinal
p4084
I00
sa(dp4085
Vto
p4086
F192.28
sVconfidence
p4087
F0.3
sVspeaker
p4088
I0
sVfrom
p4089
F191.84
sVfinal
p4090
I00
sa(dp4091
Vto
p4092
F195.37
sVconfidence
p4093
F0.61
sVspeaker
p4094
I0
sVfrom
p4095
F195.13
sVfinal
p4096
I00
sa(dp4097
Vto
p4098
F195.5
sVconfidence
p4099
F0.61
sVspeaker
p4100
I0
sVfrom
p4101
F195.37
sVfinal
p4102
I00
sa(dp4103
Vto
p4104
F195.99
sVconfidence
p4105
F0.61
sVspeaker
p4106
I0
sVfrom
p4107
F195.5
sVfinal
p4108
I00
sa(dp4109
Vto
p4110
F196.8
sVconfidence
p4111
F0.597
sVspeaker
p4112
I0
sVfrom
p4113
F196.05
sVfinal
p4114
I00
sa(dp4115
Vto
p4116
F197.16
sVconfidence
p4117
F0.493
sVspeaker
p4118
I0
sVfrom
p4119
F196.85
sVfinal
p4120
I00
sa(dp4121
Vto
p4122
F197.57
sVconfidence
p4123
F0.552
sVspeaker
p4124
I0
sVfrom
p4125
F197.19
sVfinal
p4126
I00
sa(dp4127
Vto
p4128
F198.46
sVconfidence
p4129
F0.606
sVspeaker
p4130
I0
sVfrom
p4131
F197.61
sVfinal
p4132
I00
sa(dp4133
Vto
p4134
F198.71
sVconfidence
p4135
F0.491
sVspeaker
p4136
I0
sVfrom
p4137
F198.49
sVfinal
p4138
I00
sa(dp4139
Vto
p4140
F199.29
sVconfidence
p4141
F0.491
sVspeaker
p4142
I0
sVfrom
p4143
F198.71
sVfinal
p4144
I00
sa(dp4145
Vto
p4146
F199.99
sVconfidence
p4147
F0.59
sVspeaker
p4148
I0
sVfrom
p4149
F199.81
sVfinal
p4150
I00
sa(dp4151
Vto
p4152
F200.63
sVconfidence
p4153
F0.59
sVspeaker
p4154
I0
sVfrom
p4155
F199.99
sVfinal
p4156
I00
sa(dp4157
Vto
p4158
F201.19
sVconfidence
p4159
F0.598
sVspeaker
p4160
I0
sVfrom
p4161
F200.75
sVfinal
p4162
I00
sa(dp4163
Vto
p4164
F202.06
sVconfidence
p4165
F0.41
sVspeaker
p4166
I0
sVfrom
p4167
F201.22
sVfinal
p4168
I00
sa(dp4169
Vto
p4170
F202.32
sVconfidence
p4171
F0.41
sVspeaker
p4172
I0
sVfrom
p4173
F202.06
sVfinal
p4174
I00
sa(dp4175
Vto
p4176
F202.61
sVconfidence
p4177
F0.56
sVspeaker
p4178
I0
sVfrom
p4179
F202.36
sVfinal
p4180
I00
sa(dp4181
Vto
p4182
F202.92
sVconfidence
p4183
F0.56
sVspeaker
p4184
I0
sVfrom
p4185
F202.61
sVfinal
p4186
I00
sa(dp4187
Vto
p4188
F203.61
sVconfidence
p4189
F0.518
sVspeaker
p4190
I0
sVfrom
p4191
F202.95
sVfinal
p4192
I00
sa(dp4193
Vto
p4194
F204.41
sVconfidence
p4195
F0.518
sVspeaker
p4196
I0
sVfrom
p4197
F203.61
sVfinal
p4198
I00
sa(dp4199
Vto
p4200
F207.27
sVconfidence
p4201
F0.643
sVspeaker
p4202
I1
sVfrom
p4203
F207.03
sVfinal
p4204
I00
sa(dp4205
Vto
p4206
F208.24
sVconfidence
p4207
F0.435
sVspeaker
p4208
I0
sVfrom
p4209
F208.08
sVfinal
p4210
I00
sa(dp4211
Vto
p4212
F208.76
sVconfidence
p4213
F0.362
sVspeaker
p4214
I0
sVfrom
p4215
F208.41
sVfinal
p4216
I00
sa(dp4217
Vto
p4218
F208.91
sVconfidence
p4219
F0.362
sVspeaker
p4220
I0
sVfrom
p4221
F208.76
sVfinal
p4222
I00
sa(dp4223
Vto
p4224
F209.01
sVconfidence
p4225
F0.362
sVspeaker
p4226
I0
sVfrom
p4227
F208.91
sVfinal
p4228
I00
sa(dp4229
Vto
p4230
F209.19
sVconfidence
p4231
F0.362
sVspeaker
p4232
I0
sVfrom
p4233
F209.01
sVfinal
p4234
I00
sa(dp4235
Vto
p4236
F209.45
sVconfidence
p4237
F0.362
sVspeaker
p4238
I0
sVfrom
p4239
F209.19
sVfinal
p4240
I00
sa(dp4241
Vto
p4242
F209.72
sVconfidence
p4243
F0.362
sVspeaker
p4244
I0
sVfrom
p4245
F209.45
sVfinal
p4246
I00
sa(dp4247
Vto
p4248
F210.04
sVconfidence
p4249
F0.362
sVspeaker
p4250
I0
sVfrom
p4251
F209.72
sVfinal
p4252
I00
sa(dp4253
Vto
p4254
F210.68
sVconfidence
p4255
F0.458
sVspeaker
p4256
I0
sVfrom
p4257
F210.43
sVfinal
p4258
I00
sa(dp4259
Vto
p4260
F210.85
sVconfidence
p4261
F0.458
sVspeaker
p4262
I0
sVfrom
p4263
F210.68
sVfinal
p4264
I00
sa(dp4265
Vto
p4266
F211.06
sVconfidence
p4267
F0.458
sVspeaker
p4268
I0
sVfrom
p4269
F210.85
sVfinal
p4270
I00
sa(dp4271
Vto
p4272
F211.67
sVconfidence
p4273
F0.458
sVspeaker
p4274
I0
sVfrom
p4275
F211.06
sVfinal
p4276
I00
sa(dp4277
Vto
p4278
F211.83
sVconfidence
p4279
F0.509
sVspeaker
p4280
I0
sVfrom
p4281
F211.72
sVfinal
p4282
I00
sa(dp4283
Vto
p4284
F211.97
sVconfidence
p4285
F0.509
sVspeaker
p4286
I0
sVfrom
p4287
F211.83
sVfinal
p4288
I00
sa(dp4289
Vto
p4290
F212.32
sVconfidence
p4291
F0.509
sVspeaker
p4292
I0
sVfrom
p4293
F211.97
sVfinal
p4294
I00
sa(dp4295
Vto
p4296
F212.63
sVconfidence
p4297
F0.287
sVspeaker
p4298
I0
sVfrom
p4299
F212.37
sVfinal
p4300
I00
sa(dp4301
Vto
p4302
F212.75
sVconfidence
p4303
F0.287
sVspeaker
p4304
I0
sVfrom
p4305
F212.63
sVfinal
p4306
I00
sa(dp4307
Vto
p4308
F213.0
sVconfidence
p4309
F0.287
sVspeaker
p4310
I0
sVfrom
p4311
F212.75
sVfinal
p4312
I00
sa(dp4313
Vto
p4314
F213.24
sVconfidence
p4315
F0.287
sVspeaker
p4316
I0
sVfrom
p4317
F213.0
sVfinal
p4318
I00
sa(dp4319
Vto
p4320
F213.46
sVconfidence
p4321
F0.287
sVspeaker
p4322
I0
sVfrom
p4323
F213.24
sVfinal
p4324
I00
sa(dp4325
Vto
p4326
F213.79
sVconfidence
p4327
F0.287
sVspeaker
p4328
I0
sVfrom
p4329
F213.46
sVfinal
p4330
I00
sa(dp4331
Vto
p4332
F213.93
sVconfidence
p4333
F0.287
sVspeaker
p4334
I0
sVfrom
p4335
F213.79
sVfinal
p4336
I00
sa(dp4337
Vto
p4338
F214.05
sVconfidence
p4339
F0.287
sVspeaker
p4340
I0
sVfrom
p4341
F213.93
sVfinal
p4342
I00
sa(dp4343
Vto
p4344
F214.26
sVconfidence
p4345
F0.287
sVspeaker
p4346
I0
sVfrom
p4347
F214.05
sVfinal
p4348
I00
sa(dp4349
Vto
p4350
F214.38
sVconfidence
p4351
F0.287
sVspeaker
p4352
I0
sVfrom
p4353
F214.26
sVfinal
p4354
I00
sa(dp4355
Vto
p4356
F214.64
sVconfidence
p4357
F0.287
sVspeaker
p4358
I0
sVfrom
p4359
F214.38
sVfinal
p4360
I00
sa(dp4361
Vto
p4362
F214.97
sVconfidence
p4363
F0.287
sVspeaker
p4364
I0
sVfrom
p4365
F214.64
sVfinal
p4366
I00
sa(dp4367
Vto
p4368
F215.07
sVconfidence
p4369
F0.287
sVspeaker
p4370
I0
sVfrom
p4371
F214.97
sVfinal
p4372
I00
sa(dp4373
Vto
p4374
F215.29
sVconfidence
p4375
F0.287
sVspeaker
p4376
I0
sVfrom
p4377
F215.07
sVfinal
p4378
I00
sa(dp4379
Vto
p4380
F215.57
sVconfidence
p4381
F0.287
sVspeaker
p4382
I0
sVfrom
p4383
F215.29
sVfinal
p4384
I01
sas.