(dp0
Vresults
p1
(lp2
(dp3
Valternatives
p4
(lp5
(dp6
Vtimestamps
p7
(lp8
(lp9
V%HESITATION
p10
aF0.92
aF1.21
aasVconfidence
p11
F0.498
sVtranscript
p12
V%HESITATION 
p13
sasVfinal
p14
I01
sa(dp15
Valternatives
p16
(lp17
(dp18
Vtimestamps
p19
(lp20
(lp21
Vso
p22
aF4.7
aF4.94
aa(lp23
VI
p24
aF4.94
aF5.03
aa(lp25
Vcan
p26
aF5.27
aF5.44
aa(lp27
Vexplain
p28
aF5.57
aF6.04
aa(lp29
Vwhat
p30
aF6.04
aF6.19
aa(lp31
Vyou've
p32
aF6.19
aF6.28
aa(lp33
Vbeen
p34
aF6.28
aF6.38
aa(lp35
Vdoing
p36
aF6.38
aF6.58
aa(lp37
Vthis
p38
aF6.58
aF6.74
aa(lp39
Vmorning
p40
aF6.74
aF7.08
aa(lp41
Vwith
p42
aF7.08
aF7.23
aa(lp43
Vthe
p44
aF7.26
aF7.57
aa(lp45
Vthe
p46
aF7.67
aF7.78
aa(lp47
Vclaim
p48
aF7.78
aF8.09
aasVconfidence
p49
F0.642
sVtranscript
p50
Vso I can explain what you've been doing this morning with the the claim 
p51
sasVfinal
p52
I01
sa(dp53
Valternatives
p54
(lp55
(dp56
Vtimestamps
p57
(lp58
(lp59
Vyeah
p60
aF8.62
aF8.84
aa(lp61
g24
aF8.84
aF8.91
aa(lp62
V%HESITATION
p63
aF8.94
aF9.34
aa(lp64
Vway
p65
aF9.34
aF9.6
aa(lp66
VI've
p67
aF9.6
aF9.92
aa(lp68
Vbeen
p69
aF10.03
aF10.33
aa(lp70
Vseeing
p71
aF10.33
aF10.85
aa(lp72
Vyou
p73
aF10.85
aF10.92
aa(lp74
Vknow
p75
aF10.92
aF11.13
aa(lp76
Vsome
p77
aF11.13
aF11.43
aa(lp78
Vof
p79
aF11.43
aF11.52
aa(lp80
Vthe
p81
aF11.52
aF11.61
aa(lp82
Vjuniors
p83
aF11.61
aF12.16
aa(lp84
Vout
p85
aF12.16
aF12.35
aa(lp86
Vhere
p87
aF12.35
aF12.68
aa(lp88
V%HESITATION
p89
aF12.68
aF13.27
aasVconfidence
p90
F0.761
sVtranscript
p91
Vyeah I %HESITATION way I've been seeing you know some of the juniors out here %HESITATION 
p92
sasVfinal
p93
I01
sa(dp94
Valternatives
p95
(lp96
(dp97
Vtimestamps
p98
(lp99
(lp100
Vyou
p101
aF13.83
aF13.92
aa(lp102
Vknow
p103
aF13.92
aF14.32
aasVconfidence
p104
F0.999
sVtranscript
p105
Vyou know 
p106
sasVfinal
p107
I01
sa(dp108
Valternatives
p109
(lp110
(dp111
Vtimestamps
p112
(lp113
(lp114
Vthere
p115
aF14.91
aF15.12
aa(lp116
Vis
p117
aF15.15
aF15.29
aa(lp118
Vhosted
p119
aF15.29
aF15.62
aa(lp120
Vby
p121
aF15.62
aF15.91
aa(lp122
Vthe
p123
aF15.99
aF16.18
aa(lp124
Vend
p125
aF16.18
aF16.42
aa(lp126
Vof
p127
aF16.42
aF16.58
aa(lp128
Vthe
p129
aF16.58
aF16.64
aa(lp130
Vcall
p131
aF16.67
aF16.83
aa(lp132
Vfor
p133
aF16.83
aF17.02
aa(lp134
Vus
p135
aF17.02
aF17.41
aa(lp136
Vin
p137
aF17.41
aF17.9
aa(lp138
Vthe
p139
aF17.93
aF18.26
aa(lp140
Veye
p141
aF18.29
aF18.48
aa(lp142
V%HESITATION
p143
aF18.48
aF18.6
aa(lp144
Vteam
p145
aF18.6
aF19.15
aa(lp146
V%HESITATION
p147
aF19.18
aF19.47
aa(lp148
Vso
p149
aF19.47
aF19.75
aa(lp150
Vit's
p151
aF19.75
aF19.92
aa(lp152
Vit's
p153
aF19.92
aF20.15
aa(lp154
Vbeen
p155
aF20.15
aF20.32
aa(lp156
Vfine
p157
aF20.32
aF20.69
aa(lp158
Va
p159
aF20.69
aF20.81
aa(lp160
Vlot
p161
aF20.81
aF21.0
aa(lp162
Vof
p163
aF21.0
aF21.07
aa(lp164
Vtalented
p165
aF21.07
aF21.49
aa(lp166
Vjuniors
p167
aF21.49
aF21.92
aa(lp168
Vout
p169
aF21.92
aF22.12
aa(lp170
Vhere
p171
aF22.12
aF22.46
aa(lp172
Vyou
p173
aF22.46
aF22.54
aa(lp174
Vknow
p175
aF22.54
aF22.8
aa(lp176
Vwe
p177
aF23.05
aF23.21
aa(lp178
Vdo
p179
aF23.21
aF23.37
aa(lp180
Vlive
p181
aF23.37
aF23.63
aa(lp182
Vin
p183
aF23.63
aF23.69
aa(lp184
g159
aF23.69
aF23.8
aa(lp185
Vqueue
p186
aF23.83
aF24.03
aa(lp187
Vin
p188
aF24.03
aF24.19
aa(lp189
g159
aF24.19
aF24.67
aa(lp190
Vand
p191
aF24.67
aF24.86
aa(lp192
Vthen
p193
aF24.86
aF25.07
aa(lp194
g159
aF25.07
aF25.15
aa(lp195
Vlittle
p196
aF25.15
aF25.36
aa(lp197
Vbit
p198
aF25.36
aF25.46
aa(lp199
Vof
p200
aF25.46
aF25.55
aa(lp201
Vclinic
p202
aF25.55
aF26.03
aa(lp203
Vand
p204
aF26.03
aF26.19
aa(lp205
g24
aF26.19
aF26.31
aa(lp206
Vjust
p207
aF26.31
aF26.67
aa(lp208
Vhad
p209
aF26.67
aF26.76
aa(lp210
g159
aF26.76
aF26.82
aa(lp211
Vcouple
p212
aF26.82
aF27.09
aa(lp213
Vballs
p214
aF27.09
aF27.58
aa(lp215
Vso
p216
aF27.61
aF27.93
aa(lp217
Vyeah
p218
aF28.18
aF28.33
aa(lp219
Vit's
p220
aF28.33
aF28.6
aa(lp221
Vbeen
p222
aF28.6
aF28.77
aa(lp223
Vfun
p224
aF28.77
aF29.24
aa(lp225
Vand
p226
aF29.24
aF29.5
aa(lp227
V%HESITATION
p228
aF29.5
aF29.94
aa(lp229
g24
aF30.31
aF30.41
aa(lp230
Vdon't
p231
aF30.41
aF30.54
aa(lp232
Vknow
p233
aF30.54
aF30.69
aa(lp234
Vhow
p235
aF30.69
aF30.76
aa(lp236
Vmuch
p237
aF30.76
aF31.04
aa(lp238
Vhelp
p239
aF31.04
aF31.31
aa(lp240
VI've
p241
aF31.31
aF31.59
aa(lp242
Vgiven
p243
aF31.59
aF31.92
aa(lp244
Vthem
p245
aF31.92
aF32.28
aa(lp246
Vbut
p247
aF32.28
aF32.53
aa(lp248
V%HESITATION
p249
aF32.53
aF32.78
aa(lp250
Vand
p251
aF32.78
aF33.23
aa(lp252
Vknowing
p253
aF33.23
aF33.5
aa(lp254
Vthat
p255
aF33.5
aF33.68
aa(lp256
VI'm
p257
aF33.68
aF33.83
aa(lp258
Vonly
p259
aF33.83
aF34.03
aa(lp260
g159
aF34.03
aF34.09
aa(lp261
Vcouple
p262
aF34.09
aF34.39
aa(lp263
Vyears
p264
aF34.39
aF34.77
aa(lp265
Volder
p266
aF34.83
aF35.31
aa(lp267
Vthan
p268
aF35.31
aF35.44
aa(lp269
Vhim
p270
aF35.64
aF35.95
aa(lp271
Vso
p272
aF36.32
aF36.6
aa(lp273
V%HESITATION
p274
aF36.6
aF36.79
aa(lp275
Vyeah
p276
aF36.79
aF37.06
aa(lp277
Vin
p278
aF37.06
aF37.21
aa(lp279
Vthat
p280
aF37.21
aF37.43
aa(lp281
Vsense
p282
aF37.43
aF37.71
aa(lp283
Vit's
p284
aF37.71
aF37.86
aa(lp285
Vkind
p286
aF37.86
aF38.07
aa(lp287
Vof
p288
aF38.07
aF38.17
aa(lp289
Vweird
p290
aF38.17
aF38.62
aa(lp291
V%HESITATION
p292
aF38.65
aF39.11
aa(lp293
Vbut
p294
aF39.11
aF39.4
aa(lp295
Vyou
p296
aF39.4
aF39.46
aa(lp297
Vknow
p298
aF39.46
aF39.76
aa(lp299
Veven
p300
aF40.0
aF40.22
aa(lp301
Vif
p302
aF40.22
aF40.34
aa(lp303
g24
aF40.34
aF40.42
aa(lp304
Vgive
p305
aF40.42
aF40.64
aa(lp306
Vthem
p307
aF40.64
aF40.76
aa(lp308
g159
aF40.76
aF40.81
aa(lp309
Vlittle
p310
aF40.81
aF41.17
aa(lp311
Vconfidence
p312
aF41.17
aF42.0
aa(lp313
V%HESITATION
p314
aF42.03
aF42.25
aa(lp315
Vthat's
p316
aF42.25
aF42.5
aa(lp317
Vwhat
p318
aF42.5
aF42.7
aa(lp319
VI'm
p320
aF42.7
aF42.82
aa(lp321
Vhere
p322
aF42.82
aF43.06
aa(lp323
Vfor
p324
aF43.06
aF43.48
aa(lp325
Vand
p326
aF43.48
aF43.73
aa(lp327
Vno
p328
aF43.99
aF44.39
aa(lp329
Vno
p330
aF44.81
aF44.99
aa(lp331
Vit's
p332
aF44.99
aF45.2
aa(lp333
Vit's
p334
aF45.2
aF45.4
aa(lp335
Vbeen
p336
aF45.4
aF45.58
aa(lp337
Vfun
p338
aF45.58
aF45.82
aa(lp339
Vfor
p340
aF45.82
aF45.94
aa(lp341
Vme
p342
aF45.94
aF46.22
aa(lp343
Vso
p344
aF46.22
aF46.39
aa(lp345
Vhopefully
p346
aF46.39
aF46.76
aa(lp347
Vthey
p348
aF46.76
aF46.9
aa(lp349
Venjoyed
p350
aF46.9
aF47.27
aa(lp351
Vit
p352
aF47.27
aF47.37
aa(lp353
Vto
p354
aF47.37
aF47.6
aasVconfidence
p355
F0.79
sVtranscript
p356
Vthere is hosted by the end of the call for us in the eye %HESITATION team %HESITATION so it's it's been fine a lot of talented juniors out here you know we do live in a queue in a and then a little bit of clinic and I just had a couple balls so yeah it's been fun and %HESITATION I don't know how much help I've given them but %HESITATION and knowing that I'm only a couple years older than him so %HESITATION yeah in that sense it's kind of weird %HESITATION but you know even if I give them a little confidence %HESITATION that's what I'm here for and no no it's it's been fun for me so hopefully they enjoyed it to 
p357
sasVfinal
p358
I01
sasVresult_index
p359
I0
sVspeaker_labels
p360
(lp361
(dp362
Vto
p363
F1.21
sVconfidence
p364
F0.461
sVspeaker
p365
I2
sVfrom
p366
F0.92
sVfinal
p367
I00
sa(dp368
Vto
p369
F4.94
sVconfidence
p370
F0.456
sVspeaker
p371
I2
sVfrom
p372
F4.7
sVfinal
p373
I00
sa(dp374
Vto
p375
F5.03
sVconfidence
p376
F0.456
sVspeaker
p377
I2
sVfrom
p378
F4.94
sVfinal
p379
I00
sa(dp380
Vto
p381
F5.44
sVconfidence
p382
F0.375
sVspeaker
p383
I2
sVfrom
p384
F5.27
sVfinal
p385
I00
sa(dp386
Vto
p387
F6.04
sVconfidence
p388
F0.303
sVspeaker
p389
I2
sVfrom
p390
F5.57
sVfinal
p391
I00
sa(dp392
Vto
p393
F6.19
sVconfidence
p394
F0.303
sVspeaker
p395
I2
sVfrom
p396
F6.04
sVfinal
p397
I00
sa(dp398
Vto
p399
F6.28
sVconfidence
p400
F0.303
sVspeaker
p401
I2
sVfrom
p402
F6.19
sVfinal
p403
I00
sa(dp404
Vto
p405
F6.38
sVconfidence
p406
F0.303
sVspeaker
p407
I2
sVfrom
p408
F6.28
sVfinal
p409
I00
sa(dp410
Vto
p411
F6.58
sVconfidence
p412
F0.303
sVspeaker
p413
I2
sVfrom
p414
F6.38
sVfinal
p415
I00
sa(dp416
Vto
p417
F6.74
sVconfidence
p418
F0.303
sVspeaker
p419
I2
sVfrom
p420
F6.58
sVfinal
p421
I00
sa(dp422
Vto
p423
F7.08
sVconfidence
p424
F0.303
sVspeaker
p425
I2
sVfrom
p426
F6.74
sVfinal
p427
I00
sa(dp428
Vto
p429
F7.23
sVconfidence
p430
F0.303
sVspeaker
p431
I2
sVfrom
p432
F7.08
sVfinal
p433
I00
sa(dp434
Vto
p435
F7.57
sVconfidence
p436
F0.381
sVspeaker
p437
I2
sVfrom
p438
F7.26
sVfinal
p439
I00
sa(dp440
Vto
p441
F7.78
sVconfidence
p442
F0.364
sVspeaker
p443
I2
sVfrom
p444
F7.67
sVfinal
p445
I00
sa(dp446
Vto
p447
F8.09
sVconfidence
p448
F0.364
sVspeaker
p449
I2
sVfrom
p450
F7.78
sVfinal
p451
I00
sa(dp452
Vto
p453
F8.84
sVconfidence
p454
F0.463
sVspeaker
p455
I2
sVfrom
p456
F8.62
sVfinal
p457
I00
sa(dp458
Vto
p459
F8.91
sVconfidence
p460
F0.463
sVspeaker
p461
I2
sVfrom
p462
F8.84
sVfinal
p463
I00
sa(dp464
Vto
p465
F9.34
sVconfidence
p466
F0.434
sVspeaker
p467
I2
sVfrom
p468
F8.94
sVfinal
p469
I00
sa(dp470
Vto
p471
F9.6
sVconfidence
p472
F0.434
sVspeaker
p473
I2
sVfrom
p474
F9.34
sVfinal
p475
I00
sa(dp476
Vto
p477
F9.92
sVconfidence
p478
F0.434
sVspeaker
p479
I2
sVfrom
p480
F9.6
sVfinal
p481
I00
sa(dp482
Vto
p483
F10.33
sVconfidence
p484
F0.439
sVspeaker
p485
I1
sVfrom
p486
F10.03
sVfinal
p487
I00
sa(dp488
Vto
p489
F10.85
sVconfidence
p490
F0.439
sVspeaker
p491
I1
sVfrom
p492
F10.33
sVfinal
p493
I00
sa(dp494
Vto
p495
F10.92
sVconfidence
p496
F0.439
sVspeaker
p497
I1
sVfrom
p498
F10.85
sVfinal
p499
I00
sa(dp500
Vto
p501
F11.13
sVconfidence
p502
F0.439
sVspeaker
p503
I1
sVfrom
p504
F10.92
sVfinal
p505
I00
sa(dp506
Vto
p507
F11.43
sVconfidence
p508
F0.439
sVspeaker
p509
I1
sVfrom
p510
F11.13
sVfinal
p511
I00
sa(dp512
Vto
p513
F11.52
sVconfidence
p514
F0.439
sVspeaker
p515
I1
sVfrom
p516
F11.43
sVfinal
p517
I00
sa(dp518
Vto
p519
F11.61
sVconfidence
p520
F0.439
sVspeaker
p521
I1
sVfrom
p522
F11.52
sVfinal
p523
I00
sa(dp524
Vto
p525
F12.16
sVconfidence
p526
F0.439
sVspeaker
p527
I1
sVfrom
p528
F11.61
sVfinal
p529
I00
sa(dp530
Vto
p531
F12.35
sVconfidence
p532
F0.439
sVspeaker
p533
I1
sVfrom
p534
F12.16
sVfinal
p535
I00
sa(dp536
Vto
p537
F12.68
sVconfidence
p538
F0.439
sVspeaker
p539
I1
sVfrom
p540
F12.35
sVfinal
p541
I00
sa(dp542
Vto
p543
F13.27
sVconfidence
p544
F0.439
sVspeaker
p545
I1
sVfrom
p546
F12.68
sVfinal
p547
I00
sa(dp548
Vto
p549
F13.92
sVconfidence
p550
F0.382
sVspeaker
p551
I1
sVfrom
p552
F13.83
sVfinal
p553
I00
sa(dp554
Vto
p555
F14.32
sVconfidence
p556
F0.382
sVspeaker
p557
I1
sVfrom
p558
F13.92
sVfinal
p559
I00
sa(dp560
Vto
p561
F15.12
sVconfidence
p562
F0.351
sVspeaker
p563
I1
sVfrom
p564
F14.91
sVfinal
p565
I00
sa(dp566
Vto
p567
F15.29
sVconfidence
p568
F0.573
sVspeaker
p569
I1
sVfrom
p570
F15.15
sVfinal
p571
I00
sa(dp572
Vto
p573
F15.62
sVconfidence
p574
F0.573
sVspeaker
p575
I1
sVfrom
p576
F15.29
sVfinal
p577
I00
sa(dp578
Vto
p579
F15.91
sVconfidence
p580
F0.573
sVspeaker
p581
I1
sVfrom
p582
F15.62
sVfinal
p583
I00
sa(dp584
Vto
p585
F16.18
sVconfidence
p586
F0.36
sVspeaker
p587
I2
sVfrom
p588
F15.99
sVfinal
p589
I00
sa(dp590
Vto
p591
F16.42
sVconfidence
p592
F0.36
sVspeaker
p593
I2
sVfrom
p594
F16.18
sVfinal
p595
I00
sa(dp596
Vto
p597
F16.58
sVconfidence
p598
F0.36
sVspeaker
p599
I2
sVfrom
p600
F16.42
sVfinal
p601
I00
sa(dp602
Vto
p603
F16.64
sVconfidence
p604
F0.36
sVspeaker
p605
I2
sVfrom
p606
F16.58
sVfinal
p607
I00
sa(dp608
Vto
p609
F16.83
sVconfidence
p610
F0.579
sVspeaker
p611
I1
sVfrom
p612
F16.67
sVfinal
p613
I00
sa(dp614
Vto
p615
F17.02
sVconfidence
p616
F0.579
sVspeaker
p617
I1
sVfrom
p618
F16.83
sVfinal
p619
I00
sa(dp620
Vto
p621
F17.41
sVconfidence
p622
F0.579
sVspeaker
p623
I1
sVfrom
p624
F17.02
sVfinal
p625
I00
sa(dp626
Vto
p627
F17.9
sVconfidence
p628
F0.579
sVspeaker
p629
I1
sVfrom
p630
F17.41
sVfinal
p631
I00
sa(dp632
Vto
p633
F18.26
sVconfidence
p634
F0.408
sVspeaker
p635
I2
sVfrom
p636
F17.93
sVfinal
p637
I00
sa(dp638
Vto
p639
F18.48
sVconfidence
p640
F0.392
sVspeaker
p641
I2
sVfrom
p642
F18.29
sVfinal
p643
I00
sa(dp644
Vto
p645
F18.6
sVconfidence
p646
F0.392
sVspeaker
p647
I2
sVfrom
p648
F18.48
sVfinal
p649
I00
sa(dp650
Vto
p651
F19.15
sVconfidence
p652
F0.392
sVspeaker
p653
I2
sVfrom
p654
F18.6
sVfinal
p655
I00
sa(dp656
Vto
p657
F19.47
sVconfidence
p658
F0.584
sVspeaker
p659
I1
sVfrom
p660
F19.18
sVfinal
p661
I00
sa(dp662
Vto
p663
F19.75
sVconfidence
p664
F0.584
sVspeaker
p665
I1
sVfrom
p666
F19.47
sVfinal
p667
I00
sa(dp668
Vto
p669
F19.92
sVconfidence
p670
F0.584
sVspeaker
p671
I1
sVfrom
p672
F19.75
sVfinal
p673
I00
sa(dp674
Vto
p675
F20.15
sVconfidence
p676
F0.584
sVspeaker
p677
I1
sVfrom
p678
F19.92
sVfinal
p679
I00
sa(dp680
Vto
p681
F20.32
sVconfidence
p682
F0.584
sVspeaker
p683
I1
sVfrom
p684
F20.15
sVfinal
p685
I00
sa(dp686
Vto
p687
F20.69
sVconfidence
p688
F0.584
sVspeaker
p689
I1
sVfrom
p690
F20.32
sVfinal
p691
I00
sa(dp692
Vto
p693
F20.81
sVconfidence
p694
F0.584
sVspeaker
p695
I1
sVfrom
p696
F20.69
sVfinal
p697
I00
sa(dp698
Vto
p699
F21.0
sVconfidence
p700
F0.584
sVspeaker
p701
I1
sVfrom
p702
F20.81
sVfinal
p703
I00
sa(dp704
Vto
p705
F21.07
sVconfidence
p706
F0.584
sVspeaker
p707
I1
sVfrom
p708
F21.0
sVfinal
p709
I00
sa(dp710
Vto
p711
F21.49
sVconfidence
p712
F0.584
sVspeaker
p713
I1
sVfrom
p714
F21.07
sVfinal
p715
I00
sa(dp716
Vto
p717
F21.92
sVconfidence
p718
F0.584
sVspeaker
p719
I1
sVfrom
p720
F21.49
sVfinal
p721
I00
sa(dp722
Vto
p723
F22.12
sVconfidence
p724
F0.584
sVspeaker
p725
I1
sVfrom
p726
F21.92
sVfinal
p727
I00
sa(dp728
Vto
p729
F22.46
sVconfidence
p730
F0.584
sVspeaker
p731
I1
sVfrom
p732
F22.12
sVfinal
p733
I00
sa(dp734
Vto
p735
F22.54
sVconfidence
p736
F0.584
sVspeaker
p737
I1
sVfrom
p738
F22.46
sVfinal
p739
I00
sa(dp740
Vto
p741
F22.8
sVconfidence
p742
F0.584
sVspeaker
p743
I1
sVfrom
p744
F22.54
sVfinal
p745
I00
sa(dp746
Vto
p747
F23.21
sVconfidence
p748
F0.543
sVspeaker
p749
I1
sVfrom
p750
F23.05
sVfinal
p751
I00
sa(dp752
Vto
p753
F23.37
sVconfidence
p754
F0.543
sVspeaker
p755
I1
sVfrom
p756
F23.21
sVfinal
p757
I00
sa(dp758
Vto
p759
F23.63
sVconfidence
p760
F0.543
sVspeaker
p761
I1
sVfrom
p762
F23.37
sVfinal
p763
I00
sa(dp764
Vto
p765
F23.69
sVconfidence
p766
F0.543
sVspeaker
p767
I1
sVfrom
p768
F23.63
sVfinal
p769
I00
sa(dp770
Vto
p771
F23.8
sVconfidence
p772
F0.543
sVspeaker
p773
I1
sVfrom
p774
F23.69
sVfinal
p775
I00
sa(dp776
Vto
p777
F24.03
sVconfidence
p778
F0.641
sVspeaker
p779
I1
sVfrom
p780
F23.83
sVfinal
p781
I00
sa(dp782
Vto
p783
F24.19
sVconfidence
p784
F0.641
sVspeaker
p785
I1
sVfrom
p786
F24.03
sVfinal
p787
I00
sa(dp788
Vto
p789
F24.67
sVconfidence
p790
F0.641
sVspeaker
p791
I1
sVfrom
p792
F24.19
sVfinal
p793
I00
sa(dp794
Vto
p795
F24.86
sVconfidence
p796
F0.641
sVspeaker
p797
I1
sVfrom
p798
F24.67
sVfinal
p799
I00
sa(dp800
Vto
p801
F25.07
sVconfidence
p802
F0.641
sVspeaker
p803
I1
sVfrom
p804
F24.86
sVfinal
p805
I00
sa(dp806
Vto
p807
F25.15
sVconfidence
p808
F0.641
sVspeaker
p809
I1
sVfrom
p810
F25.07
sVfinal
p811
I00
sa(dp812
Vto
p813
F25.36
sVconfidence
p814
F0.641
sVspeaker
p815
I1
sVfrom
p816
F25.15
sVfinal
p817
I00
sa(dp818
Vto
p819
F25.46
sVconfidence
p820
F0.641
sVspeaker
p821
I1
sVfrom
p822
F25.36
sVfinal
p823
I00
sa(dp824
Vto
p825
F25.55
sVconfidence
p826
F0.641
sVspeaker
p827
I1
sVfrom
p828
F25.46
sVfinal
p829
I00
sa(dp830
Vto
p831
F26.03
sVconfidence
p832
F0.641
sVspeaker
p833
I1
sVfrom
p834
F25.55
sVfinal
p835
I00
sa(dp836
Vto
p837
F26.19
sVconfidence
p838
F0.641
sVspeaker
p839
I1
sVfrom
p840
F26.03
sVfinal
p841
I00
sa(dp842
Vto
p843
F26.31
sVconfidence
p844
F0.641
sVspeaker
p845
I1
sVfrom
p846
F26.19
sVfinal
p847
I00
sa(dp848
Vto
p849
F26.67
sVconfidence
p850
F0.641
sVspeaker
p851
I1
sVfrom
p852
F26.31
sVfinal
p853
I00
sa(dp854
Vto
p855
F26.76
sVconfidence
p856
F0.641
sVspeaker
p857
I1
sVfrom
p858
F26.67
sVfinal
p859
I00
sa(dp860
Vto
p861
F26.82
sVconfidence
p862
F0.641
sVspeaker
p863
I1
sVfrom
p864
F26.76
sVfinal
p865
I00
sa(dp866
Vto
p867
F27.09
sVconfidence
p868
F0.641
sVspeaker
p869
I1
sVfrom
p870
F26.82
sVfinal
p871
I00
sa(dp872
Vto
p873
F27.58
sVconfidence
p874
F0.641
sVspeaker
p875
I1
sVfrom
p876
F27.09
sVfinal
p877
I00
sa(dp878
Vto
p879
F27.93
sVconfidence
p880
F0.484
sVspeaker
p881
I1
sVfrom
p882
F27.61
sVfinal
p883
I00
sa(dp884
Vto
p885
F28.33
sVconfidence
p886
F0.504
sVspeaker
p887
I1
sVfrom
p888
F28.18
sVfinal
p889
I00
sa(dp890
Vto
p891
F28.6
sVconfidence
p892
F0.504
sVspeaker
p893
I1
sVfrom
p894
F28.33
sVfinal
p895
I00
sa(dp896
Vto
p897
F28.77
sVconfidence
p898
F0.504
sVspeaker
p899
I1
sVfrom
p900
F28.6
sVfinal
p901
I00
sa(dp902
Vto
p903
F29.24
sVconfidence
p904
F0.504
sVspeaker
p905
I1
sVfrom
p906
F28.77
sVfinal
p907
I00
sa(dp908
Vto
p909
F29.5
sVconfidence
p910
F0.504
sVspeaker
p911
I1
sVfrom
p912
F29.24
sVfinal
p913
I00
sa(dp914
Vto
p915
F29.94
sVconfidence
p916
F0.504
sVspeaker
p917
I1
sVfrom
p918
F29.5
sVfinal
p919
I00
sa(dp920
Vto
p921
F30.41
sVconfidence
p922
F0.556
sVspeaker
p923
I1
sVfrom
p924
F30.31
sVfinal
p925
I00
sa(dp926
Vto
p927
F30.54
sVconfidence
p928
F0.556
sVspeaker
p929
I1
sVfrom
p930
F30.41
sVfinal
p931
I00
sa(dp932
Vto
p933
F30.69
sVconfidence
p934
F0.556
sVspeaker
p935
I1
sVfrom
p936
F30.54
sVfinal
p937
I00
sa(dp938
Vto
p939
F30.76
sVconfidence
p940
F0.556
sVspeaker
p941
I1
sVfrom
p942
F30.69
sVfinal
p943
I00
sa(dp944
Vto
p945
F31.04
sVconfidence
p946
F0.556
sVspeaker
p947
I1
sVfrom
p948
F30.76
sVfinal
p949
I00
sa(dp950
Vto
p951
F31.31
sVconfidence
p952
F0.556
sVspeaker
p953
I1
sVfrom
p954
F31.04
sVfinal
p955
I00
sa(dp956
Vto
p957
F31.59
sVconfidence
p958
F0.556
sVspeaker
p959
I1
sVfrom
p960
F31.31
sVfinal
p961
I00
sa(dp962
Vto
p963
F31.92
sVconfidence
p964
F0.556
sVspeaker
p965
I1
sVfrom
p966
F31.59
sVfinal
p967
I00
sa(dp968
Vto
p969
F32.28
sVconfidence
p970
F0.556
sVspeaker
p971
I1
sVfrom
p972
F31.92
sVfinal
p973
I00
sa(dp974
Vto
p975
F32.53
sVconfidence
p976
F0.556
sVspeaker
p977
I1
sVfrom
p978
F32.28
sVfinal
p979
I00
sa(dp980
Vto
p981
F32.78
sVconfidence
p982
F0.556
sVspeaker
p983
I1
sVfrom
p984
F32.53
sVfinal
p985
I00
sa(dp986
Vto
p987
F33.23
sVconfidence
p988
F0.556
sVspeaker
p989
I1
sVfrom
p990
F32.78
sVfinal
p991
I00
sa(dp992
Vto
p993
F33.5
sVconfidence
p994
F0.556
sVspeaker
p995
I1
sVfrom
p996
F33.23
sVfinal
p997
I00
sa(dp998
Vto
p999
F33.68
sVconfidence
p1000
F0.556
sVspeaker
p1001
I1
sVfrom
p1002
F33.5
sVfinal
p1003
I00
sa(dp1004
Vto
p1005
F33.83
sVconfidence
p1006
F0.556
sVspeaker
p1007
I1
sVfrom
p1008
F33.68
sVfinal
p1009
I00
sa(dp1010
Vto
p1011
F34.03
sVconfidence
p1012
F0.556
sVspeaker
p1013
I1
sVfrom
p1014
F33.83
sVfinal
p1015
I00
sa(dp1016
Vto
p1017
F34.09
sVconfidence
p1018
F0.556
sVspeaker
p1019
I1
sVfrom
p1020
F34.03
sVfinal
p1021
I00
sa(dp1022
Vto
p1023
F34.39
sVconfidence
p1024
F0.556
sVspeaker
p1025
I1
sVfrom
p1026
F34.09
sVfinal
p1027
I00
sa(dp1028
Vto
p1029
F34.77
sVconfidence
p1030
F0.556
sVspeaker
p1031
I1
sVfrom
p1032
F34.39
sVfinal
p1033
I00
sa(dp1034
Vto
p1035
F35.31
sVconfidence
p1036
F0.596
sVspeaker
p1037
I1
sVfrom
p1038
F34.83
sVfinal
p1039
I00
sa(dp1040
Vto
p1041
F35.44
sVconfidence
p1042
F0.596
sVspeaker
p1043
I1
sVfrom
p1044
F35.31
sVfinal
p1045
I00
sa(dp1046
Vto
p1047
F35.95
sVconfidence
p1048
F0.471
sVspeaker
p1049
I1
sVfrom
p1050
F35.64
sVfinal
p1051
I00
sa(dp1052
Vto
p1053
F36.6
sVconfidence
p1054
F0.569
sVspeaker
p1055
I1
sVfrom
p1056
F36.32
sVfinal
p1057
I00
sa(dp1058
Vto
p1059
F36.79
sVconfidence
p1060
F0.569
sVspeaker
p1061
I1
sVfrom
p1062
F36.6
sVfinal
p1063
I00
sa(dp1064
Vto
p1065
F37.06
sVconfidence
p1066
F0.569
sVspeaker
p1067
I1
sVfrom
p1068
F36.79
sVfinal
p1069
I00
sa(dp1070
Vto
p1071
F37.21
sVconfidence
p1072
F0.569
sVspeaker
p1073
I1
sVfrom
p1074
F37.06
sVfinal
p1075
I00
sa(dp1076
Vto
p1077
F37.43
sVconfidence
p1078
F0.569
sVspeaker
p1079
I1
sVfrom
p1080
F37.21
sVfinal
p1081
I00
sa(dp1082
Vto
p1083
F37.71
sVconfidence
p1084
F0.569
sVspeaker
p1085
I1
sVfrom
p1086
F37.43
sVfinal
p1087
I00
sa(dp1088
Vto
p1089
F37.86
sVconfidence
p1090
F0.569
sVspeaker
p1091
I1
sVfrom
p1092
F37.71
sVfinal
p1093
I00
sa(dp1094
Vto
p1095
F38.07
sVconfidence
p1096
F0.569
sVspeaker
p1097
I1
sVfrom
p1098
F37.86
sVfinal
p1099
I00
sa(dp1100
Vto
p1101
F38.17
sVconfidence
p1102
F0.569
sVspeaker
p1103
I1
sVfrom
p1104
F38.07
sVfinal
p1105
I00
sa(dp1106
Vto
p1107
F38.62
sVconfidence
p1108
F0.569
sVspeaker
p1109
I1
sVfrom
p1110
F38.17
sVfinal
p1111
I00
sa(dp1112
Vto
p1113
F39.11
sVconfidence
p1114
F0.534
sVspeaker
p1115
I1
sVfrom
p1116
F38.65
sVfinal
p1117
I00
sa(dp1118
Vto
p1119
F39.4
sVconfidence
p1120
F0.534
sVspeaker
p1121
I1
sVfrom
p1122
F39.11
sVfinal
p1123
I00
sa(dp1124
Vto
p1125
F39.46
sVconfidence
p1126
F0.534
sVspeaker
p1127
I1
sVfrom
p1128
F39.4
sVfinal
p1129
I00
sa(dp1130
Vto
p1131
F39.76
sVconfidence
p1132
F0.534
sVspeaker
p1133
I1
sVfrom
p1134
F39.46
sVfinal
p1135
I00
sa(dp1136
Vto
p1137
F40.22
sVconfidence
p1138
F0.587
sVspeaker
p1139
I1
sVfrom
p1140
F40.0
sVfinal
p1141
I00
sa(dp1142
Vto
p1143
F40.34
sVconfidence
p1144
F0.587
sVspeaker
p1145
I1
sVfrom
p1146
F40.22
sVfinal
p1147
I00
sa(dp1148
Vto
p1149
F40.42
sVconfidence
p1150
F0.587
sVspeaker
p1151
I1
sVfrom
p1152
F40.34
sVfinal
p1153
I00
sa(dp1154
Vto
p1155
F40.64
sVconfidence
p1156
F0.587
sVspeaker
p1157
I1
sVfrom
p1158
F40.42
sVfinal
p1159
I00
sa(dp1160
Vto
p1161
F40.76
sVconfidence
p1162
F0.587
sVspeaker
p1163
I1
sVfrom
p1164
F40.64
sVfinal
p1165
I00
sa(dp1166
Vto
p1167
F40.81
sVconfidence
p1168
F0.587
sVspeaker
p1169
I1
sVfrom
p1170
F40.76
sVfinal
p1171
I00
sa(dp1172
Vto
p1173
F41.17
sVconfidence
p1174
F0.587
sVspeaker
p1175
I1
sVfrom
p1176
F40.81
sVfinal
p1177
I00
sa(dp1178
Vto
p1179
F42.0
sVconfidence
p1180
F0.587
sVspeaker
p1181
I1
sVfrom
p1182
F41.17
sVfinal
p1183
I00
sa(dp1184
Vto
p1185
F42.25
sVconfidence
p1186
F0.57
sVspeaker
p1187
I1
sVfrom
p1188
F42.03
sVfinal
p1189
I00
sa(dp1190
Vto
p1191
F42.5
sVconfidence
p1192
F0.57
sVspeaker
p1193
I1
sVfrom
p1194
F42.25
sVfinal
p1195
I00
sa(dp1196
Vto
p1197
F42.7
sVconfidence
p1198
F0.57
sVspeaker
p1199
I1
sVfrom
p1200
F42.5
sVfinal
p1201
I00
sa(dp1202
Vto
p1203
F42.82
sVconfidence
p1204
F0.57
sVspeaker
p1205
I1
sVfrom
p1206
F42.7
sVfinal
p1207
I00
sa(dp1208
Vto
p1209
F43.06
sVconfidence
p1210
F0.57
sVspeaker
p1211
I1
sVfrom
p1212
F42.82
sVfinal
p1213
I00
sa(dp1214
Vto
p1215
F43.48
sVconfidence
p1216
F0.57
sVspeaker
p1217
I1
sVfrom
p1218
F43.06
sVfinal
p1219
I00
sa(dp1220
Vto
p1221
F43.73
sVconfidence
p1222
F0.57
sVspeaker
p1223
I1
sVfrom
p1224
F43.48
sVfinal
p1225
I00
sa(dp1226
Vto
p1227
F44.39
sVconfidence
p1228
F0.38
sVspeaker
p1229
I2
sVfrom
p1230
F43.99
sVfinal
p1231
I00
sa(dp1232
Vto
p1233
F44.99
sVconfidence
p1234
F0.61
sVspeaker
p1235
I1
sVfrom
p1236
F44.81
sVfinal
p1237
I00
sa(dp1238
Vto
p1239
F45.2
sVconfidence
p1240
F0.61
sVspeaker
p1241
I1
sVfrom
p1242
F44.99
sVfinal
p1243
I00
sa(dp1244
Vto
p1245
F45.4
sVconfidence
p1246
F0.61
sVspeaker
p1247
I1
sVfrom
p1248
F45.2
sVfinal
p1249
I00
sa(dp1250
Vto
p1251
F45.58
sVconfidence
p1252
F0.61
sVspeaker
p1253
I1
sVfrom
p1254
F45.4
sVfinal
p1255
I00
sa(dp1256
Vto
p1257
F45.82
sVconfidence
p1258
F0.61
sVspeaker
p1259
I1
sVfrom
p1260
F45.58
sVfinal
p1261
I00
sa(dp1262
Vto
p1263
F45.94
sVconfidence
p1264
F0.61
sVspeaker
p1265
I1
sVfrom
p1266
F45.82
sVfinal
p1267
I00
sa(dp1268
Vto
p1269
F46.22
sVconfidence
p1270
F0.61
sVspeaker
p1271
I1
sVfrom
p1272
F45.94
sVfinal
p1273
I00
sa(dp1274
Vto
p1275
F46.39
sVconfidence
p1276
F0.61
sVspeaker
p1277
I1
sVfrom
p1278
F46.22
sVfinal
p1279
I00
sa(dp1280
Vto
p1281
F46.76
sVconfidence
p1282
F0.61
sVspeaker
p1283
I1
sVfrom
p1284
F46.39
sVfinal
p1285
I00
sa(dp1286
Vto
p1287
F46.9
sVconfidence
p1288
F0.61
sVspeaker
p1289
I1
sVfrom
p1290
F46.76
sVfinal
p1291
I00
sa(dp1292
Vto
p1293
F47.27
sVconfidence
p1294
F0.61
sVspeaker
p1295
I1
sVfrom
p1296
F46.9
sVfinal
p1297
I00
sa(dp1298
Vto
p1299
F47.37
sVconfidence
p1300
F0.61
sVspeaker
p1301
I1
sVfrom
p1302
F47.27
sVfinal
p1303
I00
sa(dp1304
Vto
p1305
F47.6
sVconfidence
p1306
F0.61
sVspeaker
p1307
I1
sVfrom
p1308
F47.37
sVfinal
p1309
I01
sas.