(dp0
Vresults
p1
(lp2
(dp3
Valternatives
p4
(lp5
(dp6
Vtimestamps
p7
(lp8
(lp9
V%HESITATION
p10
aF0.91
aF1.27
aasVconfidence
p11
F0.632
sVtranscript
p12
V%HESITATION 
p13
sasVfinal
p14
I01
sa(dp15
Valternatives
p16
(lp17
(dp18
Vtimestamps
p19
(lp20
(lp21
Vvideo
p22
aF6.63
aF6.93
aa(lp23
Vfootage
p24
aF6.93
aF7.29
aa(lp25
Vhis
p26
aF7.29
aF7.48
aa(lp27
Vimage
p28
aF7.48
aF7.88
aa(lp29
Vof
p30
aF7.96
aF8.13
aa(lp31
VNew
p32
aF8.18
aF8.37
aa(lp33
VZealand
p34
aF8.37
aF8.74
aa(lp35
Vfugitive
p36
aF8.77
aF9.38
aa(lp37
VJohn
p38
aF9.75
aF10.08
aa(lp39
VSmith
p40
aF10.08
aF10.48
aa(lp41
Vthing
p42
aF10.51
aF10.68
aa(lp43
Vto
p44
aF10.68
aF10.79
aa(lp45
Vreset
p46
aF10.79
aF11.2
aa(lp47
Vat
p48
aF11.2
aF11.34
aa(lp49
Va
p50
aF11.34
aF11.4
aa(lp51
Vyouth
p52
aF11.4
aF11.69
aa(lp53
Vhostel
p54
aF11.69
aF12.24
aa(lp55
Vin
p56
aF12.45
aF12.54
aa(lp57
Vthe
p58
aF12.54
aF12.62
aa(lp59
Vcenter
p60
aF12.62
aF12.95
aa(lp61
Vto
p62
aF12.98
aF13.15
aa(lp63
Vraise
p64
aF13.15
aF13.39
aa(lp65
g50
aF13.39
aF13.45
aa(lp66
Vsuburb
p67
aF13.45
aF13.92
aa(lp68
Vof
p69
aF13.92
aF14.1
aa(lp70
VRio
p71
aF14.1
aF14.41
aa(lp72
Vde
p73
aF14.41
aF14.58
aa(lp74
VJaneiro
p75
aF14.58
aF15.22
aasVconfidence
p76
F0.804
sVtranscript
p77
Vvideo footage his image of New Zealand fugitive John Smith thing to reset at a youth hostel in the center to raise a suburb of Rio de Janeiro 
p78
sasVfinal
p79
I01
sa(dp80
Valternatives
p81
(lp82
(dp83
Vtimestamps
p84
(lp85
(lp86
Vbut
p87
aF16.4
aF16.55
aa(lp88
Vit
p89
aF16.55
aF16.65
aa(lp90
Vshows
p91
aF16.65
aF17.0
aa(lp92
Vthe
p93
aF17.0
aF17.09
aa(lp94
Vsmithing
p95
aF17.09
aF17.61
aa(lp96
Vhang
p97
aF17.61
aF17.86
aa(lp98
Vcaptain
p99
aF17.86
aF18.27
aa(lp100
Vstage
p101
aF18.27
aF18.64
aa(lp102
Vwhile
p103
aF18.64
aF18.86
aa(lp104
Vin
p105
aF18.86
aF18.97
aa(lp106
Voffice
p107
aF19.0
aF19.28
aa(lp108
Vto
p109
aF19.28
aF19.38
aa(lp110
Vconvince
p111
aF19.38
aF19.89
aa(lp112
Vthe
p113
aF19.89
aF20.06
aa(lp114
Vhouse
p115
aF20.09
aF20.41
aa(lp116
Vand
p117
aF20.41
aF20.61
aa(lp118
Vhis
p119
aF20.61
aF20.81
aa(lp120
Vpossible
p121
aF20.84
aF21.38
aasVconfidence
p122
F0.554
sVtranscript
p123
Vbut it shows the smithing hang captain stage while in office to convince the house and his possible 
p124
sasVfinal
p125
I01
sa(dp126
Valternatives
p127
(lp128
(dp129
Vtimestamps
p130
(lp131
(lp132
VSmith
p133
aF22.46
aF22.72
aa(lp134
Vwas
p135
aF22.72
aF22.87
aa(lp136
Varrested
p137
aF22.87
aF23.39
aa(lp138
Vby
p139
aF23.54
aF23.67
aa(lp140
Vfederal
p141
aF23.67
aF24.04
aa(lp142
Vplace
p143
aF24.04
aF24.36
aa(lp144
Vto
p145
aF24.5
aF24.58
aa(lp146
Vlive
p147
aF24.58
aF24.78
aa(lp148
Vand
p149
aF24.78
aF24.9
aa(lp150
VI
p151
aF24.9
aF24.98
aa(lp152
Vam
p153
aF24.98
aF25.23
aa(lp154
Vlocal
p155
aF25.26
aF25.66
aa(lp156
Vtime
p157
aF25.66
aF26.16
aa(lp158
VSmith
p159
aF26.7
aF27.05
aa(lp160
Vhad
p161
aF27.05
aF27.23
aa(lp162
Vnot
p163
aF27.23
aF27.45
aa(lp164
Vtried
p165
aF27.45
aF27.78
aa(lp166
Vto
p167
aF27.78
aF27.87
aa(lp168
Vchange
p169
aF27.87
aF28.18
aa(lp170
Vhis
p171
aF28.18
aF28.3
aa(lp172
Vappearance
p173
aF28.3
aF28.72
aa(lp174
Vand
p175
aF28.72
aF28.88
aa(lp176
Vit
p177
aF28.88
aF28.97
aa(lp178
Vtook
p179
aF28.97
aF29.16
aa(lp180
Voff
p181
aF29.16
aF29.3
aa(lp182
Vfrom
p183
aF29.3
aF29.48
aa(lp184
g50
aF29.48
aF29.55
aa(lp185
Vlike
p186
aF29.55
aF29.8
aa(lp187
V%HESITATION
p188
aF29.8
aF29.9
aa(lp189
Vhad
p190
aF29.9
aF30.11
aa(lp191
Vseen
p192
aF30.11
aF30.37
aa(lp193
Vhis
p194
aF30.37
aF30.53
aa(lp195
Vpicture
p196
aF30.53
aF30.82
aa(lp197
Von
p198
aF30.82
aF30.98
aa(lp199
Vtelevision
p200
aF30.98
aF31.62
aa(lp201
Vlead
p202
aF31.89
aF32.19
aa(lp203
Vpolice
p204
aF32.19
aF32.52
aa(lp205
Vto
p206
aF32.52
aF32.65
aa(lp207
Vthe
p208
aF32.65
aF32.76
aa(lp209
Vhospital
p210
aF32.76
aF33.35
aa(lp211
VSmith
p212
aF33.84
aF34.19
aa(lp213
Vis
p214
aF34.19
aF34.31
aa(lp215
Vbeing
p216
aF34.31
aF34.5
aa(lp217
Vheld
p218
aF34.5
aF34.81
aa(lp219
Vat
p220
aF34.81
aF34.9
aa(lp221
Vthe
p222
aF34.9
aF34.99
aa(lp223
Vfederal
p224
aF34.99
aF35.42
aa(lp225
Vpolice
p226
aF35.45
aF35.77
aa(lp227
Vhe
p228
aF35.77
aF35.93
aa(lp229
Vquite
p230
aF35.93
aF36.18
aa(lp231
Vdoesn't
p232
aF36.18
aF36.48
aa(lp233
Vseem
p234
aF36.48
aF36.67
aa(lp235
Vto
p236
aF36.67
aF36.81
aa(lp237
Vre
p238
aF36.81
aF37.06
aa(lp239
Vare
p240
aF37.06
aF37.32
aa(lp241
Vexpected
p242
aF37.82
aF38.27
aa(lp243
Vto
p244
aF38.27
aF38.33
aa(lp245
Vbe
p246
aF38.33
aF38.45
aa(lp247
Vtransferred
p248
aF38.45
aF39.06
aa(lp249
Vto
p250
aF39.06
aF39.17
aa(lp251
Van
p252
aF39.17
aF39.29
aa(lp253
g50
aF39.29
aF39.38
aa(lp254
VTaurus
p255
aF39.38
aF39.86
aa(lp256
Vpresent
p257
aF39.86
aF40.32
aa(lp258
Vone
p259
aF40.68
aF40.9
aa(lp260
Vis
p261
aF40.9
aF41.1
aa(lp262
Vbeing
p263
aF41.1
aF41.26
aa(lp264
Vcondemned
p265
aF41.26
aF41.84
aa(lp266
Vby
p267
aF41.97
aF42.16
aa(lp268
Vthe
p269
aF42.16
aF42.3
aa(lp270
VUnited
p271
aF42.3
aF42.71
aa(lp272
VNations
p273
aF42.71
aF43.15
aa(lp274
Vfor
p275
aF43.15
aF43.3
aa(lp276
Vit's
p277
aF43.3
aF43.46
aa(lp278
Vinhumane
p279
aF43.49
aF44.22
aa(lp280
Vconditions
p281
aF44.28
aF44.76
aa(lp282
Vthe
p283
aF45.28
aF45.45
aa(lp284
Vdoctrine
p285
aF45.95
aF46.47
aa(lp286
Vor
p287
aF46.47
aF46.7
aa(lp288
Vwith
p289
aF47.27
aF47.45
aa(lp290
g50
aF47.6
aF47.65
aa(lp291
Vlot
p292
aF47.65
aF47.95
aasVconfidence
p293
F0.758
sVtranscript
p294
VSmith was arrested by federal place to live and I am local time Smith had not tried to change his appearance and it took off from a like %HESITATION had seen his picture on television lead police to the hospital Smith is being held at the federal police he quite doesn't seem to re are expected to be transferred to an a Taurus present one is being condemned by the United Nations for it's inhumane conditions the doctrine or with a lot 
p295
sasVfinal
p296
I01
sa(dp297
Valternatives
p298
(lp299
(dp300
Vtimestamps
p301
(lp302
(lp303
g151
aF49.9
aF49.96
aa(lp304
Vcan
p305
aF49.96
aF50.12
aa(lp306
Valmost
p307
aF50.12
aF50.36
aa(lp308
Vfeel
p309
aF50.36
aF50.5
aa(lp310
Vit
p311
aF50.5
aF50.58
aasVconfidence
p312
F0.531
sVtranscript
p313
VI can almost feel it 
p314
sasVfinal
p315
I01
sa(dp316
Valternatives
p317
(lp318
(dp319
Vtimestamps
p320
(lp321
(lp322
Vokay
p323
aF51.34
aF51.64
aasVconfidence
p324
F0.266
sVtranscript
p325
Vokay 
p326
sasVfinal
p327
I01
sa(dp328
Valternatives
p329
(lp330
(dp331
Vtimestamps
p332
(lp333
(lp334
Vit's
p335
aF52.58
aF52.77
aa(lp336
g50
aF52.77
aF52.82
aa(lp337
Vwhole
p338
aF52.82
aF52.99
aasVconfidence
p339
F0.543
sVtranscript
p340
Vit's a whole 
p341
sasVfinal
p342
I01
sasVresult_index
p343
I0
sVspeaker_labels
p344
(lp345
(dp346
Vto
p347
F1.27
sVconfidence
p348
F0.5
sVspeaker
p349
I0
sVfrom
p350
F0.91
sVfinal
p351
I00
sa(dp352
Vto
p353
F6.93
sVconfidence
p354
F0.373
sVspeaker
p355
I2
sVfrom
p356
F6.63
sVfinal
p357
I00
sa(dp358
Vto
p359
F7.29
sVconfidence
p360
F0.373
sVspeaker
p361
I2
sVfrom
p362
F6.93
sVfinal
p363
I00
sa(dp364
Vto
p365
F7.48
sVconfidence
p366
F0.373
sVspeaker
p367
I2
sVfrom
p368
F7.29
sVfinal
p369
I00
sa(dp370
Vto
p371
F7.88
sVconfidence
p372
F0.373
sVspeaker
p373
I2
sVfrom
p374
F7.48
sVfinal
p375
I00
sa(dp376
Vto
p377
F8.13
sVconfidence
p378
F0.456
sVspeaker
p379
I2
sVfrom
p380
F7.96
sVfinal
p381
I00
sa(dp382
Vto
p383
F8.37
sVconfidence
p384
F0.319
sVspeaker
p385
I2
sVfrom
p386
F8.18
sVfinal
p387
I00
sa(dp388
Vto
p389
F8.74
sVconfidence
p390
F0.319
sVspeaker
p391
I2
sVfrom
p392
F8.37
sVfinal
p393
I00
sa(dp394
Vto
p395
F9.38
sVconfidence
p396
F0.403
sVspeaker
p397
I2
sVfrom
p398
F8.77
sVfinal
p399
I00
sa(dp400
Vto
p401
F10.08
sVconfidence
p402
F0.41
sVspeaker
p403
I2
sVfrom
p404
F9.75
sVfinal
p405
I00
sa(dp406
Vto
p407
F10.48
sVconfidence
p408
F0.41
sVspeaker
p409
I2
sVfrom
p410
F10.08
sVfinal
p411
I00
sa(dp412
Vto
p413
F10.68
sVconfidence
p414
F0.528
sVspeaker
p415
I2
sVfrom
p416
F10.51
sVfinal
p417
I00
sa(dp418
Vto
p419
F10.79
sVconfidence
p420
F0.528
sVspeaker
p421
I2
sVfrom
p422
F10.68
sVfinal
p423
I00
sa(dp424
Vto
p425
F11.2
sVconfidence
p426
F0.528
sVspeaker
p427
I2
sVfrom
p428
F10.79
sVfinal
p429
I00
sa(dp430
Vto
p431
F11.34
sVconfidence
p432
F0.528
sVspeaker
p433
I2
sVfrom
p434
F11.2
sVfinal
p435
I00
sa(dp436
Vto
p437
F11.4
sVconfidence
p438
F0.528
sVspeaker
p439
I2
sVfrom
p440
F11.34
sVfinal
p441
I00
sa(dp442
Vto
p443
F11.69
sVconfidence
p444
F0.528
sVspeaker
p445
I2
sVfrom
p446
F11.4
sVfinal
p447
I00
sa(dp448
Vto
p449
F12.24
sVconfidence
p450
F0.528
sVspeaker
p451
I2
sVfrom
p452
F11.69
sVfinal
p453
I00
sa(dp454
Vto
p455
F12.54
sVconfidence
p456
F0.419
sVspeaker
p457
I2
sVfrom
p458
F12.45
sVfinal
p459
I00
sa(dp460
Vto
p461
F12.62
sVconfidence
p462
F0.419
sVspeaker
p463
I2
sVfrom
p464
F12.54
sVfinal
p465
I00
sa(dp466
Vto
p467
F12.95
sVconfidence
p468
F0.419
sVspeaker
p469
I2
sVfrom
p470
F12.62
sVfinal
p471
I00
sa(dp472
Vto
p473
F13.15
sVconfidence
p474
F0.351
sVspeaker
p475
I2
sVfrom
p476
F12.98
sVfinal
p477
I00
sa(dp478
Vto
p479
F13.39
sVconfidence
p480
F0.351
sVspeaker
p481
I2
sVfrom
p482
F13.15
sVfinal
p483
I00
sa(dp484
Vto
p485
F13.45
sVconfidence
p486
F0.351
sVspeaker
p487
I2
sVfrom
p488
F13.39
sVfinal
p489
I00
sa(dp490
Vto
p491
F13.92
sVconfidence
p492
F0.351
sVspeaker
p493
I2
sVfrom
p494
F13.45
sVfinal
p495
I00
sa(dp496
Vto
p497
F14.1
sVconfidence
p498
F0.351
sVspeaker
p499
I2
sVfrom
p500
F13.92
sVfinal
p501
I00
sa(dp502
Vto
p503
F14.41
sVconfidence
p504
F0.351
sVspeaker
p505
I2
sVfrom
p506
F14.1
sVfinal
p507
I00
sa(dp508
Vto
p509
F14.58
sVconfidence
p510
F0.351
sVspeaker
p511
I2
sVfrom
p512
F14.41
sVfinal
p513
I00
sa(dp514
Vto
p515
F15.22
sVconfidence
p516
F0.351
sVspeaker
p517
I2
sVfrom
p518
F14.58
sVfinal
p519
I00
sa(dp520
Vto
p521
F16.55
sVconfidence
p522
F0.555
sVspeaker
p523
I2
sVfrom
p524
F16.4
sVfinal
p525
I00
sa(dp526
Vto
p527
F16.65
sVconfidence
p528
F0.555
sVspeaker
p529
I2
sVfrom
p530
F16.55
sVfinal
p531
I00
sa(dp532
Vto
p533
F17.0
sVconfidence
p534
F0.555
sVspeaker
p535
I2
sVfrom
p536
F16.65
sVfinal
p537
I00
sa(dp538
Vto
p539
F17.09
sVconfidence
p540
F0.555
sVspeaker
p541
I2
sVfrom
p542
F17.0
sVfinal
p543
I00
sa(dp544
Vto
p545
F17.61
sVconfidence
p546
F0.555
sVspeaker
p547
I2
sVfrom
p548
F17.09
sVfinal
p549
I00
sa(dp550
Vto
p551
F17.86
sVconfidence
p552
F0.555
sVspeaker
p553
I2
sVfrom
p554
F17.61
sVfinal
p555
I00
sa(dp556
Vto
p557
F18.27
sVconfidence
p558
F0.555
sVspeaker
p559
I2
sVfrom
p560
F17.86
sVfinal
p561
I00
sa(dp562
Vto
p563
F18.64
sVconfidence
p564
F0.555
sVspeaker
p565
I2
sVfrom
p566
F18.27
sVfinal
p567
I00
sa(dp568
Vto
p569
F18.86
sVconfidence
p570
F0.555
sVspeaker
p571
I2
sVfrom
p572
F18.64
sVfinal
p573
I00
sa(dp574
Vto
p575
F18.97
sVconfidence
p576
F0.555
sVspeaker
p577
I2
sVfrom
p578
F18.86
sVfinal
p579
I00
sa(dp580
Vto
p581
F19.28
sVconfidence
p582
F0.329
sVspeaker
p583
I2
sVfrom
p584
F19.0
sVfinal
p585
I00
sa(dp586
Vto
p587
F19.38
sVconfidence
p588
F0.329
sVspeaker
p589
I2
sVfrom
p590
F19.28
sVfinal
p591
I00
sa(dp592
Vto
p593
F19.89
sVconfidence
p594
F0.329
sVspeaker
p595
I2
sVfrom
p596
F19.38
sVfinal
p597
I00
sa(dp598
Vto
p599
F20.06
sVconfidence
p600
F0.329
sVspeaker
p601
I2
sVfrom
p602
F19.89
sVfinal
p603
I00
sa(dp604
Vto
p605
F20.41
sVconfidence
p606
F0.281
sVspeaker
p607
I0
sVfrom
p608
F20.09
sVfinal
p609
I00
sa(dp610
Vto
p611
F20.61
sVconfidence
p612
F0.281
sVspeaker
p613
I0
sVfrom
p614
F20.41
sVfinal
p615
I00
sa(dp616
Vto
p617
F20.81
sVconfidence
p618
F0.281
sVspeaker
p619
I0
sVfrom
p620
F20.61
sVfinal
p621
I00
sa(dp622
Vto
p623
F21.38
sVconfidence
p624
F0.574
sVspeaker
p625
I0
sVfrom
p626
F20.84
sVfinal
p627
I00
sa(dp628
Vto
p629
F22.72
sVconfidence
p630
F0.551
sVspeaker
p631
I2
sVfrom
p632
F22.46
sVfinal
p633
I00
sa(dp634
Vto
p635
F22.87
sVconfidence
p636
F0.551
sVspeaker
p637
I2
sVfrom
p638
F22.72
sVfinal
p639
I00
sa(dp640
Vto
p641
F23.39
sVconfidence
p642
F0.551
sVspeaker
p643
I2
sVfrom
p644
F22.87
sVfinal
p645
I00
sa(dp646
Vto
p647
F23.67
sVconfidence
p648
F0.493
sVspeaker
p649
I2
sVfrom
p650
F23.54
sVfinal
p651
I00
sa(dp652
Vto
p653
F24.04
sVconfidence
p654
F0.493
sVspeaker
p655
I2
sVfrom
p656
F23.67
sVfinal
p657
I00
sa(dp658
Vto
p659
F24.36
sVconfidence
p660
F0.493
sVspeaker
p661
I2
sVfrom
p662
F24.04
sVfinal
p663
I00
sa(dp664
Vto
p665
F24.58
sVconfidence
p666
F0.503
sVspeaker
p667
I2
sVfrom
p668
F24.5
sVfinal
p669
I00
sa(dp670
Vto
p671
F24.78
sVconfidence
p672
F0.503
sVspeaker
p673
I2
sVfrom
p674
F24.58
sVfinal
p675
I00
sa(dp676
Vto
p677
F24.9
sVconfidence
p678
F0.503
sVspeaker
p679
I2
sVfrom
p680
F24.78
sVfinal
p681
I00
sa(dp682
Vto
p683
F24.98
sVconfidence
p684
F0.503
sVspeaker
p685
I2
sVfrom
p686
F24.9
sVfinal
p687
I00
sa(dp688
Vto
p689
F25.23
sVconfidence
p690
F0.503
sVspeaker
p691
I2
sVfrom
p692
F24.98
sVfinal
p693
I00
sa(dp694
Vto
p695
F25.66
sVconfidence
p696
F0.39
sVspeaker
p697
I0
sVfrom
p698
F25.26
sVfinal
p699
I00
sa(dp700
Vto
p701
F26.16
sVconfidence
p702
F0.39
sVspeaker
p703
I0
sVfrom
p704
F25.66
sVfinal
p705
I00
sa(dp706
Vto
p707
F27.05
sVconfidence
p708
F0.596
sVspeaker
p709
I2
sVfrom
p710
F26.7
sVfinal
p711
I00
sa(dp712
Vto
p713
F27.23
sVconfidence
p714
F0.596
sVspeaker
p715
I2
sVfrom
p716
F27.05
sVfinal
p717
I00
sa(dp718
Vto
p719
F27.45
sVconfidence
p720
F0.596
sVspeaker
p721
I2
sVfrom
p722
F27.23
sVfinal
p723
I00
sa(dp724
Vto
p725
F27.78
sVconfidence
p726
F0.596
sVspeaker
p727
I2
sVfrom
p728
F27.45
sVfinal
p729
I00
sa(dp730
Vto
p731
F27.87
sVconfidence
p732
F0.596
sVspeaker
p733
I2
sVfrom
p734
F27.78
sVfinal
p735
I00
sa(dp736
Vto
p737
F28.18
sVconfidence
p738
F0.596
sVspeaker
p739
I2
sVfrom
p740
F27.87
sVfinal
p741
I00
sa(dp742
Vto
p743
F28.3
sVconfidence
p744
F0.596
sVspeaker
p745
I2
sVfrom
p746
F28.18
sVfinal
p747
I00
sa(dp748
Vto
p749
F28.72
sVconfidence
p750
F0.596
sVspeaker
p751
I2
sVfrom
p752
F28.3
sVfinal
p753
I00
sa(dp754
Vto
p755
F28.88
sVconfidence
p756
F0.596
sVspeaker
p757
I2
sVfrom
p758
F28.72
sVfinal
p759
I00
sa(dp760
Vto
p761
F28.97
sVconfidence
p762
F0.596
sVspeaker
p763
I2
sVfrom
p764
F28.88
sVfinal
p765
I00
sa(dp766
Vto
p767
F29.16
sVconfidence
p768
F0.596
sVspeaker
p769
I2
sVfrom
p770
F28.97
sVfinal
p771
I00
sa(dp772
Vto
p773
F29.3
sVconfidence
p774
F0.596
sVspeaker
p775
I2
sVfrom
p776
F29.16
sVfinal
p777
I00
sa(dp778
Vto
p779
F29.48
sVconfidence
p780
F0.596
sVspeaker
p781
I2
sVfrom
p782
F29.3
sVfinal
p783
I00
sa(dp784
Vto
p785
F29.55
sVconfidence
p786
F0.596
sVspeaker
p787
I2
sVfrom
p788
F29.48
sVfinal
p789
I00
sa(dp790
Vto
p791
F29.8
sVconfidence
p792
F0.596
sVspeaker
p793
I2
sVfrom
p794
F29.55
sVfinal
p795
I00
sa(dp796
Vto
p797
F29.9
sVconfidence
p798
F0.596
sVspeaker
p799
I2
sVfrom
p800
F29.8
sVfinal
p801
I00
sa(dp802
Vto
p803
F30.11
sVconfidence
p804
F0.596
sVspeaker
p805
I2
sVfrom
p806
F29.9
sVfinal
p807
I00
sa(dp808
Vto
p809
F30.37
sVconfidence
p810
F0.596
sVspeaker
p811
I2
sVfrom
p812
F30.11
sVfinal
p813
I00
sa(dp814
Vto
p815
F30.53
sVconfidence
p816
F0.596
sVspeaker
p817
I2
sVfrom
p818
F30.37
sVfinal
p819
I00
sa(dp820
Vto
p821
F30.82
sVconfidence
p822
F0.596
sVspeaker
p823
I2
sVfrom
p824
F30.53
sVfinal
p825
I00
sa(dp826
Vto
p827
F30.98
sVconfidence
p828
F0.596
sVspeaker
p829
I2
sVfrom
p830
F30.82
sVfinal
p831
I00
sa(dp832
Vto
p833
F31.62
sVconfidence
p834
F0.596
sVspeaker
p835
I2
sVfrom
p836
F30.98
sVfinal
p837
I00
sa(dp838
Vto
p839
F32.19
sVconfidence
p840
F0.579
sVspeaker
p841
I2
sVfrom
p842
F31.89
sVfinal
p843
I00
sa(dp844
Vto
p845
F32.52
sVconfidence
p846
F0.579
sVspeaker
p847
I2
sVfrom
p848
F32.19
sVfinal
p849
I00
sa(dp850
Vto
p851
F32.65
sVconfidence
p852
F0.579
sVspeaker
p853
I2
sVfrom
p854
F32.52
sVfinal
p855
I00
sa(dp856
Vto
p857
F32.76
sVconfidence
p858
F0.579
sVspeaker
p859
I2
sVfrom
p860
F32.65
sVfinal
p861
I00
sa(dp862
Vto
p863
F33.35
sVconfidence
p864
F0.579
sVspeaker
p865
I2
sVfrom
p866
F32.76
sVfinal
p867
I00
sa(dp868
Vto
p869
F34.19
sVconfidence
p870
F0.533
sVspeaker
p871
I2
sVfrom
p872
F33.84
sVfinal
p873
I00
sa(dp874
Vto
p875
F34.31
sVconfidence
p876
F0.533
sVspeaker
p877
I2
sVfrom
p878
F34.19
sVfinal
p879
I00
sa(dp880
Vto
p881
F34.5
sVconfidence
p882
F0.533
sVspeaker
p883
I2
sVfrom
p884
F34.31
sVfinal
p885
I00
sa(dp886
Vto
p887
F34.81
sVconfidence
p888
F0.533
sVspeaker
p889
I2
sVfrom
p890
F34.5
sVfinal
p891
I00
sa(dp892
Vto
p893
F34.9
sVconfidence
p894
F0.533
sVspeaker
p895
I2
sVfrom
p896
F34.81
sVfinal
p897
I00
sa(dp898
Vto
p899
F34.99
sVconfidence
p900
F0.533
sVspeaker
p901
I2
sVfrom
p902
F34.9
sVfinal
p903
I00
sa(dp904
Vto
p905
F35.42
sVconfidence
p906
F0.533
sVspeaker
p907
I2
sVfrom
p908
F34.99
sVfinal
p909
I00
sa(dp910
Vto
p911
F35.77
sVconfidence
p912
F0.511
sVspeaker
p913
I2
sVfrom
p914
F35.45
sVfinal
p915
I00
sa(dp916
Vto
p917
F35.93
sVconfidence
p918
F0.511
sVspeaker
p919
I2
sVfrom
p920
F35.77
sVfinal
p921
I00
sa(dp922
Vto
p923
F36.18
sVconfidence
p924
F0.511
sVspeaker
p925
I2
sVfrom
p926
F35.93
sVfinal
p927
I00
sa(dp928
Vto
p929
F36.48
sVconfidence
p930
F0.511
sVspeaker
p931
I2
sVfrom
p932
F36.18
sVfinal
p933
I00
sa(dp934
Vto
p935
F36.67
sVconfidence
p936
F0.511
sVspeaker
p937
I2
sVfrom
p938
F36.48
sVfinal
p939
I00
sa(dp940
Vto
p941
F36.81
sVconfidence
p942
F0.511
sVspeaker
p943
I2
sVfrom
p944
F36.67
sVfinal
p945
I00
sa(dp946
Vto
p947
F37.06
sVconfidence
p948
F0.511
sVspeaker
p949
I2
sVfrom
p950
F36.81
sVfinal
p951
I00
sa(dp952
Vto
p953
F37.32
sVconfidence
p954
F0.511
sVspeaker
p955
I2
sVfrom
p956
F37.06
sVfinal
p957
I00
sa(dp958
Vto
p959
F38.27
sVconfidence
p960
F0.543
sVspeaker
p961
I2
sVfrom
p962
F37.82
sVfinal
p963
I00
sa(dp964
Vto
p965
F38.33
sVconfidence
p966
F0.543
sVspeaker
p967
I2
sVfrom
p968
F38.27
sVfinal
p969
I00
sa(dp970
Vto
p971
F38.45
sVconfidence
p972
F0.543
sVspeaker
p973
I2
sVfrom
p974
F38.33
sVfinal
p975
I00
sa(dp976
Vto
p977
F39.06
sVconfidence
p978
F0.543
sVspeaker
p979
I2
sVfrom
p980
F38.45
sVfinal
p981
I00
sa(dp982
Vto
p983
F39.17
sVconfidence
p984
F0.543
sVspeaker
p985
I2
sVfrom
p986
F39.06
sVfinal
p987
I00
sa(dp988
Vto
p989
F39.29
sVconfidence
p990
F0.543
sVspeaker
p991
I2
sVfrom
p992
F39.17
sVfinal
p993
I00
sa(dp994
Vto
p995
F39.38
sVconfidence
p996
F0.543
sVspeaker
p997
I2
sVfrom
p998
F39.29
sVfinal
p999
I00
sa(dp1000
Vto
p1001
F39.86
sVconfidence
p1002
F0.543
sVspeaker
p1003
I2
sVfrom
p1004
F39.38
sVfinal
p1005
I00
sa(dp1006
Vto
p1007
F40.32
sVconfidence
p1008
F0.543
sVspeaker
p1009
I2
sVfrom
p1010
F39.86
sVfinal
p1011
I00
sa(dp1012
Vto
p1013
F40.9
sVconfidence
p1014
F0.414
sVspeaker
p1015
I2
sVfrom
p1016
F40.68
sVfinal
p1017
I00
sa(dp1018
Vto
p1019
F41.1
sVconfidence
p1020
F0.414
sVspeaker
p1021
I2
sVfrom
p1022
F40.9
sVfinal
p1023
I00
sa(dp1024
Vto
p1025
F41.26
sVconfidence
p1026
F0.414
sVspeaker
p1027
I2
sVfrom
p1028
F41.1
sVfinal
p1029
I00
sa(dp1030
Vto
p1031
F41.84
sVconfidence
p1032
F0.414
sVspeaker
p1033
I2
sVfrom
p1034
F41.26
sVfinal
p1035
I00
sa(dp1036
Vto
p1037
F42.16
sVconfidence
p1038
F0.536
sVspeaker
p1039
I2
sVfrom
p1040
F41.97
sVfinal
p1041
I00
sa(dp1042
Vto
p1043
F42.3
sVconfidence
p1044
F0.536
sVspeaker
p1045
I2
sVfrom
p1046
F42.16
sVfinal
p1047
I00
sa(dp1048
Vto
p1049
F42.71
sVconfidence
p1050
F0.536
sVspeaker
p1051
I2
sVfrom
p1052
F42.3
sVfinal
p1053
I00
sa(dp1054
Vto
p1055
F43.15
sVconfidence
p1056
F0.536
sVspeaker
p1057
I2
sVfrom
p1058
F42.71
sVfinal
p1059
I00
sa(dp1060
Vto
p1061
F43.3
sVconfidence
p1062
F0.536
sVspeaker
p1063
I2
sVfrom
p1064
F43.15
sVfinal
p1065
I00
sa(dp1066
Vto
p1067
F43.46
sVconfidence
p1068
F0.536
sVspeaker
p1069
I2
sVfrom
p1070
F43.3
sVfinal
p1071
I00
sa(dp1072
Vto
p1073
F44.22
sVconfidence
p1074
F0.304
sVspeaker
p1075
I0
sVfrom
p1076
F43.49
sVfinal
p1077
I00
sa(dp1078
Vto
p1079
F44.76
sVconfidence
p1080
F0.378
sVspeaker
p1081
I2
sVfrom
p1082
F44.28
sVfinal
p1083
I00
sa(dp1084
Vto
p1085
F45.45
sVconfidence
p1086
F0.591
sVspeaker
p1087
I0
sVfrom
p1088
F45.28
sVfinal
p1089
I00
sa(dp1090
Vto
p1091
F46.47
sVconfidence
p1092
F0.587
sVspeaker
p1093
I0
sVfrom
p1094
F45.95
sVfinal
p1095
I00
sa(dp1096
Vto
p1097
F46.7
sVconfidence
p1098
F0.587
sVspeaker
p1099
I0
sVfrom
p1100
F46.47
sVfinal
p1101
I00
sa(dp1102
Vto
p1103
F47.45
sVconfidence
p1104
F0.62
sVspeaker
p1105
I0
sVfrom
p1106
F47.27
sVfinal
p1107
I00
sa(dp1108
Vto
p1109
F47.65
sVconfidence
p1110
F0.628
sVspeaker
p1111
I0
sVfrom
p1112
F47.6
sVfinal
p1113
I00
sa(dp1114
Vto
p1115
F47.95
sVconfidence
p1116
F0.628
sVspeaker
p1117
I0
sVfrom
p1118
F47.65
sVfinal
p1119
I00
sa(dp1120
Vto
p1121
F49.96
sVconfidence
p1122
F0.629
sVspeaker
p1123
I0
sVfrom
p1124
F49.9
sVfinal
p1125
I00
sa(dp1126
Vto
p1127
F50.12
sVconfidence
p1128
F0.629
sVspeaker
p1129
I0
sVfrom
p1130
F49.96
sVfinal
p1131
I00
sa(dp1132
Vto
p1133
F50.36
sVconfidence
p1134
F0.629
sVspeaker
p1135
I0
sVfrom
p1136
F50.12
sVfinal
p1137
I00
sa(dp1138
Vto
p1139
F50.5
sVconfidence
p1140
F0.629
sVspeaker
p1141
I0
sVfrom
p1142
F50.36
sVfinal
p1143
I00
sa(dp1144
Vto
p1145
F50.58
sVconfidence
p1146
F0.629
sVspeaker
p1147
I0
sVfrom
p1148
F50.5
sVfinal
p1149
I00
sa(dp1150
Vto
p1151
F51.64
sVconfidence
p1152
F0.597
sVspeaker
p1153
I0
sVfrom
p1154
F51.34
sVfinal
p1155
I00
sa(dp1156
Vto
p1157
F52.77
sVconfidence
p1158
F0.649
sVspeaker
p1159
I0
sVfrom
p1160
F52.58
sVfinal
p1161
I00
sa(dp1162
Vto
p1163
F52.82
sVconfidence
p1164
F0.649
sVspeaker
p1165
I0
sVfrom
p1166
F52.77
sVfinal
p1167
I00
sa(dp1168
Vto
p1169
F52.99
sVconfidence
p1170
F0.649
sVspeaker
p1171
I0
sVfrom
p1172
F52.82
sVfinal
p1173
I01
sas.