(dp0
Vresults
p1
(lp2
(dp3
Valternatives
p4
(lp5
(dp6
Vtimestamps
p7
(lp8
(lp9
V%HESITATION
p10
aF0.91
aF1.27
aasVconfidence
p11
F0.632
sVtranscript
p12
V%HESITATION 
p13
sasVfinal
p14
I01
sa(dp15
Valternatives
p16
(lp17
(dp18
Vtimestamps
p19
(lp20
(lp21
Vnot
p22
aF2.94
aF3.14
aa(lp23
Vto
p24
aF3.22
aF3.34
aa(lp25
Vhave
p26
aF3.34
aF3.52
aa(lp27
Vmore
p28
aF3.55
aF3.85
aa(lp29
Vbut
p30
aF3.85
aF4.15
aasVconfidence
p31
F0.585
sVtranscript
p32
Vnot to have more but 
p33
sasVfinal
p34
I01
sa(dp35
Valternatives
p36
(lp37
(dp38
Vtimestamps
p39
(lp40
(lp41
Vsix
p42
aF4.53
aF4.88
aa(lp43
Vis
p44
aF4.88
aF5.0
aa(lp45
Venough
p46
aF5.0
aF5.38
aasVconfidence
p47
F0.876
sVtranscript
p48
Vsix is enough 
p49
sasVfinal
p50
I01
sa(dp51
Valternatives
p52
(lp53
(dp54
Vtimestamps
p55
(lp56
(lp57
Vyou
p58
aF6.22
aF6.31
aa(lp59
Vknow
p60
aF6.31
aF6.49
aa(lp61
Vbecause
p62
aF6.53
aF6.76
aa(lp63
Vyou
p64
aF6.76
aF6.89
aa(lp65
Vrun
p66
aF6.89
aF7.17
aa(lp67
Va
p68
aF7.41
aF7.55
aa(lp69
Vbusy
p70
aF7.55
aF7.81
aa(lp71
Vman
p72
aF7.81
aF7.98
aa(lp73
Vabout
p74
aF7.98
aF8.16
aa(lp75
Vtwo
p76
aF8.16
aF8.32
aa(lp77
Vjobs
p78
aF8.32
aF8.76
aasVconfidence
p79
F0.676
sVtranscript
p80
Vyou know because you run a busy man about two jobs 
p81
sasVfinal
p82
I01
sa(dp83
Valternatives
p84
(lp85
(dp86
Vtimestamps
p87
(lp88
(lp89
Vso
p90
aF9.67
aF9.86
aa(lp91
Vyes
p92
aF9.86
aF10.07
aa(lp93
Vsix
p94
aF10.07
aF10.29
aa(lp95
Vas
p96
aF10.29
aF10.43
aa(lp97
VI
p98
aF10.43
aF10.55
aa(lp99
Vdo
p100
aF10.55
aF10.85
aasVconfidence
p101
F0.674
sVtranscript
p102
Vso yes six as I do 
p103
sasVfinal
p104
I01
sa(dp105
Valternatives
p106
(lp107
(dp108
Vtimestamps
p109
(lp110
(lp111
Vyeah
p112
aF11.68
aF11.9
aa(lp113
Vthat
p114
aF11.9
aF12.03
aa(lp115
Vsounds
p116
aF12.03
aF12.31
aa(lp117
Vabout
p118
aF12.52
aF12.87
aa(lp119
Vright
p120
aF12.87
aF13.14
aa(lp121
Vyou
p122
aF13.14
aF13.24
aa(lp123
Vknow
p124
aF13.24
aF13.41
aa(lp125
Vyou
p126
aF13.46
aF13.6
aa(lp127
Vcan
p128
aF13.6
aF13.72
aa(lp129
Vonly
p130
aF13.72
aF13.94
aa(lp131
Vhave
p132
aF13.94
aF14.19
aa(lp133
Vso
p134
aF14.32
aF14.54
aa(lp135
Vmany
p136
aF14.54
aF14.74
aa(lp137
Vgood
p138
aF14.74
aF14.88
aa(lp139
Vrelationships
p140
aF14.88
aF15.51
aa(lp141
Vwith
p142
aF15.51
aF15.62
aa(lp143
Vsome
p144
aF15.62
aF15.81
aa(lp145
Vof
p146
aF15.81
aF15.88
aa(lp147
Vthe
p148
aF15.88
aF15.95
aa(lp149
Vpeople
p150
aF16.15
aF16.57
aasVconfidence
p151
F0.835
sVtranscript
p152
Vyeah that sounds about right you know you can only have so many good relationships with some of the people 
p153
sasVfinal
p154
I01
sa(dp155
Valternatives
p156
(lp157
(dp158
Vtimestamps
p159
(lp160
(lp161
Vso
p162
aF17.33
aF17.58
aasVconfidence
p163
F0.487
sVtranscript
p164
Vso 
p165
sasVfinal
p166
I01
sa(dp167
Valternatives
p168
(lp169
(dp170
Vtimestamps
p171
(lp172
(lp173
VI've
p174
aF18.15
aF18.25
aa(lp175
Vgot
p176
aF18.25
aF18.36
aa(lp177
Vabout
p178
aF18.36
aF18.58
aa(lp179
Vfive
p180
aF18.58
aF18.98
aa(lp181
Vagree
p182
aF18.98
aF19.35
aa(lp183
Vwith
p184
aF19.35
aF19.52
aa(lp185
Vhim
p186
aF20.33
aF20.57
aa(lp187
Vbecause
p188
aF20.57
aF20.87
aasVconfidence
p189
F0.629
sVtranscript
p190
VI've got about five agree with him because 
p191
sasVfinal
p192
I01
sa(dp193
Valternatives
p194
(lp195
(dp196
Vtimestamps
p197
(lp198
(lp199
V%HESITATION
p200
aF22.02
aF22.53
aasVconfidence
p201
F0.965
sVtranscript
p202
V%HESITATION 
p203
sasVfinal
p204
I01
sa(dp205
Valternatives
p206
(lp207
(dp208
Vtimestamps
p209
(lp210
(lp211
Vyeah
p212
aF24.58
aF24.78
aa(lp213
Vthat
p214
aF24.78
aF25.06
aasVconfidence
p215
F0.444
sVtranscript
p216
Vyeah that 
p217
sasVfinal
p218
I01
sa(dp219
Valternatives
p220
(lp221
(dp222
Vtimestamps
p223
(lp224
(lp225
Vfive
p226
aF25.72
aF25.99
aasVconfidence
p227
F0.805
sVtranscript
p228
Vfive 
p229
sasVfinal
p230
I01
sa(dp231
Valternatives
p232
(lp233
(dp234
Vtimestamps
p235
(lp236
(lp237
Vyou
p238
aF27.89
aF28.09
aa(lp239
Vgot
p240
aF28.09
aF28.28
aa(lp241
Vit
p242
aF28.28
aF28.44
aa(lp243
Vyeah
p244
aF28.47
aF28.75
aasVconfidence
p245
F0.515
sVtranscript
p246
Vyou got it yeah 
p247
sasVfinal
p248
I01
sa(dp249
Valternatives
p250
(lp251
(dp252
Vtimestamps
p253
(lp254
(lp255
Vthey
p256
aF29.59
aF29.72
aa(lp257
Valways
p258
aF29.72
aF30.03
aa(lp259
Vsay
p260
aF30.03
aF30.14
aa(lp261
Vif
p262
aF30.14
aF30.29
aa(lp263
Vyou
p264
aF30.29
aF30.63
aa(lp265
Vwhen
p266
aF30.7
aF30.88
aa(lp267
Vyou
p268
aF30.88
aF30.97
aa(lp269
Vwere
p270
aF30.97
aF31.06
aa(lp271
Vfeeling
p272
aF31.06
aF31.38
aa(lp273
Vdown
p274
aF31.38
aF31.74
aasVconfidence
p275
F0.728
sVtranscript
p276
Vthey always say if you when you were feeling down 
p277
sasVfinal
p278
I01
sa(dp279
Valternatives
p280
(lp281
(dp282
Vtimestamps
p283
(lp284
(lp285
V%HESITATION
p286
aF32.44
aF32.85
aasVconfidence
p287
F0.989
sVtranscript
p288
V%HESITATION 
p289
sasVfinal
p290
I01
sa(dp291
Valternatives
p292
(lp293
(dp294
Vtimestamps
p295
(lp296
(lp297
Vmost
p298
aF35.29
aF35.59
aa(lp299
Vfriends
p300
aF35.59
aF35.81
aa(lp301
Vwould
p302
aF35.81
aF35.96
aa(lp303
Vdo
p304
aF35.96
aF36.15
aa(lp305
Vthat
p306
aF36.15
aF36.59
aasVconfidence
p307
F0.719
sVtranscript
p308
Vmost friends would do that 
p309
sasVfinal
p310
I01
sa(dp311
Valternatives
p312
(lp313
(dp314
Vtimestamps
p315
(lp316
(lp317
Vthat
p318
aF37.6
aF37.84
aasVconfidence
p319
F0.691
sVtranscript
p320
Vthat 
p321
sasVfinal
p322
I01
sa(dp323
Valternatives
p324
(lp325
(dp326
Vtimestamps
p327
(lp328
(lp329
Vthe
p330
aF38.5
aF38.62
aa(lp331
Vfriends
p332
aF38.62
aF38.99
aa(lp333
Vthey
p334
aF38.99
aF39.12
aa(lp335
Vever
p336
aF39.12
aF39.36
aa(lp337
Vreally
p338
aF39.39
aF39.78
aa(lp339
Vclose
p340
aF39.78
aF40.11
aa(lp341
Vto
p342
aF40.11
aF40.24
aa(lp343
Vyou
p344
aF40.24
aF40.47
aasVconfidence
p345
F0.838
sVtranscript
p346
Vthe friends they ever really close to you 
p347
sasVfinal
p348
I01
sa(dp349
Valternatives
p350
(lp351
(dp352
Vtimestamps
p353
(lp354
(lp355
Vwe'll
p356
aF41.24
aF41.44
aa(lp357
Vgo
p358
aF41.44
aF41.67
aa(lp359
Vto
p360
aF41.67
aF41.84
aa(lp361
Vthe
p362
aF41.99
aF42.07
aa(lp363
Vlinks
p364
aF42.07
aF42.54
aasVconfidence
p365
F0.792
sVtranscript
p366
Vwe'll go to the links 
p367
sasVfinal
p368
I01
sa(dp369
Valternatives
p370
(lp371
(dp372
Vtimestamps
p373
(lp374
(lp375
Vlike
p376
aF42.92
aF43.23
aa(lp377
g68
aF43.23
aF43.29
aa(lp378
Vgood
p379
aF43.29
aF43.47
aa(lp380
Vfriendship
p381
aF43.47
aF43.91
aa(lp382
Vstick
p383
aF43.91
aF44.14
aa(lp384
Varound
p385
aF44.17
aF44.39
aa(lp386
Vfor
p387
aF44.39
aF44.48
aa(lp388
g68
aF44.48
aF44.52
aa(lp389
Vlong
p390
aF44.52
aF44.67
aa(lp391
Vtime
p392
aF44.67
aF45.04
aasVconfidence
p393
F0.671
sVtranscript
p394
Vlike a good friendship stick around for a long time 
p395
sasVfinal
p396
I01
sa(dp397
Valternatives
p398
(lp399
(dp400
Vtimestamps
p401
(lp402
(lp403
VI've
p404
aF46.02
aF46.17
aa(lp405
Vhad
p406
aF46.17
aF46.3
aa(lp407
Vsome
p408
aF46.3
aF46.43
aa(lp409
Vreally
p410
aF46.43
aF46.63
aa(lp411
Vgood
p412
aF46.63
aF46.76
aa(lp413
Vfriends
p414
aF46.76
aF47.06
aa(lp415
Vlike
p416
aF47.06
aF47.47
aasVconfidence
p417
F0.588
sVtranscript
p418
VI've had some really good friends like 
p419
sasVfinal
p420
I01
sa(dp421
Valternatives
p422
(lp423
(dp424
Vtimestamps
p425
(lp426
(lp427
Vten
p428
aF48.65
aF48.89
aa(lp429
Vyears
p430
aF48.89
aF49.16
aa(lp431
Vfrom
p432
aF49.16
aF49.32
aa(lp433
Vhigh
p434
aF49.32
aF49.46
aa(lp435
Vschool
p436
aF49.46
aF49.68
aa(lp437
Vand
p438
aF49.68
aF49.78
aa(lp439
Vstuff
p440
aF49.78
aF50.1
aa(lp441
g98
aF50.45
aF50.56
aa(lp442
Vmean
p443
aF50.56
aF50.9
aa(lp444
Vsome
p445
aF51.18
aF51.36
aa(lp446
Vof
p447
aF51.36
aF51.44
aa(lp448
Vthem
p449
aF51.44
aF51.71
aa(lp450
Vcome
p451
aF52.01
aF52.19
aa(lp452
Vand
p453
aF52.19
aF52.3
aa(lp454
Vgo
p455
aF52.3
aF52.57
aasVconfidence
p456
F0.781
sVtranscript
p457
Vten years from high school and stuff I mean some of them come and go 
p458
sasVfinal
p459
I01
sa(dp460
Valternatives
p461
(lp462
(dp463
Vtimestamps
p464
(lp465
(lp466
Vas
p467
aF53.84
aF53.94
aa(lp468
Vto
p469
aF53.94
aF54.14
aa(lp470
Vwhat
p471
aF54.14
aF54.34
aa(lp472
Vtheir
p473
aF54.34
aF54.59
aasVconfidence
p474
F0.704
sVtranscript
p475
Vas to what their 
p476
sasVfinal
p477
I01
sa(dp478
Valternatives
p479
(lp480
(dp481
Vtimestamps
p482
(lp483
(lp484
g98
aF56.23
aF56.34
aa(lp485
Vthink
p486
aF56.34
aF56.56
aa(lp487
Vwhen
p488
aF56.56
aF56.67
aa(lp489
Vyou're
p490
aF56.67
aF56.78
aa(lp491
Vyoung
p492
aF56.78
aF57.01
aa(lp493
Vdid
p494
aF57.01
aF57.26
aa(lp495
Vseem
p496
aF57.26
aF57.41
aa(lp497
Vto
p498
aF57.41
aF57.61
aasVconfidence
p499
F0.591
sVtranscript
p500
VI think when you're young did seem to 
p501
sasVfinal
p502
I01
sa(dp503
Valternatives
p504
(lp505
(dp506
Vtimestamps
p507
(lp508
(lp509
Vinvolved
p510
aF58.83
aF59.27
aa(lp511
Vwith
p512
aF59.27
aF59.37
aa(lp513
Vpeople
p514
aF59.62
aF59.95
aasVconfidence
p515
F0.545
sVtranscript
p516
Vinvolved with people 
p517
sasVfinal
p518
I01
sa(dp519
Valternatives
p520
(lp521
(dp522
Vtimestamps
p523
(lp524
(lp525
Vcan
p526
aF61.06
aF61.22
aa(lp527
Vyou
p528
aF61.22
aF61.36
aa(lp529
Vbecause
p530
aF61.41
aF61.55
aa(lp531
Vif
p532
aF61.55
aF61.65
aa(lp533
Vyou
p534
aF61.65
aF61.73
aa(lp535
Vforget
p536
aF61.73
aF62.13
aasVconfidence
p537
F0.492
sVtranscript
p538
Vcan you because if you forget 
p539
sasVfinal
p540
I01
sa(dp541
Valternatives
p542
(lp543
(dp544
Vtimestamps
p545
(lp546
(lp547
Vyeah
p548
aF63.98
aF64.38
aa(lp549
Vwell
p550
aF64.41
aF64.55
aa(lp551
Vwe
p552
aF64.55
aF64.66
aa(lp553
Vjust
p554
aF64.66
aF64.83
aa(lp555
Vfinished
p556
aF64.83
aF65.1
aa(lp557
Vhigh
p558
aF65.1
aF65.22
aa(lp559
Vschool
p560
aF65.22
aF65.63
aa(lp561
Vbut
p562
aF65.66
aF66.17
aasVconfidence
p563
F0.585
sVtranscript
p564
Vyeah well we just finished high school but 
p565
sasVfinal
p566
I01
sa(dp567
Valternatives
p568
(lp569
(dp570
Vtimestamps
p571
(lp572
(lp573
Vyou'll
p574
aF66.89
aF67.17
aa(lp575
Vget
p576
aF67.17
aF67.39
aa(lp577
Vpretty
p578
aF67.39
aF67.59
aa(lp579
Vtight
p580
aF67.59
aF67.99
aa(lp581
Vat
p582
aF68.02
aF68.19
aa(lp583
Vthat
p584
aF68.19
aF68.34
aa(lp585
Vtime
p586
aF68.34
aF68.56
aa(lp587
Vand
p588
aF68.56
aF68.66
aa(lp589
Vthen
p590
aF68.66
aF68.87
aasVconfidence
p591
F0.675
sVtranscript
p592
Vyou'll get pretty tight at that time and then 
p593
sasVfinal
p594
I01
sa(dp595
Valternatives
p596
(lp597
(dp598
Vtimestamps
p599
(lp600
(lp601
Vget
p602
aF69.51
aF69.69
aa(lp603
Vto
p604
aF69.69
aF69.81
aa(lp605
Vsee
p606
aF69.81
aF69.98
aa(lp607
Vwhat
p608
aF69.98
aF70.13
aa(lp609
Vhappens
p610
aF70.13
aF70.42
aa(lp611
Vafter
p612
aF70.42
aF70.75
aa(lp613
Vthat
p614
aF70.94
aF71.09
aasVconfidence
p615
F0.669
sVtranscript
p616
Vget to see what happens after that 
p617
sasVfinal
p618
I01
sa(dp619
Valternatives
p620
(lp621
(dp622
Vtimestamps
p623
(lp624
(lp625
Vsome
p626
aF72.46
aF72.68
aa(lp627
Vare
p628
aF72.68
aF72.77
aa(lp629
Vvery
p630
aF72.77
aF72.98
aa(lp631
Vhonest
p632
aF72.98
aF73.22
aa(lp633
Vbecause
p634
aF73.22
aF73.45
aa(lp635
Vsome
p636
aF73.49
aF73.68
aa(lp637
Vof
p638
aF73.68
aF73.9
aa(lp639
Vyou
p640
aF73.9
aF73.98
aa(lp641
Vknow
p642
aF73.98
aF74.14
aasVconfidence
p643
F0.677
sVtranscript
p644
Vsome are very honest because some of you know 
p645
sasVfinal
p646
I01
sa(dp647
Valternatives
p648
(lp649
(dp650
Vtimestamps
p651
(lp652
(lp653
Vyou
p654
aF74.86
aF75.13
aa(lp655
Vmake
p656
aF75.13
aF75.3
aa(lp657
Vpeople
p658
aF75.3
aF75.61
aa(lp659
Vand
p660
aF75.61
aF75.78
aa(lp661
Vjust
p662
aF75.78
aF76.01
aa(lp663
Vend
p664
aF76.1
aF76.28
aa(lp665
Vup
p666
aF76.28
aF76.43
aasVconfidence
p667
F0.751
sVtranscript
p668
Vyou make people and just end up 
p669
sasVfinal
p670
I01
sa(dp671
Valternatives
p672
(lp673
(dp674
Vtimestamps
p675
(lp676
(lp677
Vyeah
p678
aF77.1
aF77.31
aa(lp679
Vthen
p680
aF77.31
aF77.49
aa(lp681
g98
aF77.49
aF77.62
aa(lp682
Vmet
p683
aF77.62
aF77.8
aa(lp684
Vthem
p685
aF77.8
aF77.95
aa(lp686
Vbut
p687
aF77.95
aF78.08
aa(lp688
VI'm
p689
aF78.08
aF78.21
aa(lp690
Vafraid
p691
aF78.21
aF78.47
aa(lp692
Vnow
p693
aF78.47
aF78.61
aa(lp694
Vyou
p695
aF78.61
aF78.74
aa(lp696
Vknow
p697
aF78.74
aF78.94
aa(lp698
Vyeah
p699
aF79.01
aF79.32
aa(lp700
Vyeah
p701
aF79.47
aF79.63
aa(lp702
Vbut
p703
aF79.63
aF79.78
aa(lp704
Vit's
p705
aF79.78
aF79.95
aa(lp706
Vthe
p707
aF80.01
aF80.21
aa(lp708
Vkind
p709
aF80.21
aF80.39
aa(lp710
Vof
p711
aF80.39
aF80.45
aa(lp712
Vcontrast
p713
aF80.45
aF80.95
aa(lp714
Vand
p715
aF80.95
aF81.04
aa(lp716
g68
aF81.04
aF81.08
aa(lp717
Vfew
p718
aF81.08
aF81.39
aa(lp719
Vpeople
p720
aF82.2
aF82.49
aa(lp721
g98
aF82.49
aF82.55
aa(lp722
Vmove
p723
aF82.55
aF82.78
aa(lp724
Von
p725
aF82.78
aF83.04
aa(lp726
Vand
p727
aF83.23
aF83.35
aa(lp728
g98
aF83.35
aF83.46
aasVconfidence
p729
F0.672
sVtranscript
p730
Vyeah then I met them but I'm afraid now you know yeah yeah but it's the kind of contrast and a few people I move on and I 
p731
sasVfinal
p732
I01
sa(dp733
Valternatives
p734
(lp735
(dp736
Vtimestamps
p737
(lp738
(lp739
g68
aF84.17
aF84.26
aa(lp740
Vfew
p741
aF84.26
aF84.39
aa(lp742
VChristmas
p743
aF84.39
aF84.7
aa(lp744
Vhad
p745
aF84.7
aF84.93
aa(lp746
g68
aF84.93
aF84.99
aa(lp747
Vsize
p748
aF84.99
aF85.28
aa(lp749
Vsix
p750
aF85.28
aF85.71
aasVconfidence
p751
F0.393
sVtranscript
p752
Va few Christmas had a size six 
p753
sasVfinal
p754
I01
sa(dp755
Valternatives
p756
(lp757
(dp758
Vtimestamps
p759
(lp760
(lp761
Vyeah
p762
aF86.59
aF86.88
aasVconfidence
p763
F0.748
sVtranscript
p764
Vyeah 
p765
sasVfinal
p766
I01
sa(dp767
Valternatives
p768
(lp769
(dp770
Vtimestamps
p771
(lp772
(lp773
Vthat's
p774
aF87.28
aF87.42
aa(lp775
Venough
p776
aF87.42
aF87.63
aa(lp777
Vto
p778
aF87.63
aF87.77
aa(lp779
Vme
p780
aF87.77
aF88.11
aa(lp781
g98
aF88.39
aF88.56
aa(lp782
Vdon't
p783
aF88.56
aF88.74
aa(lp784
Vneed
p785
aF88.74
aF88.91
aa(lp786
Vany
p787
aF88.91
aF89.06
aa(lp788
Vmore
p789
aF89.06
aF89.34
aa(lp790
Vthan
p791
aF89.39
aF89.51
aa(lp792
Vthat
p793
aF89.51
aF89.78
aa(lp794
g98
aF89.81
aF89.91
aa(lp795
Vdon't
p796
aF89.91
aF90.08
aa(lp797
Vthink
p798
aF90.08
aF90.45
aasVconfidence
p799
F0.702
sVtranscript
p800
Vthat's enough to me I don't need any more than that I don't think 
p801
sasVfinal
p802
I01
sa(dp803
Valternatives
p804
(lp805
(dp806
Vtimestamps
p807
(lp808
(lp809
Vand
p810
aF91.32
aF91.48
aa(lp811
V%HESITATION
p812
aF91.48
aF91.63
aa(lp813
Vdifferent
p814
aF91.63
aF92.06
aa(lp815
Vyou
p816
aF92.06
aF92.15
aa(lp817
Vknow
p818
aF92.15
aF92.34
aa(lp819
Vand
p820
aF92.34
aF92.5
aa(lp821
Vif
p822
aF92.5
aF92.64
aa(lp823
g98
aF92.64
aF92.7
aa(lp824
Vhad
p825
aF92.7
aF92.86
aa(lp826
Vbeen
p827
aF92.89
aF93.03
aa(lp828
Vto
p829
aF93.03
aF93.18
aa(lp830
Vdifferent
p831
aF93.18
aF93.49
aa(lp832
Vthings
p833
aF93.49
aF93.82
aasVconfidence
p834
F0.672
sVtranscript
p835
Vand %HESITATION different you know and if I had been to different things 
p836
sasVfinal
p837
I01
sa(dp838
Valternatives
p839
(lp840
(dp841
Vtimestamps
p842
(lp843
(lp844
Vit's
p845
aF97.61
aF97.82
aa(lp846
Vweird
p847
aF98.04
aF98.27
aa(lp848
Vthings
p849
aF98.27
aF98.48
aa(lp850
Vthings
p851
aF98.48
aF98.68
aa(lp852
Vthat
p853
aF98.68
aF98.94
aasVconfidence
p854
F0.391
sVtranscript
p855
Vit's weird things things that 
p856
sasVfinal
p857
I01
sasVresult_index
p858
I0
sVspeaker_labels
p859
(lp860
(dp861
Vto
p862
F1.27
sVconfidence
p863
F0.417
sVspeaker
p864
I1
sVfrom
p865
F0.91
sVfinal
p866
I00
sa(dp867
Vto
p868
F3.14
sVconfidence
p869
F0.553
sVspeaker
p870
I1
sVfrom
p871
F2.94
sVfinal
p872
I00
sa(dp873
Vto
p874
F3.34
sVconfidence
p875
F0.452
sVspeaker
p876
I1
sVfrom
p877
F3.22
sVfinal
p878
I00
sa(dp879
Vto
p880
F3.52
sVconfidence
p881
F0.452
sVspeaker
p882
I1
sVfrom
p883
F3.34
sVfinal
p884
I00
sa(dp885
Vto
p886
F3.85
sVconfidence
p887
F0.494
sVspeaker
p888
I1
sVfrom
p889
F3.55
sVfinal
p890
I00
sa(dp891
Vto
p892
F4.15
sVconfidence
p893
F0.494
sVspeaker
p894
I1
sVfrom
p895
F3.85
sVfinal
p896
I00
sa(dp897
Vto
p898
F4.88
sVconfidence
p899
F0.435
sVspeaker
p900
I1
sVfrom
p901
F4.53
sVfinal
p902
I00
sa(dp903
Vto
p904
F5.0
sVconfidence
p905
F0.435
sVspeaker
p906
I1
sVfrom
p907
F4.88
sVfinal
p908
I00
sa(dp909
Vto
p910
F5.38
sVconfidence
p911
F0.435
sVspeaker
p912
I1
sVfrom
p913
F5.0
sVfinal
p914
I00
sa(dp915
Vto
p916
F6.31
sVconfidence
p917
F0.436
sVspeaker
p918
I1
sVfrom
p919
F6.22
sVfinal
p920
I00
sa(dp921
Vto
p922
F6.49
sVconfidence
p923
F0.436
sVspeaker
p924
I1
sVfrom
p925
F6.31
sVfinal
p926
I00
sa(dp927
Vto
p928
F6.76
sVconfidence
p929
F0.375
sVspeaker
p930
I1
sVfrom
p931
F6.53
sVfinal
p932
I00
sa(dp933
Vto
p934
F6.89
sVconfidence
p935
F0.375
sVspeaker
p936
I1
sVfrom
p937
F6.76
sVfinal
p938
I00
sa(dp939
Vto
p940
F7.17
sVconfidence
p941
F0.375
sVspeaker
p942
I1
sVfrom
p943
F6.89
sVfinal
p944
I00
sa(dp945
Vto
p946
F7.55
sVconfidence
p947
F0.577
sVspeaker
p948
I1
sVfrom
p949
F7.41
sVfinal
p950
I00
sa(dp951
Vto
p952
F7.81
sVconfidence
p953
F0.577
sVspeaker
p954
I1
sVfrom
p955
F7.55
sVfinal
p956
I00
sa(dp957
Vto
p958
F7.98
sVconfidence
p959
F0.577
sVspeaker
p960
I1
sVfrom
p961
F7.81
sVfinal
p962
I00
sa(dp963
Vto
p964
F8.16
sVconfidence
p965
F0.577
sVspeaker
p966
I1
sVfrom
p967
F7.98
sVfinal
p968
I00
sa(dp969
Vto
p970
F8.32
sVconfidence
p971
F0.577
sVspeaker
p972
I1
sVfrom
p973
F8.16
sVfinal
p974
I00
sa(dp975
Vto
p976
F8.76
sVconfidence
p977
F0.577
sVspeaker
p978
I1
sVfrom
p979
F8.32
sVfinal
p980
I00
sa(dp981
Vto
p982
F9.86
sVconfidence
p983
F0.446
sVspeaker
p984
I1
sVfrom
p985
F9.67
sVfinal
p986
I00
sa(dp987
Vto
p988
F10.07
sVconfidence
p989
F0.446
sVspeaker
p990
I1
sVfrom
p991
F9.86
sVfinal
p992
I00
sa(dp993
Vto
p994
F10.29
sVconfidence
p995
F0.446
sVspeaker
p996
I1
sVfrom
p997
F10.07
sVfinal
p998
I00
sa(dp999
Vto
p1000
F10.43
sVconfidence
p1001
F0.446
sVspeaker
p1002
I1
sVfrom
p1003
F10.29
sVfinal
p1004
I00
sa(dp1005
Vto
p1006
F10.55
sVconfidence
p1007
F0.446
sVspeaker
p1008
I1
sVfrom
p1009
F10.43
sVfinal
p1010
I00
sa(dp1011
Vto
p1012
F10.85
sVconfidence
p1013
F0.446
sVspeaker
p1014
I1
sVfrom
p1015
F10.55
sVfinal
p1016
I00
sa(dp1017
Vto
p1018
F11.9
sVconfidence
p1019
F0.27
sVspeaker
p1020
I1
sVfrom
p1021
F11.68
sVfinal
p1022
I00
sa(dp1023
Vto
p1024
F12.03
sVconfidence
p1025
F0.27
sVspeaker
p1026
I1
sVfrom
p1027
F11.9
sVfinal
p1028
I00
sa(dp1029
Vto
p1030
F12.31
sVconfidence
p1031
F0.27
sVspeaker
p1032
I1
sVfrom
p1033
F12.03
sVfinal
p1034
I00
sa(dp1035
Vto
p1036
F12.87
sVconfidence
p1037
F0.34
sVspeaker
p1038
I1
sVfrom
p1039
F12.52
sVfinal
p1040
I00
sa(dp1041
Vto
p1042
F13.14
sVconfidence
p1043
F0.34
sVspeaker
p1044
I1
sVfrom
p1045
F12.87
sVfinal
p1046
I00
sa(dp1047
Vto
p1048
F13.24
sVconfidence
p1049
F0.34
sVspeaker
p1050
I1
sVfrom
p1051
F13.14
sVfinal
p1052
I00
sa(dp1053
Vto
p1054
F13.41
sVconfidence
p1055
F0.34
sVspeaker
p1056
I1
sVfrom
p1057
F13.24
sVfinal
p1058
I00
sa(dp1059
Vto
p1060
F13.6
sVconfidence
p1061
F0.418
sVspeaker
p1062
I1
sVfrom
p1063
F13.46
sVfinal
p1064
I00
sa(dp1065
Vto
p1066
F13.72
sVconfidence
p1067
F0.418
sVspeaker
p1068
I1
sVfrom
p1069
F13.6
sVfinal
p1070
I00
sa(dp1071
Vto
p1072
F13.94
sVconfidence
p1073
F0.418
sVspeaker
p1074
I1
sVfrom
p1075
F13.72
sVfinal
p1076
I00
sa(dp1077
Vto
p1078
F14.19
sVconfidence
p1079
F0.418
sVspeaker
p1080
I1
sVfrom
p1081
F13.94
sVfinal
p1082
I00
sa(dp1083
Vto
p1084
F14.54
sVconfidence
p1085
F0.487
sVspeaker
p1086
I1
sVfrom
p1087
F14.32
sVfinal
p1088
I00
sa(dp1089
Vto
p1090
F14.74
sVconfidence
p1091
F0.487
sVspeaker
p1092
I1
sVfrom
p1093
F14.54
sVfinal
p1094
I00
sa(dp1095
Vto
p1096
F14.88
sVconfidence
p1097
F0.487
sVspeaker
p1098
I1
sVfrom
p1099
F14.74
sVfinal
p1100
I00
sa(dp1101
Vto
p1102
F15.51
sVconfidence
p1103
F0.487
sVspeaker
p1104
I1
sVfrom
p1105
F14.88
sVfinal
p1106
I00
sa(dp1107
Vto
p1108
F15.62
sVconfidence
p1109
F0.487
sVspeaker
p1110
I1
sVfrom
p1111
F15.51
sVfinal
p1112
I00
sa(dp1113
Vto
p1114
F15.81
sVconfidence
p1115
F0.487
sVspeaker
p1116
I1
sVfrom
p1117
F15.62
sVfinal
p1118
I00
sa(dp1119
Vto
p1120
F15.88
sVconfidence
p1121
F0.487
sVspeaker
p1122
I1
sVfrom
p1123
F15.81
sVfinal
p1124
I00
sa(dp1125
Vto
p1126
F15.95
sVconfidence
p1127
F0.487
sVspeaker
p1128
I1
sVfrom
p1129
F15.88
sVfinal
p1130
I00
sa(dp1131
Vto
p1132
F16.57
sVconfidence
p1133
F0.368
sVspeaker
p1134
I1
sVfrom
p1135
F16.15
sVfinal
p1136
I00
sa(dp1137
Vto
p1138
F17.58
sVconfidence
p1139
F0.354
sVspeaker
p1140
I1
sVfrom
p1141
F17.33
sVfinal
p1142
I00
sa(dp1143
Vto
p1144
F18.25
sVconfidence
p1145
F0.336
sVspeaker
p1146
I1
sVfrom
p1147
F18.15
sVfinal
p1148
I00
sa(dp1149
Vto
p1150
F18.36
sVconfidence
p1151
F0.336
sVspeaker
p1152
I1
sVfrom
p1153
F18.25
sVfinal
p1154
I00
sa(dp1155
Vto
p1156
F18.58
sVconfidence
p1157
F0.336
sVspeaker
p1158
I1
sVfrom
p1159
F18.36
sVfinal
p1160
I00
sa(dp1161
Vto
p1162
F18.98
sVconfidence
p1163
F0.336
sVspeaker
p1164
I1
sVfrom
p1165
F18.58
sVfinal
p1166
I00
sa(dp1167
Vto
p1168
F19.35
sVconfidence
p1169
F0.336
sVspeaker
p1170
I1
sVfrom
p1171
F18.98
sVfinal
p1172
I00
sa(dp1173
Vto
p1174
F19.52
sVconfidence
p1175
F0.336
sVspeaker
p1176
I1
sVfrom
p1177
F19.35
sVfinal
p1178
I00
sa(dp1179
Vto
p1180
F20.57
sVconfidence
p1181
F0.54
sVspeaker
p1182
I0
sVfrom
p1183
F20.33
sVfinal
p1184
I00
sa(dp1185
Vto
p1186
F20.87
sVconfidence
p1187
F0.54
sVspeaker
p1188
I0
sVfrom
p1189
F20.57
sVfinal
p1190
I00
sa(dp1191
Vto
p1192
F22.53
sVconfidence
p1193
F0.515
sVspeaker
p1194
I0
sVfrom
p1195
F22.02
sVfinal
p1196
I00
sa(dp1197
Vto
p1198
F24.78
sVconfidence
p1199
F0.504
sVspeaker
p1200
I0
sVfrom
p1201
F24.58
sVfinal
p1202
I00
sa(dp1203
Vto
p1204
F25.06
sVconfidence
p1205
F0.504
sVspeaker
p1206
I0
sVfrom
p1207
F24.78
sVfinal
p1208
I00
sa(dp1209
Vto
p1210
F25.99
sVconfidence
p1211
F0.582
sVspeaker
p1212
I0
sVfrom
p1213
F25.72
sVfinal
p1214
I00
sa(dp1215
Vto
p1216
F28.09
sVconfidence
p1217
F0.548
sVspeaker
p1218
I0
sVfrom
p1219
F27.89
sVfinal
p1220
I00
sa(dp1221
Vto
p1222
F28.28
sVconfidence
p1223
F0.548
sVspeaker
p1224
I0
sVfrom
p1225
F28.09
sVfinal
p1226
I00
sa(dp1227
Vto
p1228
F28.44
sVconfidence
p1229
F0.548
sVspeaker
p1230
I0
sVfrom
p1231
F28.28
sVfinal
p1232
I00
sa(dp1233
Vto
p1234
F28.75
sVconfidence
p1235
F0.517
sVspeaker
p1236
I0
sVfrom
p1237
F28.47
sVfinal
p1238
I00
sa(dp1239
Vto
p1240
F29.72
sVconfidence
p1241
F0.468
sVspeaker
p1242
I1
sVfrom
p1243
F29.59
sVfinal
p1244
I00
sa(dp1245
Vto
p1246
F30.03
sVconfidence
p1247
F0.468
sVspeaker
p1248
I1
sVfrom
p1249
F29.72
sVfinal
p1250
I00
sa(dp1251
Vto
p1252
F30.14
sVconfidence
p1253
F0.468
sVspeaker
p1254
I1
sVfrom
p1255
F30.03
sVfinal
p1256
I00
sa(dp1257
Vto
p1258
F30.29
sVconfidence
p1259
F0.468
sVspeaker
p1260
I1
sVfrom
p1261
F30.14
sVfinal
p1262
I00
sa(dp1263
Vto
p1264
F30.63
sVconfidence
p1265
F0.468
sVspeaker
p1266
I1
sVfrom
p1267
F30.29
sVfinal
p1268
I00
sa(dp1269
Vto
p1270
F30.88
sVconfidence
p1271
F0.436
sVspeaker
p1272
I1
sVfrom
p1273
F30.7
sVfinal
p1274
I00
sa(dp1275
Vto
p1276
F30.97
sVconfidence
p1277
F0.436
sVspeaker
p1278
I1
sVfrom
p1279
F30.88
sVfinal
p1280
I00
sa(dp1281
Vto
p1282
F31.06
sVconfidence
p1283
F0.436
sVspeaker
p1284
I1
sVfrom
p1285
F30.97
sVfinal
p1286
I00
sa(dp1287
Vto
p1288
F31.38
sVconfidence
p1289
F0.436
sVspeaker
p1290
I1
sVfrom
p1291
F31.06
sVfinal
p1292
I00
sa(dp1293
Vto
p1294
F31.74
sVconfidence
p1295
F0.436
sVspeaker
p1296
I1
sVfrom
p1297
F31.38
sVfinal
p1298
I00
sa(dp1299
Vto
p1300
F32.85
sVconfidence
p1301
F0.387
sVspeaker
p1302
I1
sVfrom
p1303
F32.44
sVfinal
p1304
I00
sa(dp1305
Vto
p1306
F35.59
sVconfidence
p1307
F0.506
sVspeaker
p1308
I1
sVfrom
p1309
F35.29
sVfinal
p1310
I00
sa(dp1311
Vto
p1312
F35.81
sVconfidence
p1313
F0.506
sVspeaker
p1314
I1
sVfrom
p1315
F35.59
sVfinal
p1316
I00
sa(dp1317
Vto
p1318
F35.96
sVconfidence
p1319
F0.506
sVspeaker
p1320
I1
sVfrom
p1321
F35.81
sVfinal
p1322
I00
sa(dp1323
Vto
p1324
F36.15
sVconfidence
p1325
F0.506
sVspeaker
p1326
I1
sVfrom
p1327
F35.96
sVfinal
p1328
I00
sa(dp1329
Vto
p1330
F36.59
sVconfidence
p1331
F0.506
sVspeaker
p1332
I1
sVfrom
p1333
F36.15
sVfinal
p1334
I00
sa(dp1335
Vto
p1336
F37.84
sVconfidence
p1337
F0.492
sVspeaker
p1338
I1
sVfrom
p1339
F37.6
sVfinal
p1340
I00
sa(dp1341
Vto
p1342
F38.62
sVconfidence
p1343
F0.482
sVspeaker
p1344
I1
sVfrom
p1345
F38.5
sVfinal
p1346
I00
sa(dp1347
Vto
p1348
F38.99
sVconfidence
p1349
F0.482
sVspeaker
p1350
I1
sVfrom
p1351
F38.62
sVfinal
p1352
I00
sa(dp1353
Vto
p1354
F39.12
sVconfidence
p1355
F0.482
sVspeaker
p1356
I1
sVfrom
p1357
F38.99
sVfinal
p1358
I00
sa(dp1359
Vto
p1360
F39.36
sVconfidence
p1361
F0.482
sVspeaker
p1362
I1
sVfrom
p1363
F39.12
sVfinal
p1364
I00
sa(dp1365
Vto
p1366
F39.78
sVconfidence
p1367
F0.501
sVspeaker
p1368
I1
sVfrom
p1369
F39.39
sVfinal
p1370
I00
sa(dp1371
Vto
p1372
F40.11
sVconfidence
p1373
F0.501
sVspeaker
p1374
I1
sVfrom
p1375
F39.78
sVfinal
p1376
I00
sa(dp1377
Vto
p1378
F40.24
sVconfidence
p1379
F0.501
sVspeaker
p1380
I1
sVfrom
p1381
F40.11
sVfinal
p1382
I00
sa(dp1383
Vto
p1384
F40.47
sVconfidence
p1385
F0.501
sVspeaker
p1386
I1
sVfrom
p1387
F40.24
sVfinal
p1388
I00
sa(dp1389
Vto
p1390
F41.44
sVconfidence
p1391
F0.542
sVspeaker
p1392
I1
sVfrom
p1393
F41.24
sVfinal
p1394
I00
sa(dp1395
Vto
p1396
F41.67
sVconfidence
p1397
F0.542
sVspeaker
p1398
I1
sVfrom
p1399
F41.44
sVfinal
p1400
I00
sa(dp1401
Vto
p1402
F41.84
sVconfidence
p1403
F0.542
sVspeaker
p1404
I1
sVfrom
p1405
F41.67
sVfinal
p1406
I00
sa(dp1407
Vto
p1408
F42.07
sVconfidence
p1409
F0.468
sVspeaker
p1410
I1
sVfrom
p1411
F41.99
sVfinal
p1412
I00
sa(dp1413
Vto
p1414
F42.54
sVconfidence
p1415
F0.468
sVspeaker
p1416
I1
sVfrom
p1417
F42.07
sVfinal
p1418
I00
sa(dp1419
Vto
p1420
F43.23
sVconfidence
p1421
F0.614
sVspeaker
p1422
I0
sVfrom
p1423
F42.92
sVfinal
p1424
I00
sa(dp1425
Vto
p1426
F43.29
sVconfidence
p1427
F0.614
sVspeaker
p1428
I0
sVfrom
p1429
F43.23
sVfinal
p1430
I00
sa(dp1431
Vto
p1432
F43.47
sVconfidence
p1433
F0.614
sVspeaker
p1434
I0
sVfrom
p1435
F43.29
sVfinal
p1436
I00
sa(dp1437
Vto
p1438
F43.91
sVconfidence
p1439
F0.614
sVspeaker
p1440
I0
sVfrom
p1441
F43.47
sVfinal
p1442
I00
sa(dp1443
Vto
p1444
F44.14
sVconfidence
p1445
F0.614
sVspeaker
p1446
I0
sVfrom
p1447
F43.91
sVfinal
p1448
I00
sa(dp1449
Vto
p1450
F44.39
sVconfidence
p1451
F0.604
sVspeaker
p1452
I0
sVfrom
p1453
F44.17
sVfinal
p1454
I00
sa(dp1455
Vto
p1456
F44.48
sVconfidence
p1457
F0.604
sVspeaker
p1458
I0
sVfrom
p1459
F44.39
sVfinal
p1460
I00
sa(dp1461
Vto
p1462
F44.52
sVconfidence
p1463
F0.604
sVspeaker
p1464
I0
sVfrom
p1465
F44.48
sVfinal
p1466
I00
sa(dp1467
Vto
p1468
F44.67
sVconfidence
p1469
F0.604
sVspeaker
p1470
I0
sVfrom
p1471
F44.52
sVfinal
p1472
I00
sa(dp1473
Vto
p1474
F45.04
sVconfidence
p1475
F0.604
sVspeaker
p1476
I0
sVfrom
p1477
F44.67
sVfinal
p1478
I00
sa(dp1479
Vto
p1480
F46.17
sVconfidence
p1481
F0.631
sVspeaker
p1482
I0
sVfrom
p1483
F46.02
sVfinal
p1484
I00
sa(dp1485
Vto
p1486
F46.3
sVconfidence
p1487
F0.631
sVspeaker
p1488
I0
sVfrom
p1489
F46.17
sVfinal
p1490
I00
sa(dp1491
Vto
p1492
F46.43
sVconfidence
p1493
F0.631
sVspeaker
p1494
I0
sVfrom
p1495
F46.3
sVfinal
p1496
I00
sa(dp1497
Vto
p1498
F46.63
sVconfidence
p1499
F0.631
sVspeaker
p1500
I0
sVfrom
p1501
F46.43
sVfinal
p1502
I00
sa(dp1503
Vto
p1504
F46.76
sVconfidence
p1505
F0.631
sVspeaker
p1506
I0
sVfrom
p1507
F46.63
sVfinal
p1508
I00
sa(dp1509
Vto
p1510
F47.06
sVconfidence
p1511
F0.631
sVspeaker
p1512
I0
sVfrom
p1513
F46.76
sVfinal
p1514
I00
sa(dp1515
Vto
p1516
F47.47
sVconfidence
p1517
F0.631
sVspeaker
p1518
I0
sVfrom
p1519
F47.06
sVfinal
p1520
I00
sa(dp1521
Vto
p1522
F48.89
sVconfidence
p1523
F0.594
sVspeaker
p1524
I0
sVfrom
p1525
F48.65
sVfinal
p1526
I00
sa(dp1527
Vto
p1528
F49.16
sVconfidence
p1529
F0.594
sVspeaker
p1530
I0
sVfrom
p1531
F48.89
sVfinal
p1532
I00
sa(dp1533
Vto
p1534
F49.32
sVconfidence
p1535
F0.594
sVspeaker
p1536
I0
sVfrom
p1537
F49.16
sVfinal
p1538
I00
sa(dp1539
Vto
p1540
F49.46
sVconfidence
p1541
F0.594
sVspeaker
p1542
I0
sVfrom
p1543
F49.32
sVfinal
p1544
I00
sa(dp1545
Vto
p1546
F49.68
sVconfidence
p1547
F0.594
sVspeaker
p1548
I0
sVfrom
p1549
F49.46
sVfinal
p1550
I00
sa(dp1551
Vto
p1552
F49.78
sVconfidence
p1553
F0.594
sVspeaker
p1554
I0
sVfrom
p1555
F49.68
sVfinal
p1556
I00
sa(dp1557
Vto
p1558
F50.1
sVconfidence
p1559
F0.594
sVspeaker
p1560
I0
sVfrom
p1561
F49.78
sVfinal
p1562
I00
sa(dp1563
Vto
p1564
F50.56
sVconfidence
p1565
F0.585
sVspeaker
p1566
I0
sVfrom
p1567
F50.45
sVfinal
p1568
I00
sa(dp1569
Vto
p1570
F50.9
sVconfidence
p1571
F0.585
sVspeaker
p1572
I0
sVfrom
p1573
F50.56
sVfinal
p1574
I00
sa(dp1575
Vto
p1576
F51.36
sVconfidence
p1577
F0.609
sVspeaker
p1578
I0
sVfrom
p1579
F51.18
sVfinal
p1580
I00
sa(dp1581
Vto
p1582
F51.44
sVconfidence
p1583
F0.609
sVspeaker
p1584
I0
sVfrom
p1585
F51.36
sVfinal
p1586
I00
sa(dp1587
Vto
p1588
F51.71
sVconfidence
p1589
F0.609
sVspeaker
p1590
I0
sVfrom
p1591
F51.44
sVfinal
p1592
I00
sa(dp1593
Vto
p1594
F52.19
sVconfidence
p1595
F0.617
sVspeaker
p1596
I0
sVfrom
p1597
F52.01
sVfinal
p1598
I00
sa(dp1599
Vto
p1600
F52.3
sVconfidence
p1601
F0.617
sVspeaker
p1602
I0
sVfrom
p1603
F52.19
sVfinal
p1604
I00
sa(dp1605
Vto
p1606
F52.57
sVconfidence
p1607
F0.617
sVspeaker
p1608
I0
sVfrom
p1609
F52.3
sVfinal
p1610
I00
sa(dp1611
Vto
p1612
F53.94
sVconfidence
p1613
F0.594
sVspeaker
p1614
I1
sVfrom
p1615
F53.84
sVfinal
p1616
I00
sa(dp1617
Vto
p1618
F54.14
sVconfidence
p1619
F0.594
sVspeaker
p1620
I1
sVfrom
p1621
F53.94
sVfinal
p1622
I00
sa(dp1623
Vto
p1624
F54.34
sVconfidence
p1625
F0.594
sVspeaker
p1626
I1
sVfrom
p1627
F54.14
sVfinal
p1628
I00
sa(dp1629
Vto
p1630
F54.59
sVconfidence
p1631
F0.594
sVspeaker
p1632
I1
sVfrom
p1633
F54.34
sVfinal
p1634
I00
sa(dp1635
Vto
p1636
F56.34
sVconfidence
p1637
F0.44
sVspeaker
p1638
I1
sVfrom
p1639
F56.23
sVfinal
p1640
I00
sa(dp1641
Vto
p1642
F56.56
sVconfidence
p1643
F0.44
sVspeaker
p1644
I1
sVfrom
p1645
F56.34
sVfinal
p1646
I00
sa(dp1647
Vto
p1648
F56.67
sVconfidence
p1649
F0.44
sVspeaker
p1650
I1
sVfrom
p1651
F56.56
sVfinal
p1652
I00
sa(dp1653
Vto
p1654
F56.78
sVconfidence
p1655
F0.44
sVspeaker
p1656
I1
sVfrom
p1657
F56.67
sVfinal
p1658
I00
sa(dp1659
Vto
p1660
F57.01
sVconfidence
p1661
F0.44
sVspeaker
p1662
I1
sVfrom
p1663
F56.78
sVfinal
p1664
I00
sa(dp1665
Vto
p1666
F57.26
sVconfidence
p1667
F0.44
sVspeaker
p1668
I1
sVfrom
p1669
F57.01
sVfinal
p1670
I00
sa(dp1671
Vto
p1672
F57.41
sVconfidence
p1673
F0.44
sVspeaker
p1674
I1
sVfrom
p1675
F57.26
sVfinal
p1676
I00
sa(dp1677
Vto
p1678
F57.61
sVconfidence
p1679
F0.44
sVspeaker
p1680
I1
sVfrom
p1681
F57.41
sVfinal
p1682
I00
sa(dp1683
Vto
p1684
F59.27
sVconfidence
p1685
F0.497
sVspeaker
p1686
I1
sVfrom
p1687
F58.83
sVfinal
p1688
I00
sa(dp1689
Vto
p1690
F59.37
sVconfidence
p1691
F0.497
sVspeaker
p1692
I1
sVfrom
p1693
F59.27
sVfinal
p1694
I00
sa(dp1695
Vto
p1696
F59.95
sVconfidence
p1697
F0.354
sVspeaker
p1698
I1
sVfrom
p1699
F59.62
sVfinal
p1700
I00
sa(dp1701
Vto
p1702
F61.22
sVconfidence
p1703
F0.455
sVspeaker
p1704
I1
sVfrom
p1705
F61.06
sVfinal
p1706
I00
sa(dp1707
Vto
p1708
F61.36
sVconfidence
p1709
F0.455
sVspeaker
p1710
I1
sVfrom
p1711
F61.22
sVfinal
p1712
I00
sa(dp1713
Vto
p1714
F61.55
sVconfidence
p1715
F0.592
sVspeaker
p1716
I1
sVfrom
p1717
F61.41
sVfinal
p1718
I00
sa(dp1719
Vto
p1720
F61.65
sVconfidence
p1721
F0.592
sVspeaker
p1722
I1
sVfrom
p1723
F61.55
sVfinal
p1724
I00
sa(dp1725
Vto
p1726
F61.73
sVconfidence
p1727
F0.592
sVspeaker
p1728
I1
sVfrom
p1729
F61.65
sVfinal
p1730
I00
sa(dp1731
Vto
p1732
F62.13
sVconfidence
p1733
F0.592
sVspeaker
p1734
I1
sVfrom
p1735
F61.73
sVfinal
p1736
I00
sa(dp1737
Vto
p1738
F64.38
sVconfidence
p1739
F0.217
sVspeaker
p1740
I1
sVfrom
p1741
F63.98
sVfinal
p1742
I00
sa(dp1743
Vto
p1744
F64.55
sVconfidence
p1745
F0.61
sVspeaker
p1746
I0
sVfrom
p1747
F64.41
sVfinal
p1748
I00
sa(dp1749
Vto
p1750
F64.66
sVconfidence
p1751
F0.61
sVspeaker
p1752
I0
sVfrom
p1753
F64.55
sVfinal
p1754
I00
sa(dp1755
Vto
p1756
F64.83
sVconfidence
p1757
F0.61
sVspeaker
p1758
I0
sVfrom
p1759
F64.66
sVfinal
p1760
I00
sa(dp1761
Vto
p1762
F65.1
sVconfidence
p1763
F0.61
sVspeaker
p1764
I0
sVfrom
p1765
F64.83
sVfinal
p1766
I00
sa(dp1767
Vto
p1768
F65.22
sVconfidence
p1769
F0.61
sVspeaker
p1770
I0
sVfrom
p1771
F65.1
sVfinal
p1772
I00
sa(dp1773
Vto
p1774
F65.63
sVconfidence
p1775
F0.61
sVspeaker
p1776
I0
sVfrom
p1777
F65.22
sVfinal
p1778
I00
sa(dp1779
Vto
p1780
F66.17
sVconfidence
p1781
F0.644
sVspeaker
p1782
I0
sVfrom
p1783
F65.66
sVfinal
p1784
I00
sa(dp1785
Vto
p1786
F67.17
sVconfidence
p1787
F0.621
sVspeaker
p1788
I0
sVfrom
p1789
F66.89
sVfinal
p1790
I00
sa(dp1791
Vto
p1792
F67.39
sVconfidence
p1793
F0.621
sVspeaker
p1794
I0
sVfrom
p1795
F67.17
sVfinal
p1796
I00
sa(dp1797
Vto
p1798
F67.59
sVconfidence
p1799
F0.621
sVspeaker
p1800
I0
sVfrom
p1801
F67.39
sVfinal
p1802
I00
sa(dp1803
Vto
p1804
F67.99
sVconfidence
p1805
F0.621
sVspeaker
p1806
I0
sVfrom
p1807
F67.59
sVfinal
p1808
I00
sa(dp1809
Vto
p1810
F68.19
sVconfidence
p1811
F0.578
sVspeaker
p1812
I0
sVfrom
p1813
F68.02
sVfinal
p1814
I00
sa(dp1815
Vto
p1816
F68.34
sVconfidence
p1817
F0.578
sVspeaker
p1818
I0
sVfrom
p1819
F68.19
sVfinal
p1820
I00
sa(dp1821
Vto
p1822
F68.56
sVconfidence
p1823
F0.578
sVspeaker
p1824
I0
sVfrom
p1825
F68.34
sVfinal
p1826
I00
sa(dp1827
Vto
p1828
F68.66
sVconfidence
p1829
F0.578
sVspeaker
p1830
I0
sVfrom
p1831
F68.56
sVfinal
p1832
I00
sa(dp1833
Vto
p1834
F68.87
sVconfidence
p1835
F0.578
sVspeaker
p1836
I0
sVfrom
p1837
F68.66
sVfinal
p1838
I00
sa(dp1839
Vto
p1840
F69.69
sVconfidence
p1841
F0.592
sVspeaker
p1842
I0
sVfrom
p1843
F69.51
sVfinal
p1844
I00
sa(dp1845
Vto
p1846
F69.81
sVconfidence
p1847
F0.592
sVspeaker
p1848
I0
sVfrom
p1849
F69.69
sVfinal
p1850
I00
sa(dp1851
Vto
p1852
F69.98
sVconfidence
p1853
F0.592
sVspeaker
p1854
I0
sVfrom
p1855
F69.81
sVfinal
p1856
I00
sa(dp1857
Vto
p1858
F70.13
sVconfidence
p1859
F0.592
sVspeaker
p1860
I0
sVfrom
p1861
F69.98
sVfinal
p1862
I00
sa(dp1863
Vto
p1864
F70.42
sVconfidence
p1865
F0.592
sVspeaker
p1866
I0
sVfrom
p1867
F70.13
sVfinal
p1868
I00
sa(dp1869
Vto
p1870
F70.75
sVconfidence
p1871
F0.592
sVspeaker
p1872
I0
sVfrom
p1873
F70.42
sVfinal
p1874
I00
sa(dp1875
Vto
p1876
F71.09
sVconfidence
p1877
F0.491
sVspeaker
p1878
I0
sVfrom
p1879
F70.94
sVfinal
p1880
I00
sa(dp1881
Vto
p1882
F72.68
sVconfidence
p1883
F0.449
sVspeaker
p1884
I1
sVfrom
p1885
F72.46
sVfinal
p1886
I00
sa(dp1887
Vto
p1888
F72.77
sVconfidence
p1889
F0.449
sVspeaker
p1890
I1
sVfrom
p1891
F72.68
sVfinal
p1892
I00
sa(dp1893
Vto
p1894
F72.98
sVconfidence
p1895
F0.449
sVspeaker
p1896
I1
sVfrom
p1897
F72.77
sVfinal
p1898
I00
sa(dp1899
Vto
p1900
F73.22
sVconfidence
p1901
F0.449
sVspeaker
p1902
I1
sVfrom
p1903
F72.98
sVfinal
p1904
I00
sa(dp1905
Vto
p1906
F73.45
sVconfidence
p1907
F0.449
sVspeaker
p1908
I1
sVfrom
p1909
F73.22
sVfinal
p1910
I00
sa(dp1911
Vto
p1912
F73.68
sVconfidence
p1913
F0.441
sVspeaker
p1914
I1
sVfrom
p1915
F73.49
sVfinal
p1916
I00
sa(dp1917
Vto
p1918
F73.9
sVconfidence
p1919
F0.441
sVspeaker
p1920
I1
sVfrom
p1921
F73.68
sVfinal
p1922
I00
sa(dp1923
Vto
p1924
F73.98
sVconfidence
p1925
F0.441
sVspeaker
p1926
I1
sVfrom
p1927
F73.9
sVfinal
p1928
I00
sa(dp1929
Vto
p1930
F74.14
sVconfidence
p1931
F0.441
sVspeaker
p1932
I1
sVfrom
p1933
F73.98
sVfinal
p1934
I00
sa(dp1935
Vto
p1936
F75.13
sVconfidence
p1937
F0.569
sVspeaker
p1938
I1
sVfrom
p1939
F74.86
sVfinal
p1940
I00
sa(dp1941
Vto
p1942
F75.3
sVconfidence
p1943
F0.569
sVspeaker
p1944
I1
sVfrom
p1945
F75.13
sVfinal
p1946
I00
sa(dp1947
Vto
p1948
F75.61
sVconfidence
p1949
F0.569
sVspeaker
p1950
I1
sVfrom
p1951
F75.3
sVfinal
p1952
I00
sa(dp1953
Vto
p1954
F75.78
sVconfidence
p1955
F0.569
sVspeaker
p1956
I1
sVfrom
p1957
F75.61
sVfinal
p1958
I00
sa(dp1959
Vto
p1960
F76.01
sVconfidence
p1961
F0.569
sVspeaker
p1962
I1
sVfrom
p1963
F75.78
sVfinal
p1964
I00
sa(dp1965
Vto
p1966
F76.28
sVconfidence
p1967
F0.452
sVspeaker
p1968
I1
sVfrom
p1969
F76.1
sVfinal
p1970
I00
sa(dp1971
Vto
p1972
F76.43
sVconfidence
p1973
F0.452
sVspeaker
p1974
I1
sVfrom
p1975
F76.28
sVfinal
p1976
I00
sa(dp1977
Vto
p1978
F77.31
sVconfidence
p1979
F0.464
sVspeaker
p1980
I1
sVfrom
p1981
F77.1
sVfinal
p1982
I00
sa(dp1983
Vto
p1984
F77.49
sVconfidence
p1985
F0.464
sVspeaker
p1986
I1
sVfrom
p1987
F77.31
sVfinal
p1988
I00
sa(dp1989
Vto
p1990
F77.62
sVconfidence
p1991
F0.464
sVspeaker
p1992
I1
sVfrom
p1993
F77.49
sVfinal
p1994
I00
sa(dp1995
Vto
p1996
F77.8
sVconfidence
p1997
F0.464
sVspeaker
p1998
I1
sVfrom
p1999
F77.62
sVfinal
p2000
I00
sa(dp2001
Vto
p2002
F77.95
sVconfidence
p2003
F0.464
sVspeaker
p2004
I1
sVfrom
p2005
F77.8
sVfinal
p2006
I00
sa(dp2007
Vto
p2008
F78.08
sVconfidence
p2009
F0.464
sVspeaker
p2010
I1
sVfrom
p2011
F77.95
sVfinal
p2012
I00
sa(dp2013
Vto
p2014
F78.21
sVconfidence
p2015
F0.464
sVspeaker
p2016
I1
sVfrom
p2017
F78.08
sVfinal
p2018
I00
sa(dp2019
Vto
p2020
F78.47
sVconfidence
p2021
F0.464
sVspeaker
p2022
I1
sVfrom
p2023
F78.21
sVfinal
p2024
I00
sa(dp2025
Vto
p2026
F78.61
sVconfidence
p2027
F0.464
sVspeaker
p2028
I1
sVfrom
p2029
F78.47
sVfinal
p2030
I00
sa(dp2031
Vto
p2032
F78.74
sVconfidence
p2033
F0.464
sVspeaker
p2034
I1
sVfrom
p2035
F78.61
sVfinal
p2036
I00
sa(dp2037
Vto
p2038
F78.94
sVconfidence
p2039
F0.464
sVspeaker
p2040
I1
sVfrom
p2041
F78.74
sVfinal
p2042
I00
sa(dp2043
Vto
p2044
F79.32
sVconfidence
p2045
F0.394
sVspeaker
p2046
I1
sVfrom
p2047
F79.01
sVfinal
p2048
I00
sa(dp2049
Vto
p2050
F79.63
sVconfidence
p2051
F0.444
sVspeaker
p2052
I1
sVfrom
p2053
F79.47
sVfinal
p2054
I00
sa(dp2055
Vto
p2056
F79.78
sVconfidence
p2057
F0.444
sVspeaker
p2058
I1
sVfrom
p2059
F79.63
sVfinal
p2060
I00
sa(dp2061
Vto
p2062
F79.95
sVconfidence
p2063
F0.444
sVspeaker
p2064
I1
sVfrom
p2065
F79.78
sVfinal
p2066
I00
sa(dp2067
Vto
p2068
F80.21
sVconfidence
p2069
F0.428
sVspeaker
p2070
I1
sVfrom
p2071
F80.01
sVfinal
p2072
I00
sa(dp2073
Vto
p2074
F80.39
sVconfidence
p2075
F0.428
sVspeaker
p2076
I1
sVfrom
p2077
F80.21
sVfinal
p2078
I00
sa(dp2079
Vto
p2080
F80.45
sVconfidence
p2081
F0.428
sVspeaker
p2082
I1
sVfrom
p2083
F80.39
sVfinal
p2084
I00
sa(dp2085
Vto
p2086
F80.95
sVconfidence
p2087
F0.428
sVspeaker
p2088
I1
sVfrom
p2089
F80.45
sVfinal
p2090
I00
sa(dp2091
Vto
p2092
F81.04
sVconfidence
p2093
F0.428
sVspeaker
p2094
I1
sVfrom
p2095
F80.95
sVfinal
p2096
I00
sa(dp2097
Vto
p2098
F81.08
sVconfidence
p2099
F0.428
sVspeaker
p2100
I1
sVfrom
p2101
F81.04
sVfinal
p2102
I00
sa(dp2103
Vto
p2104
F81.39
sVconfidence
p2105
F0.428
sVspeaker
p2106
I1
sVfrom
p2107
F81.08
sVfinal
p2108
I00
sa(dp2109
Vto
p2110
F82.49
sVconfidence
p2111
F0.59
sVspeaker
p2112
I1
sVfrom
p2113
F82.2
sVfinal
p2114
I00
sa(dp2115
Vto
p2116
F82.55
sVconfidence
p2117
F0.59
sVspeaker
p2118
I1
sVfrom
p2119
F82.49
sVfinal
p2120
I00
sa(dp2121
Vto
p2122
F82.78
sVconfidence
p2123
F0.59
sVspeaker
p2124
I1
sVfrom
p2125
F82.55
sVfinal
p2126
I00
sa(dp2127
Vto
p2128
F83.04
sVconfidence
p2129
F0.59
sVspeaker
p2130
I1
sVfrom
p2131
F82.78
sVfinal
p2132
I00
sa(dp2133
Vto
p2134
F83.35
sVconfidence
p2135
F0.481
sVspeaker
p2136
I1
sVfrom
p2137
F83.23
sVfinal
p2138
I00
sa(dp2139
Vto
p2140
F83.46
sVconfidence
p2141
F0.481
sVspeaker
p2142
I1
sVfrom
p2143
F83.35
sVfinal
p2144
I00
sa(dp2145
Vto
p2146
F84.26
sVconfidence
p2147
F0.574
sVspeaker
p2148
I1
sVfrom
p2149
F84.17
sVfinal
p2150
I00
sa(dp2151
Vto
p2152
F84.39
sVconfidence
p2153
F0.574
sVspeaker
p2154
I1
sVfrom
p2155
F84.26
sVfinal
p2156
I00
sa(dp2157
Vto
p2158
F84.7
sVconfidence
p2159
F0.574
sVspeaker
p2160
I1
sVfrom
p2161
F84.39
sVfinal
p2162
I00
sa(dp2163
Vto
p2164
F84.93
sVconfidence
p2165
F0.574
sVspeaker
p2166
I1
sVfrom
p2167
F84.7
sVfinal
p2168
I00
sa(dp2169
Vto
p2170
F84.99
sVconfidence
p2171
F0.574
sVspeaker
p2172
I1
sVfrom
p2173
F84.93
sVfinal
p2174
I00
sa(dp2175
Vto
p2176
F85.28
sVconfidence
p2177
F0.574
sVspeaker
p2178
I1
sVfrom
p2179
F84.99
sVfinal
p2180
I00
sa(dp2181
Vto
p2182
F85.71
sVconfidence
p2183
F0.574
sVspeaker
p2184
I1
sVfrom
p2185
F85.28
sVfinal
p2186
I00
sa(dp2187
Vto
p2188
F86.88
sVconfidence
p2189
F0.39
sVspeaker
p2190
I1
sVfrom
p2191
F86.59
sVfinal
p2192
I00
sa(dp2193
Vto
p2194
F87.42
sVconfidence
p2195
F0.626
sVspeaker
p2196
I0
sVfrom
p2197
F87.28
sVfinal
p2198
I00
sa(dp2199
Vto
p2200
F87.63
sVconfidence
p2201
F0.626
sVspeaker
p2202
I0
sVfrom
p2203
F87.42
sVfinal
p2204
I00
sa(dp2205
Vto
p2206
F87.77
sVconfidence
p2207
F0.626
sVspeaker
p2208
I0
sVfrom
p2209
F87.63
sVfinal
p2210
I00
sa(dp2211
Vto
p2212
F88.11
sVconfidence
p2213
F0.626
sVspeaker
p2214
I0
sVfrom
p2215
F87.77
sVfinal
p2216
I00
sa(dp2217
Vto
p2218
F88.56
sVconfidence
p2219
F0.624
sVspeaker
p2220
I0
sVfrom
p2221
F88.39
sVfinal
p2222
I00
sa(dp2223
Vto
p2224
F88.74
sVconfidence
p2225
F0.624
sVspeaker
p2226
I0
sVfrom
p2227
F88.56
sVfinal
p2228
I00
sa(dp2229
Vto
p2230
F88.91
sVconfidence
p2231
F0.624
sVspeaker
p2232
I0
sVfrom
p2233
F88.74
sVfinal
p2234
I00
sa(dp2235
Vto
p2236
F89.06
sVconfidence
p2237
F0.624
sVspeaker
p2238
I0
sVfrom
p2239
F88.91
sVfinal
p2240
I00
sa(dp2241
Vto
p2242
F89.34
sVconfidence
p2243
F0.624
sVspeaker
p2244
I0
sVfrom
p2245
F89.06
sVfinal
p2246
I00
sa(dp2247
Vto
p2248
F89.51
sVconfidence
p2249
F0.611
sVspeaker
p2250
I0
sVfrom
p2251
F89.39
sVfinal
p2252
I00
sa(dp2253
Vto
p2254
F89.78
sVconfidence
p2255
F0.611
sVspeaker
p2256
I0
sVfrom
p2257
F89.51
sVfinal
p2258
I00
sa(dp2259
Vto
p2260
F89.91
sVconfidence
p2261
F0.654
sVspeaker
p2262
I0
sVfrom
p2263
F89.81
sVfinal
p2264
I00
sa(dp2265
Vto
p2266
F90.08
sVconfidence
p2267
F0.654
sVspeaker
p2268
I0
sVfrom
p2269
F89.91
sVfinal
p2270
I00
sa(dp2271
Vto
p2272
F90.45
sVconfidence
p2273
F0.654
sVspeaker
p2274
I0
sVfrom
p2275
F90.08
sVfinal
p2276
I00
sa(dp2277
Vto
p2278
F91.48
sVconfidence
p2279
F0.635
sVspeaker
p2280
I0
sVfrom
p2281
F91.32
sVfinal
p2282
I00
sa(dp2283
Vto
p2284
F91.63
sVconfidence
p2285
F0.635
sVspeaker
p2286
I0
sVfrom
p2287
F91.48
sVfinal
p2288
I00
sa(dp2289
Vto
p2290
F92.06
sVconfidence
p2291
F0.635
sVspeaker
p2292
I0
sVfrom
p2293
F91.63
sVfinal
p2294
I00
sa(dp2295
Vto
p2296
F92.15
sVconfidence
p2297
F0.635
sVspeaker
p2298
I0
sVfrom
p2299
F92.06
sVfinal
p2300
I00
sa(dp2301
Vto
p2302
F92.34
sVconfidence
p2303
F0.635
sVspeaker
p2304
I0
sVfrom
p2305
F92.15
sVfinal
p2306
I00
sa(dp2307
Vto
p2308
F92.5
sVconfidence
p2309
F0.635
sVspeaker
p2310
I0
sVfrom
p2311
F92.34
sVfinal
p2312
I00
sa(dp2313
Vto
p2314
F92.64
sVconfidence
p2315
F0.635
sVspeaker
p2316
I0
sVfrom
p2317
F92.5
sVfinal
p2318
I00
sa(dp2319
Vto
p2320
F92.7
sVconfidence
p2321
F0.635
sVspeaker
p2322
I0
sVfrom
p2323
F92.64
sVfinal
p2324
I00
sa(dp2325
Vto
p2326
F92.86
sVconfidence
p2327
F0.635
sVspeaker
p2328
I0
sVfrom
p2329
F92.7
sVfinal
p2330
I00
sa(dp2331
Vto
p2332
F93.03
sVconfidence
p2333
F0.627
sVspeaker
p2334
I0
sVfrom
p2335
F92.89
sVfinal
p2336
I00
sa(dp2337
Vto
p2338
F93.18
sVconfidence
p2339
F0.627
sVspeaker
p2340
I0
sVfrom
p2341
F93.03
sVfinal
p2342
I00
sa(dp2343
Vto
p2344
F93.49
sVconfidence
p2345
F0.627
sVspeaker
p2346
I0
sVfrom
p2347
F93.18
sVfinal
p2348
I00
sa(dp2349
Vto
p2350
F93.82
sVconfidence
p2351
F0.627
sVspeaker
p2352
I0
sVfrom
p2353
F93.49
sVfinal
p2354
I00
sa(dp2355
Vto
p2356
F97.82
sVconfidence
p2357
F0.623
sVspeaker
p2358
I0
sVfrom
p2359
F97.61
sVfinal
p2360
I00
sa(dp2361
Vto
p2362
F98.27
sVconfidence
p2363
F0.643
sVspeaker
p2364
I0
sVfrom
p2365
F98.04
sVfinal
p2366
I00
sa(dp2367
Vto
p2368
F98.48
sVconfidence
p2369
F0.643
sVspeaker
p2370
I0
sVfrom
p2371
F98.27
sVfinal
p2372
I00
sa(dp2373
Vto
p2374
F98.68
sVconfidence
p2375
F0.643
sVspeaker
p2376
I0
sVfrom
p2377
F98.48
sVfinal
p2378
I00
sa(dp2379
Vto
p2380
F98.94
sVconfidence
p2381
F0.643
sVspeaker
p2382
I0
sVfrom
p2383
F98.68
sVfinal
p2384
I01
sas.