(dp0
Vresults
p1
(lp2
(dp3
Valternatives
p4
(lp5
(dp6
Vtimestamps
p7
(lp8
(lp9
V%HESITATION
p10
aF0.92
aF1.21
aasVconfidence
p11
F0.59
sVtranscript
p12
V%HESITATION 
p13
sasVfinal
p14
I01
sa(dp15
Valternatives
p16
(lp17
(dp18
Vtimestamps
p19
(lp20
(lp21
VGiles
p22
aF14.0
aF14.39
aasVconfidence
p23
F0.17
sVtranscript
p24
VGiles 
p25
sasVfinal
p26
I01
sasVresult_index
p27
I0
sVspeaker_labels
p28
(lp29
(dp30
Vto
p31
F1.21
sVconfidence
p32
F0.5
sVspeaker
p33
I0
sVfrom
p34
F0.92
sVfinal
p35
I00
sa(dp36
Vto
p37
F14.39
sVconfidence
p38
F0.667
sVspeaker
p39
I1
sVfrom
p40
F14.0
sVfinal
p41
I01
sas.