(dp0
Vresults
p1
(lp2
(dp3
Valternatives
p4
(lp5
(dp6
Vtimestamps
p7
(lp8
(lp9
V%HESITATION
p10
aF0.92
aF1.21
aasVconfidence
p11
F0.498
sVtranscript
p12
V%HESITATION 
p13
sasVfinal
p14
I01
sasVresult_index
p15
I0
sVspeaker_labels
p16
(lp17
(dp18
Vto
p19
F1.21
sVconfidence
p20
F0.5
sVspeaker
p21
I0
sVfrom
p22
F0.92
sVfinal
p23
I01
sas.