(dp0
Vresults
p1
(lp2
(dp3
Valternatives
p4
(lp5
(dp6
Vtimestamps
p7
(lp8
(lp9
V%HESITATION
p10
aF0.92
aF1.21
aasVconfidence
p11
F0.59
sVtranscript
p12
V%HESITATION 
p13
sasVfinal
p14
I01
sa(dp15
Valternatives
p16
(lp17
(dp18
Vtimestamps
p19
(lp20
(lp21
VI'm
p22
aF3.18
aF3.38
aa(lp23
Vreally
p24
aF3.38
aF3.7
aa(lp25
Vexcited
p26
aF3.7
aF4.14
aa(lp27
Vabout
p28
aF4.14
aF4.36
aa(lp29
Vbeing
p30
aF4.36
aF4.55
aa(lp31
Vin
p32
aF4.55
aF4.66
aa(lp33
VChristchurch
p34
aF4.66
aF5.22
aa(lp35
VI
p36
aF5.22
aF5.34
aa(lp37
Vactually
p38
aF5.34
aF5.71
aa(lp39
Vhaven't
p40
aF5.71
aF5.92
aa(lp41
Vbeen
p42
aF5.92
aF6.07
aa(lp43
Vto
p44
aF6.07
aF6.18
aa(lp45
Vcrush
p46
aF6.18
aF6.49
aa(lp47
Vit
p48
aF6.49
aF6.65
aa(lp49
Vfor
p50
aF6.65
aF6.96
aa(lp51
Va
p52
aF7.4
aF7.48
aa(lp53
Vlittle
p54
aF7.48
aF7.77
aa(lp55
Vwhile
p56
aF7.77
aF8.28
aa(lp57
Vand
p58
aF8.28
aF8.5
aa(lp59
Vlast
p60
aF8.5
aF8.82
aa(lp61
Vnight
p62
aF8.82
aF8.95
aa(lp63
Vwas
p64
aF8.95
aF9.06
aa(lp65
Vhe
p66
aF9.06
aF9.18
aa(lp67
Vwas
p68
aF9.18
aF9.36
aa(lp69
VJanuary
p70
aF9.36
aF9.74
aa(lp71
Vtwo
p72
aF9.74
aF9.89
aa(lp73
Vthousand
p74
aF9.89
aF10.22
aa(lp75
Vand
p76
aF10.22
aF10.31
aa(lp77
Vleave
p78
aF10.31
aF10.56
aa(lp79
Vand
p80
aF10.56
aF10.83
aa(lp81
Vso
p82
aF10.83
aF11.18
aa(lp83
Vthat's
p84
aF11.52
aF11.72
aa(lp85
Vsuch
p86
aF11.87
aF12.17
aa(lp87
Van
p88
aF12.17
aF12.28
aa(lp89
Vinteresting
p90
aF12.28
aF13.2
aa(lp91
Vthing
p92
aF13.23
aF13.46
aa(lp93
Vcoming
p94
aF13.46
aF13.82
aa(lp95
Vback
p96
aF13.82
aF14.17
aa(lp97
Vand
p98
aF14.17
aF14.37
aa(lp99
Vsaying
p100
aF14.37
aF14.62
aa(lp101
Vthe
p102
aF14.62
aF14.72
aa(lp103
Vcity
p104
aF14.72
aF15.16
aa(lp105
Vand
p106
aF15.44
aF15.64
aa(lp107
Vits
p108
aF15.64
aF15.83
aa(lp109
Vrebuild
p110
aF15.83
aF16.34
aa(lp111
Vstation
p112
aF16.34
aF17.12
aa(lp113
Vsaying
p114
aF17.35
aF17.65
aa(lp115
Vhow
p116
aF17.65
aF17.77
aa(lp117
Vthe
p118
aF17.77
aF17.91
aa(lp119
Vpaperless
p120
aF17.91
aF18.41
aa(lp121
Vsort
p122
aF18.41
aF18.57
aa(lp123
Vof
p124
aF18.57
aF18.66
aa(lp125
Vjust
p126
aF18.66
aF18.95
aa(lp127
Vamazing
p128
aF19.33
aF19.99
aa(lp129
Vand
p130
aF19.99
aF20.28
aa(lp131
Vend
p132
aF20.31
aF20.6
aa(lp133
Vup
p134
aF20.6
aF20.74
aa(lp135
Vbeing
p136
aF20.74
aF21.07
aa(lp137
Vso
p138
aF21.07
aF21.36
aa(lp139
Vlight
p140
aF21.36
aF21.55
aa(lp141
Vand
p142
aF21.55
aF21.7
aa(lp143
Vcredible
p144
aF21.7
aF22.08
aa(lp145
Vabout
p146
aF22.08
aF22.42
aa(lp147
Vthe
p148
aF22.9
aF23.11
aa(lp149
Vand
p150
aF23.27
aF23.49
aa(lp151
Vexcited
p152
aF23.49
aF24.03
aa(lp153
Vabout
p154
aF24.03
aF24.24
aa(lp155
Vthe
p156
aF24.24
aF24.31
aa(lp157
Vfact
p158
aF24.31
aF24.52
aa(lp159
Vthat
p160
aF24.52
aF24.63
aa(lp161
Vis
p162
aF24.63
aF24.78
aa(lp163
Vsort
p164
aF24.78
aF24.92
aa(lp165
Vof
p166
aF24.92
aF25.01
aa(lp167
g52
aF25.01
aF25.09
aa(lp168
Vnew
p169
aF25.09
aF25.28
aa(lp170
Vcity
p171
aF25.28
aF25.56
aa(lp172
Von
p173
aF25.56
aF25.7
aa(lp174
Vthe
p175
aF25.7
aF25.78
aa(lp176
Vhorizon
p177
aF25.78
aF26.32
aa(lp178
Vyeah
p179
aF26.89
aF27.11
aa(lp180
VI'm
p181
aF27.11
aF27.29
aa(lp182
Vjudging
p183
aF27.29
aF27.61
aa(lp184
Vfishing
p185
aF27.61
aF27.92
aa(lp186
Vthe
p187
aF27.92
aF28.02
aa(lp188
Vfield
p189
aF28.02
aF28.3
aa(lp190
Vsmall
p191
aF28.3
aF28.57
aa(lp192
Vright
p193
aF28.57
aF28.78
aa(lp194
Vand
p195
aF28.81
aF29.39
aa(lp196
V%HESITATION
p197
aF29.81
aF30.14
aa(lp198
Vis
p199
aF30.28
aF30.63
aa(lp200
Vthe
p201
aF30.67
aF30.76
aa(lp202
Vthings
p203
aF30.76
aF31.08
aa(lp204
Vthat
p205
aF31.08
aF31.21
aa(lp206
g36
aF31.21
aF31.28
aa(lp207
Vhave
p208
aF31.28
aF31.52
aa(lp209
Vto
p210
aF31.52
aF31.7
aa(lp211
Vbe
p212
aF31.7
aF31.82
aa(lp213
Vlooking
p214
aF31.82
aF32.14
aa(lp215
Vfor
p216
aF32.14
aF32.35
aa(lp217
Vbecause
p218
aF32.35
aF32.6
aa(lp219
Vthis
p220
aF32.6
aF32.77
aa(lp221
Vteam
p222
aF32.77
aF32.95
aa(lp223
Vhave
p224
aF32.95
aF33.12
aa(lp225
Vguidelines
p226
aF33.12
aF33.84
aa(lp227
Vin
p228
aF33.84
aF33.94
aa(lp229
Vsession
p230
aF33.94
aF34.26
aa(lp231
Vof
p232
aF34.26
aF34.33
aa(lp233
Vthe
p234
aF34.33
aF34.4
aa(lp235
Vfield
p236
aF34.4
aF34.82
aa(lp237
Vbut
p238
aF35.15
aF35.3
aa(lp239
VI'm
p240
aF35.3
aF35.43
aa(lp241
Valso
p242
aF35.43
aF35.78
aa(lp243
Vlooking
p244
aF35.78
aF36.13
aa(lp245
Vfor
p246
aF36.13
aF36.29
aa(lp247
Vthe
p248
aF36.29
aF36.56
aa(lp249
Vpeople
p250
aF36.91
aF37.34
aa(lp251
Vwhose
p252
aF37.34
aF37.65
aa(lp253
Voutfit
p254
aF37.68
aF38.11
aa(lp255
Vand
p256
aF38.11
aF38.3
aa(lp257
Vthey're
p258
aF38.3
aF38.46
aa(lp259
Von
p260
aF38.46
aF38.64
aa(lp261
Vtheir
p262
aF38.9
aF39.24
aa(lp263
Ventire
p264
aF39.24
aF39.72
aa(lp265
Vensemble
p266
aF39.72
aF40.34
aa(lp267
Vsort
p268
aF40.34
aF40.57
aa(lp269
Vof
p270
aF40.57
aF40.76
aa(lp271
Vembodies
p272
aF41.02
aF41.73
aa(lp273
Vthe
p274
aF41.76
aF42.16
aa(lp275
Vfeeling
p276
aF42.4
aF42.91
aa(lp277
Vof
p278
aF42.91
aF43.05
aa(lp279
Vrecession
p280
aF43.05
aF43.52
aa(lp281
Vcap
p282
aF43.52
aF43.89
aa(lp283
Vand
p284
aF43.89
aF44.28
aa(lp285
Vand
p286
aF44.55
aF44.69
aa(lp287
Vpeople
p288
aF44.69
aF44.93
aa(lp289
Vwho
p290
aF44.93
aF45.06
aa(lp291
Varen't
p292
aF45.06
aF45.23
aa(lp293
Vafraid
p294
aF45.23
aF45.56
aa(lp295
Vto
p296
aF45.56
aF45.66
aa(lp297
Vbe
p298
aF45.66
aF45.79
aa(lp299
g52
aF45.79
aF45.85
aa(lp300
Vbit
p301
aF45.85
aF46.02
aa(lp302
Vbowls
p303
aF46.02
aF46.92
aa(lp304
V%HESITATION
p305
aF47.21
aF47.57
aa(lp306
g36
aF47.61
aF47.76
aa(lp307
Vreally
p308
aF47.76
aF48.09
aa(lp309
Vlove
p310
aF48.09
aF48.31
aa(lp311
Vthe
p312
aF48.31
aF48.46
aa(lp313
Videa
p314
aF48.46
aF49.05
aa(lp315
Vof
p316
aF49.38
aF49.62
aa(lp317
Vthe
p318
aF49.65
aF49.81
aa(lp319
Vraces
p320
aF49.81
aF50.26
aa(lp321
Vin
p322
aF50.26
aF50.39
aa(lp323
Vthe
p324
aF50.39
aF50.5
aa(lp325
Vrice
p326
aF50.5
aF50.83
aa(lp327
Vis
p328
aF50.83
aF50.98
aa(lp329
Vto
p330
aF50.98
aF51.13
aa(lp331
Vsing
p332
aF51.13
aF51.39
aa(lp333
Vbecause
p334
aF51.39
aF52.06
aasVconfidence
p335
F0.724
sVtranscript
p336
VI'm really excited about being in Christchurch I actually haven't been to crush it for a little while and last night was he was January two thousand and leave and so that's such an interesting thing coming back and saying the city and its rebuild station saying how the paperless sort of just amazing and end up being so light and credible about the and excited about the fact that is sort of a new city on the horizon yeah I'm judging fishing the field small right and %HESITATION is the things that I have to be looking for because this team have guidelines in session of the field but I'm also looking for the people whose outfit and they're on their entire ensemble sort of embodies the feeling of recession cap and and people who aren't afraid to be a bit bowls %HESITATION I really love the idea of the races in the rice is to sing because 
p337
sasVfinal
p338
I01
sa(dp339
Valternatives
p340
(lp341
(dp342
Vtimestamps
p343
(lp344
(lp345
g36
aF52.49
aF52.6
aa(lp346
Vfeel
p347
aF52.6
aF52.8
aa(lp348
Vlike
p349
aF52.8
aF52.99
aa(lp350
Vhe
p351
aF52.99
aF53.11
aa(lp352
Vwas
p353
aF53.11
aF53.29
aa(lp354
Vwe
p355
aF53.29
aF53.39
aa(lp356
Vquite
p357
aF53.39
aF53.61
aa(lp358
Vreserve
p359
aF53.61
aF53.99
aa(lp360
Vthree
p361
aF53.99
aF54.28
aa(lp362
Vsince
p363
aF54.28
aF54.81
aa(lp364
g36
aF54.81
aF55.07
aa(lp365
Vit's
p366
aF55.37
aF55.53
aa(lp367
g52
aF55.53
aF55.61
aa(lp368
Vreally
p369
aF55.61
aF55.85
aa(lp370
Vexciting
p371
aF55.85
aF56.33
aa(lp372
Vday
p373
aF56.33
aF56.55
aa(lp374
Vwe
p375
aF56.55
aF56.71
aa(lp376
Vpeople
p377
aF56.71
aF57.08
aa(lp378
Vreally
p379
aF57.08
aF57.33
aa(lp380
Vcan
p381
aF57.33
aF57.49
aa(lp382
Vgo
p383
aF57.49
aF57.68
aa(lp384
Vall
p385
aF57.68
aF57.94
aa(lp386
Vout
p387
aF57.94
aF58.32
aasVconfidence
p388
F0.734
sVtranscript
p389
VI feel like he was we quite reserve three since I it's a really exciting day we people really can go all out 
p390
sasVfinal
p391
I01
sa(dp392
Valternatives
p393
(lp394
(dp395
Vtimestamps
p396
(lp397
(lp398
g36
aF59.44
aF59.47
aa(lp399
Vthink
p400
aF59.5
aF59.72
aa(lp401
Vone
p402
aF59.72
aF59.86
aa(lp403
Vof
p404
aF59.86
aF59.97
aa(lp405
Vthe
p406
aF59.97
aF60.3
aa(lp407
Vbiggest
p408
aF60.68
aF61.12
aa(lp409
Vthings
p410
aF61.12
aF61.46
aa(lp411
Vif
p412
aF61.49
aF61.65
aa(lp413
Vyou
p414
aF61.65
aF61.82
aa(lp415
Vare
p416
aF61.82
aF61.91
aa(lp417
Ventering
p418
aF62.08
aF62.6
aa(lp419
Vintervention
p420
aF62.6
aF63.12
aa(lp421
Vof
p422
aF63.12
aF63.19
aa(lp423
Vthe
p424
aF63.19
aF63.28
aa(lp425
Vfield
p426
aF63.28
aF63.55
aa(lp427
Vit
p428
aF63.58
aF63.73
aa(lp429
Vis
p430
aF63.73
aF63.91
aa(lp431
g52
aF63.91
aF63.97
aa(lp432
Vbig
p433
aF63.97
aF64.18
aa(lp434
Vdifference
p435
aF64.18
aF64.55
aa(lp436
Vif
p437
aF64.55
aF64.67
aa(lp438
Vyou're
p439
aF64.67
aF64.83
aa(lp440
Vjust
p441
aF64.83
aF65.08
aa(lp442
g52
aF65.08
aF65.15
aa(lp443
Vrice
p444
aF65.15
aF65.44
aa(lp445
Vgo
p446
aF65.44
aF65.86
aa(lp447
Vinto
p448
aF65.86
aF66.19
aa(lp449
Vrain
p450
aF66.19
aF66.42
aa(lp451
Vbut
p452
aF66.42
aF66.67
aa(lp453
Vif
p454
aF67.05
aF67.23
aa(lp455
Vyou
p456
aF67.23
aF67.34
aa(lp457
Ventering
p458
aF67.34
aF67.76
aa(lp459
Vas
p460
aF67.76
aF67.86
aa(lp461
g52
aF67.86
aF67.92
aa(lp462
Vsession
p463
aF67.92
aF68.21
aa(lp464
Vof
p465
aF68.21
aF68.29
aa(lp466
Vthe
p467
aF68.29
aF68.36
aa(lp468
Vfield
p469
aF68.36
aF68.66
aa(lp470
Vthe
p471
aF68.66
aF68.75
aa(lp472
Vbig
p473
aF68.75
aF69.09
aa(lp474
V%HESITATION
p475
aF69.46
aF69.93
aa(lp476
Vthing
p477
aF70.28
aF70.54
aa(lp478
Vto
p479
aF70.54
aF70.67
aa(lp480
Vwatch
p481
aF70.7
aF71.04
aa(lp482
Vout
p483
aF71.04
aF71.22
aa(lp484
Vfor
p485
aF71.22
aF71.37
aa(lp486
Vis
p487
aF71.37
aF71.49
aa(lp488
Vhim
p489
aF71.49
aF71.78
aa(lp490
Vlines
p491
aF71.78
aF72.26
aa(lp492
g36
aF72.26
aF72.32
aa(lp493
Vcan't
p494
aF72.32
aF72.58
aa(lp495
Vbe
p496
aF72.58
aF72.84
aa(lp497
Vsort
p498
aF72.87
aF73.01
aa(lp499
Vof
p500
aF73.01
aF73.15
aa(lp501
Vsure
p502
aF73.77
aF74.13
aasVconfidence
p503
F0.754
sVtranscript
p504
VI think one of the biggest things if you are entering intervention of the field it is a big difference if you're just a rice go into rain but if you entering as a session of the field the big %HESITATION thing to watch out for is him lines I can't be sort of sure 
p505
sasVfinal
p506
I01
sa(dp507
Valternatives
p508
(lp509
(dp510
Vtimestamps
p511
(lp512
(lp513
g36
aF75.82
aF76.2
aa(lp514
Vthink
p515
aF76.2
aF76.59
aa(lp516
Vit
p517
aF76.62
aF76.73
aa(lp518
Vmight
p519
aF76.73
aF76.94
aa(lp520
Vbe
p521
aF76.94
aF77.23
aa(lp522
Vwhat
p523
aF77.43
aF77.8
aa(lp524
Vyou
p525
aF77.8
aF77.88
aa(lp526
Vhad
p527
aF77.88
aF78.03
aa(lp528
g52
aF78.03
aF78.08
aa(lp529
Vfew
p530
aF78.08
aF78.28
aa(lp531
Vchampagne
p532
aF78.28
aF78.83
aa(lp533
Vsometimes
p534
aF78.83
aF79.31
aa(lp535
Vhe
p536
aF79.31
aF79.55
aa(lp537
Vgets
p538
aF79.81
aF80.02
aa(lp539
g52
aF80.02
aF80.09
aa(lp540
Vbit
p541
aF80.09
aF80.28
aa(lp542
Vshorter
p543
aF80.28
aF80.62
aa(lp544
Vso
p545
aF80.62
aF80.8
aa(lp546
Vit
p547
aF80.8
aF81.0
aa(lp548
Vwas
p549
aF81.0
aF81.19
aa(lp550
Vjust
p551
aF81.41
aF81.61
aa(lp552
Vthat
p553
aF81.61
aF81.8
aa(lp554
Vwas
p555
aF81.8
aF81.96
aa(lp556
g52
aF81.96
aF82.0
aa(lp557
Vlittle
p558
aF82.0
aF82.17
aa(lp559
Vbit
p560
aF82.17
aF82.33
aa(lp561
Vlonger
p562
aF82.33
aF82.75
aasVconfidence
p563
F0.716
sVtranscript
p564
VI think it might be what you had a few champagne sometimes he gets a bit shorter so it was just that was a little bit longer 
p565
sasVfinal
p566
I01
sa(dp567
Valternatives
p568
(lp569
(dp570
Vtimestamps
p571
(lp572
(lp573
Vit's
p574
aF84.98
aF85.14
aa(lp575
Vabsolutely
p576
aF85.17
aF85.78
aa(lp577
Vessential
p578
aF85.78
aF86.29
aa(lp579
Vor
p580
aF86.57
aF86.78
aa(lp581
Vface
p582
aF86.78
aF87.06
aa(lp583
VNATO
p584
aF87.06
aF87.39
aa(lp585
Vchancellor
p586
aF88.21
aF88.8
aa(lp587
VLee
p588
aF88.8
aF88.93
aa(lp589
Vessential
p590
aF88.93
aF89.55
aa(lp591
Vand
p592
aF89.82
aF89.98
aa(lp593
g36
aF89.98
aF90.07
aa(lp594
Vthink
p595
aF90.07
aF90.3
aa(lp596
g36
aF90.33
aF90.57
aa(lp597
Vthink
p598
aF90.98
aF91.17
aa(lp599
Vit
p600
aF91.17
aF91.25
aa(lp601
Vwould
p602
aF91.25
aF91.37
aa(lp603
Vbe
p604
aF91.37
aF91.49
aa(lp605
Vthat
p606
aF91.49
aF91.76
aa(lp607
Vwell
p608
aF92.01
aF92.27
aa(lp609
Vthe
p610
aF92.27
aF92.37
aa(lp611
Vmore
p612
aF92.37
aF92.66
aa(lp613
Vsort
p614
aF92.66
aF92.86
aa(lp615
Vof
p616
aF92.86
aF93.05
aa(lp617
g52
aF93.68
aF93.71
aa(lp618
Vdifferent
p619
aF94.09
aF94.59
aa(lp620
Vset
p621
aF94.59
aF94.84
aa(lp622
Vof
p623
aF94.84
aF94.94
aa(lp624
Vthose
p625
aF94.94
aF95.2
aa(lp626
VI've
p627
aF95.2
aF95.46
aa(lp628
V%HESITATION
p629
aF95.51
aF95.9
aa(lp630
VI'm
p631
aF96.16
aF96.39
aa(lp632
Vreally
p633
aF96.39
aF96.63
aa(lp634
Vexcited
p635
aF96.63
aF97.18
aa(lp636
Vto
p637
aF97.21
aF97.61
aa(lp638
Vshowcase
p639
aF97.7
aF98.31
aa(lp640
Vmy
p641
aF98.31
aF98.74
aa(lp642
Vfascinated
p643
aF99.15
aF99.75
aa(lp644
Vthat
p645
aF99.75
aF99.89
aa(lp646
VI've
p647
aF99.89
aF100.06
aa(lp648
Vgot
p649
aF100.06
aF100.27
aa(lp650
Vplanned
p651
aF100.27
aF100.58
aa(lp652
Vfor
p653
aF100.58
aF100.72
aa(lp654
Vtomorrow
p655
aF100.72
aF101.18
aa(lp656
Vbut
p657
aF101.24
aF101.38
aa(lp658
Vit's
p659
aF101.38
aF101.52
aa(lp660
Vit's
p661
aF101.52
aF101.78
aa(lp662
Vit's
p663
aF102.08
aF102.27
aa(lp664
Vbright
p665
aF102.27
aF102.61
aa(lp666
Vpink
p667
aF102.64
aF103.21
aasVconfidence
p668
F0.68
sVtranscript
p669
Vit's absolutely essential or face NATO chancellor Lee essential and I think I think it would be that well the more sort of a different set of those I've %HESITATION I'm really excited to showcase my fascinated that I've got planned for tomorrow but it's it's it's bright pink 
p670
sasVfinal
p671
I01
sa(dp672
Valternatives
p673
(lp674
(dp675
Vtimestamps
p676
(lp677
(lp678
V%HESITATION
p679
aF104.19
aF104.55
aa(lp680
Vwould
p681
aF104.6
aF104.83
aa(lp682
Vsay
p683
aF104.86
aF105.02
aa(lp684
VI've
p685
aF105.02
aF105.25
aa(lp686
Vgot
p687
aF105.25
aF105.38
aa(lp688
g52
aF105.38
aF105.43
aa(lp689
Vbeautiful
p690
aF105.43
aF106.28
aa(lp691
V%HESITATION
p692
aF106.56
aF106.88
aa(lp693
VGoodison
p694
aF107.37
aF107.98
aa(lp695
Vtops
p696
aF107.98
aF108.48
aa(lp697
Vand
p698
aF108.48
aF108.74
aa(lp699
V%HESITATION
p700
aF108.86
aF109.14
aa(lp701
V%HESITATION
p702
aF109.17
aF109.35
aa(lp703
Vdown
p704
aF109.35
aF109.53
aa(lp705
Vby
p706
aF109.53
aF109.89
aa(lp707
V%HESITATION
p708
aF110.18
aF110.42
aa(lp709
Vopen
p710
aF110.42
aF110.75
aa(lp711
Vdesign
p712
aF110.75
aF111.08
aa(lp713
Vand
p714
aF111.08
aF111.22
aa(lp715
Vat
p716
aF111.22
aF111.33
aa(lp717
Vleast
p718
aF111.33
aF111.52
aa(lp719
Vten
p720
aF111.52
aF111.87
aa(lp721
Vwho
p722
aF111.87
aF112.03
aa(lp723
Vis
p724
aF112.03
aF112.17
aa(lp725
Vquite
p726
aF112.65
aF112.97
aa(lp727
Vwell
p728
aF112.97
aF113.17
aa(lp729
Vknown
p730
aF113.17
aF113.67
aa(lp731
Vin
p732
aF113.96
aF114.2
aa(lp733
Vthe
p734
aF114.2
aF114.31
aa(lp735
Vrice
p736
aF114.31
aF114.64
aa(lp737
Vand
p738
aF114.64
aF114.88
aa(lp739
Vthe
p740
aF114.88
aF114.95
aa(lp741
Vway
p742
aF114.95
aF115.05
aa(lp743
g36
aF115.05
aF115.1
aa(lp744
Vsquealed
p745
aF115.1
aF115.69
aa(lp746
Vfor
p747
aF116.05
aF116.25
aa(lp748
Vthe
p749
aF116.36
aF116.7
aa(lp750
Vamazing
p751
aF116.73
aF117.29
aa(lp752
Vmillenarian
p753
aF117.29
aF117.98
aasVconfidence
p754
F0.574
sVtranscript
p755
V%HESITATION would say I've got a beautiful %HESITATION Goodison tops and %HESITATION %HESITATION down by %HESITATION open design and at least ten who is quite well known in the rice and the way I squealed for the amazing millenarian 
p756
sasVfinal
p757
I01
sa(dp758
Valternatives
p759
(lp760
(dp761
Vtimestamps
p762
(lp763
(lp764
V%HESITATION
p765
aF118.71
aF119.11
aa(lp766
g36
aF119.11
aF119.21
aa(lp767
Vthink
p768
aF119.21
aF119.47
aa(lp769
Vgrowing
p770
aF119.47
aF119.85
aa(lp771
Vup
p772
aF119.85
aF120.01
aa(lp773
g36
aF120.01
aF120.11
aa(lp774
Valways
p775
aF120.11
aF120.39
aa(lp776
Venvisioned
p777
aF120.39
aF120.9
aa(lp778
Vthat
p779
aF120.9
aF121.03
aa(lp780
Vonce
p781
aF121.03
aF121.26
aa(lp782
g36
aF121.26
aF121.33
aa(lp783
Vbecame
p784
aF121.33
aF121.64
aa(lp785
Van
p786
aF121.64
aF121.75
aa(lp787
Vadult
p788
aF121.75
aF122.15
aa(lp789
g36
aF122.15
aF122.21
aa(lp790
Vwould
p791
aF122.21
aF122.37
aa(lp792
Vsort
p793
aF122.37
aF122.56
aa(lp794
Vof
p795
aF122.56
aF122.77
aa(lp796
Vinjuries
p797
aF123.27
aF123.92
aa(lp798
Vwonderfully
p799
aF124.25
aF124.99
aa(lp800
Vevery
p801
aF124.99
aF125.29
aa(lp802
Vday
p803
aF125.29
aF125.6
aa(lp804
Vand
p805
aF125.6
aF125.83
aa(lp806
Vbe
p807
aF125.88
aF126.15
aa(lp808
Vcompletely
p809
aF126.18
aF126.67
aa(lp810
Vreally
p811
aF126.67
aF126.89
aa(lp812
Vstylish
p813
aF126.89
aF127.62
aa(lp814
Vand
p815
aF127.62
aF127.92
aa(lp816
V%HESITATION
p817
aF128.24
aF128.59
aa(lp818
Vonce
p819
aF128.62
aF128.86
aa(lp820
Vyou
p821
aF128.86
aF128.92
aa(lp822
Vbecome
p823
aF128.92
aF129.19
aa(lp824
g52
aF129.19
aF129.26
aa(lp825
Vmom
p826
aF129.26
aF129.69
aa(lp827
Vthat
p828
aF130.04
aF130.31
aa(lp829
Vsort
p830
aF130.35
aF130.56
aa(lp831
Vof
p832
aF130.56
aF130.64
aa(lp833
Vall
p834
aF130.64
aF130.74
aa(lp835
Vgoes
p836
aF130.74
aF131.0
aa(lp837
Vout
p838
aF131.0
aF131.13
aa(lp839
Vthe
p840
aF131.13
aF131.22
aa(lp841
Vwindow
p842
aF131.22
aF131.63
aa(lp843
Vand
p844
aF131.63
aF131.83
aa(lp845
Vpracticality
p846
aF131.83
aF132.6
aa(lp847
Vkicks
p848
aF132.6
aF132.99
aa(lp849
Vand
p850
aF132.99
aF133.17
aa(lp851
Vthen
p852
aF133.17
aF133.31
aa(lp853
Vyou
p854
aF133.31
aF133.46
aa(lp855
Vspend
p856
aF133.46
aF133.71
aa(lp857
g52
aF133.71
aF133.75
aa(lp858
Vlot
p859
aF133.75
aF133.93
aa(lp860
Vmore
p861
aF133.93
aF134.08
aa(lp862
Vtime
p863
aF134.08
aF134.47
aa(lp864
Vand
p865
aF134.47
aF134.7
aa(lp866
Vput
p867
aF135.12
aF135.29
aa(lp868
Vit
p869
aF135.29
aF135.42
aa(lp870
Vsweet
p871
aF135.42
aF135.72
aa(lp872
Vshould
p873
aF135.72
aF136.09
aa(lp874
Vtalk
p875
aF136.28
aF136.52
aa(lp876
Vto
p877
aF136.52
aF136.88
aa(lp878
Vme
p879
aF137.73
aF137.92
aa(lp880
Vbecause
p881
aF137.92
aF138.24
aa(lp882
Vso
p883
aF138.27
aF138.38
aa(lp884
Vthat
p885
aF138.38
aF138.5
aa(lp886
Vyou
p887
aF138.5
aF138.62
aa(lp888
Vcan
p889
aF138.62
aF138.77
aa(lp890
Vrun
p891
aF138.77
aF138.95
aa(lp892
Varound
p893
aF138.95
aF139.59
aasVconfidence
p894
F0.767
sVtranscript
p895
V%HESITATION I think growing up I always envisioned that once I became an adult I would sort of injuries wonderfully every day and be completely really stylish and %HESITATION once you become a mom that sort of all goes out the window and practicality kicks and then you spend a lot more time and put it sweet should talk to me because so that you can run around 
p896
sasVfinal
p897
I01
sa(dp898
Valternatives
p899
(lp900
(dp901
Vtimestamps
p902
(lp903
(lp904
Vlove
p905
aF140.44
aF140.74
aa(lp906
Vand
p907
aF140.97
aF141.15
aa(lp908
Voccasion
p909
aF141.15
aF141.54
aa(lp910
Vto
p911
aF141.54
aF141.66
aa(lp912
Vdress
p913
aF141.66
aF141.93
aa(lp914
Vup
p915
aF141.93
aF142.15
aa(lp916
g36
aF142.15
aF142.24
aa(lp917
Vthink
p918
aF142.24
aF142.65
aa(lp919
Vit
p920
aF143.01
aF143.18
aa(lp921
Vmakes
p922
aF143.18
aF143.44
aa(lp923
Vyou
p924
aF143.44
aF143.53
aa(lp925
Vfeel
p926
aF143.53
aF143.75
aa(lp927
Vgood
p928
aF143.75
aF143.98
aa(lp929
Vto
p930
aF143.98
aF144.08
aa(lp931
Vsee
p932
aF144.08
aF144.24
aa(lp933
Vshe's
p934
aF144.24
aF144.52
aa(lp935
g52
aF144.52
aF144.58
aa(lp936
Vwoman
p937
aF144.58
aF145.01
aa(lp938
Vlike
p939
aF145.01
aF145.25
aa(lp940
Vit's
p941
aF145.25
aF145.4
aa(lp942
g52
aF145.4
aF145.47
aa(lp943
Vreally
p944
aF145.47
aF145.74
aa(lp945
Vexciting
p946
aF145.74
aF146.28
aa(lp947
Vthing
p948
aF146.28
aF146.5
aa(lp949
Vto
p950
aF146.5
aF146.63
aa(lp951
Vbe
p952
aF146.63
aF146.73
aa(lp953
Vout
p954
aF146.73
aF146.87
aa(lp955
Vwith
p956
aF146.87
aF146.98
aa(lp957
Vthe
p958
aF146.98
aF147.18
aa(lp959
Vtree
p960
aF147.57
aF147.8
aa(lp961
Vsap
p962
aF147.8
aF148.21
aa(lp963
Vand
p964
aF148.21
aF148.35
aa(lp965
Vfeel
p966
aF148.35
aF148.59
aa(lp967
Vgood
p968
aF148.59
aF148.75
aa(lp969
Vabout
p970
aF148.75
aF149.0
aa(lp971
Vyourself
p972
aF149.0
aF149.54
aa(lp973
Vand
p974
aF149.54
aF149.65
aa(lp975
Vget
p976
aF149.65
aF149.76
aa(lp977
Vyour
p978
aF149.76
aF149.88
aa(lp979
Vhead
p980
aF149.88
aF150.08
aa(lp981
Vdown
p982
aF150.08
aF150.28
aa(lp983
Vand
p984
aF150.28
aF150.37
aa(lp985
Vyou
p986
aF150.37
aF150.44
aa(lp987
Vmight
p988
aF150.44
aF150.64
aa(lp989
Vhave
p990
aF150.64
aF150.78
aa(lp991
Vdone
p992
aF150.81
aF151.01
aa(lp993
Vthat
p994
aF151.01
aF151.14
aa(lp995
Vsociety
p996
aF151.14
aF151.6
aasVconfidence
p997
F0.702
sVtranscript
p998
Vlove and occasion to dress up I think it makes you feel good to see she's a woman like it's a really exciting thing to be out with the tree sap and feel good about yourself and get your head down and you might have done that society 
p999
sasVfinal
p1000
I01
sasVresult_index
p1001
I0
sVspeaker_labels
p1002
(lp1003
(dp1004
Vto
p1005
F1.21
sVconfidence
p1006
F0.288
sVspeaker
p1007
I0
sVfrom
p1008
F0.92
sVfinal
p1009
I00
sa(dp1010
Vto
p1011
F3.38
sVconfidence
p1012
F0.447
sVspeaker
p1013
I0
sVfrom
p1014
F3.18
sVfinal
p1015
I00
sa(dp1016
Vto
p1017
F3.7
sVconfidence
p1018
F0.447
sVspeaker
p1019
I0
sVfrom
p1020
F3.38
sVfinal
p1021
I00
sa(dp1022
Vto
p1023
F4.14
sVconfidence
p1024
F0.447
sVspeaker
p1025
I0
sVfrom
p1026
F3.7
sVfinal
p1027
I00
sa(dp1028
Vto
p1029
F4.36
sVconfidence
p1030
F0.447
sVspeaker
p1031
I0
sVfrom
p1032
F4.14
sVfinal
p1033
I00
sa(dp1034
Vto
p1035
F4.55
sVconfidence
p1036
F0.447
sVspeaker
p1037
I0
sVfrom
p1038
F4.36
sVfinal
p1039
I00
sa(dp1040
Vto
p1041
F4.66
sVconfidence
p1042
F0.447
sVspeaker
p1043
I0
sVfrom
p1044
F4.55
sVfinal
p1045
I00
sa(dp1046
Vto
p1047
F5.22
sVconfidence
p1048
F0.447
sVspeaker
p1049
I0
sVfrom
p1050
F4.66
sVfinal
p1051
I00
sa(dp1052
Vto
p1053
F5.34
sVconfidence
p1054
F0.447
sVspeaker
p1055
I0
sVfrom
p1056
F5.22
sVfinal
p1057
I00
sa(dp1058
Vto
p1059
F5.71
sVconfidence
p1060
F0.447
sVspeaker
p1061
I0
sVfrom
p1062
F5.34
sVfinal
p1063
I00
sa(dp1064
Vto
p1065
F5.92
sVconfidence
p1066
F0.447
sVspeaker
p1067
I0
sVfrom
p1068
F5.71
sVfinal
p1069
I00
sa(dp1070
Vto
p1071
F6.07
sVconfidence
p1072
F0.447
sVspeaker
p1073
I0
sVfrom
p1074
F5.92
sVfinal
p1075
I00
sa(dp1076
Vto
p1077
F6.18
sVconfidence
p1078
F0.447
sVspeaker
p1079
I0
sVfrom
p1080
F6.07
sVfinal
p1081
I00
sa(dp1082
Vto
p1083
F6.49
sVconfidence
p1084
F0.447
sVspeaker
p1085
I0
sVfrom
p1086
F6.18
sVfinal
p1087
I00
sa(dp1088
Vto
p1089
F6.65
sVconfidence
p1090
F0.447
sVspeaker
p1091
I0
sVfrom
p1092
F6.49
sVfinal
p1093
I00
sa(dp1094
Vto
p1095
F6.96
sVconfidence
p1096
F0.447
sVspeaker
p1097
I0
sVfrom
p1098
F6.65
sVfinal
p1099
I00
sa(dp1100
Vto
p1101
F7.48
sVconfidence
p1102
F0.377
sVspeaker
p1103
I0
sVfrom
p1104
F7.4
sVfinal
p1105
I00
sa(dp1106
Vto
p1107
F7.77
sVconfidence
p1108
F0.377
sVspeaker
p1109
I0
sVfrom
p1110
F7.48
sVfinal
p1111
I00
sa(dp1112
Vto
p1113
F8.28
sVconfidence
p1114
F0.377
sVspeaker
p1115
I0
sVfrom
p1116
F7.77
sVfinal
p1117
I00
sa(dp1118
Vto
p1119
F8.5
sVconfidence
p1120
F0.377
sVspeaker
p1121
I0
sVfrom
p1122
F8.28
sVfinal
p1123
I00
sa(dp1124
Vto
p1125
F8.82
sVconfidence
p1126
F0.377
sVspeaker
p1127
I0
sVfrom
p1128
F8.5
sVfinal
p1129
I00
sa(dp1130
Vto
p1131
F8.95
sVconfidence
p1132
F0.377
sVspeaker
p1133
I0
sVfrom
p1134
F8.82
sVfinal
p1135
I00
sa(dp1136
Vto
p1137
F9.06
sVconfidence
p1138
F0.377
sVspeaker
p1139
I0
sVfrom
p1140
F8.95
sVfinal
p1141
I00
sa(dp1142
Vto
p1143
F9.18
sVconfidence
p1144
F0.377
sVspeaker
p1145
I0
sVfrom
p1146
F9.06
sVfinal
p1147
I00
sa(dp1148
Vto
p1149
F9.36
sVconfidence
p1150
F0.377
sVspeaker
p1151
I0
sVfrom
p1152
F9.18
sVfinal
p1153
I00
sa(dp1154
Vto
p1155
F9.74
sVconfidence
p1156
F0.377
sVspeaker
p1157
I0
sVfrom
p1158
F9.36
sVfinal
p1159
I00
sa(dp1160
Vto
p1161
F9.89
sVconfidence
p1162
F0.377
sVspeaker
p1163
I0
sVfrom
p1164
F9.74
sVfinal
p1165
I00
sa(dp1166
Vto
p1167
F10.22
sVconfidence
p1168
F0.377
sVspeaker
p1169
I0
sVfrom
p1170
F9.89
sVfinal
p1171
I00
sa(dp1172
Vto
p1173
F10.31
sVconfidence
p1174
F0.377
sVspeaker
p1175
I0
sVfrom
p1176
F10.22
sVfinal
p1177
I00
sa(dp1178
Vto
p1179
F10.56
sVconfidence
p1180
F0.377
sVspeaker
p1181
I0
sVfrom
p1182
F10.31
sVfinal
p1183
I00
sa(dp1184
Vto
p1185
F10.83
sVconfidence
p1186
F0.377
sVspeaker
p1187
I0
sVfrom
p1188
F10.56
sVfinal
p1189
I00
sa(dp1190
Vto
p1191
F11.18
sVconfidence
p1192
F0.377
sVspeaker
p1193
I0
sVfrom
p1194
F10.83
sVfinal
p1195
I00
sa(dp1196
Vto
p1197
F11.72
sVconfidence
p1198
F0.25
sVspeaker
p1199
I0
sVfrom
p1200
F11.52
sVfinal
p1201
I00
sa(dp1202
Vto
p1203
F12.17
sVconfidence
p1204
F0.577
sVspeaker
p1205
I0
sVfrom
p1206
F11.87
sVfinal
p1207
I00
sa(dp1208
Vto
p1209
F12.28
sVconfidence
p1210
F0.577
sVspeaker
p1211
I0
sVfrom
p1212
F12.17
sVfinal
p1213
I00
sa(dp1214
Vto
p1215
F13.2
sVconfidence
p1216
F0.577
sVspeaker
p1217
I0
sVfrom
p1218
F12.28
sVfinal
p1219
I00
sa(dp1220
Vto
p1221
F13.46
sVconfidence
p1222
F0.571
sVspeaker
p1223
I0
sVfrom
p1224
F13.23
sVfinal
p1225
I00
sa(dp1226
Vto
p1227
F13.82
sVconfidence
p1228
F0.571
sVspeaker
p1229
I0
sVfrom
p1230
F13.46
sVfinal
p1231
I00
sa(dp1232
Vto
p1233
F14.17
sVconfidence
p1234
F0.571
sVspeaker
p1235
I0
sVfrom
p1236
F13.82
sVfinal
p1237
I00
sa(dp1238
Vto
p1239
F14.37
sVconfidence
p1240
F0.571
sVspeaker
p1241
I0
sVfrom
p1242
F14.17
sVfinal
p1243
I00
sa(dp1244
Vto
p1245
F14.62
sVconfidence
p1246
F0.571
sVspeaker
p1247
I0
sVfrom
p1248
F14.37
sVfinal
p1249
I00
sa(dp1250
Vto
p1251
F14.72
sVconfidence
p1252
F0.571
sVspeaker
p1253
I0
sVfrom
p1254
F14.62
sVfinal
p1255
I00
sa(dp1256
Vto
p1257
F15.16
sVconfidence
p1258
F0.571
sVspeaker
p1259
I0
sVfrom
p1260
F14.72
sVfinal
p1261
I00
sa(dp1262
Vto
p1263
F15.64
sVconfidence
p1264
F0.422
sVspeaker
p1265
I0
sVfrom
p1266
F15.44
sVfinal
p1267
I00
sa(dp1268
Vto
p1269
F15.83
sVconfidence
p1270
F0.422
sVspeaker
p1271
I0
sVfrom
p1272
F15.64
sVfinal
p1273
I00
sa(dp1274
Vto
p1275
F16.34
sVconfidence
p1276
F0.422
sVspeaker
p1277
I0
sVfrom
p1278
F15.83
sVfinal
p1279
I00
sa(dp1280
Vto
p1281
F17.12
sVconfidence
p1282
F0.422
sVspeaker
p1283
I0
sVfrom
p1284
F16.34
sVfinal
p1285
I00
sa(dp1286
Vto
p1287
F17.65
sVconfidence
p1288
F0.313
sVspeaker
p1289
I0
sVfrom
p1290
F17.35
sVfinal
p1291
I00
sa(dp1292
Vto
p1293
F17.77
sVconfidence
p1294
F0.313
sVspeaker
p1295
I0
sVfrom
p1296
F17.65
sVfinal
p1297
I00
sa(dp1298
Vto
p1299
F17.91
sVconfidence
p1300
F0.313
sVspeaker
p1301
I0
sVfrom
p1302
F17.77
sVfinal
p1303
I00
sa(dp1304
Vto
p1305
F18.41
sVconfidence
p1306
F0.313
sVspeaker
p1307
I0
sVfrom
p1308
F17.91
sVfinal
p1309
I00
sa(dp1310
Vto
p1311
F18.57
sVconfidence
p1312
F0.313
sVspeaker
p1313
I0
sVfrom
p1314
F18.41
sVfinal
p1315
I00
sa(dp1316
Vto
p1317
F18.66
sVconfidence
p1318
F0.313
sVspeaker
p1319
I0
sVfrom
p1320
F18.57
sVfinal
p1321
I00
sa(dp1322
Vto
p1323
F18.95
sVconfidence
p1324
F0.313
sVspeaker
p1325
I0
sVfrom
p1326
F18.66
sVfinal
p1327
I00
sa(dp1328
Vto
p1329
F19.99
sVconfidence
p1330
F0.333
sVspeaker
p1331
I0
sVfrom
p1332
F19.33
sVfinal
p1333
I00
sa(dp1334
Vto
p1335
F20.28
sVconfidence
p1336
F0.333
sVspeaker
p1337
I0
sVfrom
p1338
F19.99
sVfinal
p1339
I00
sa(dp1340
Vto
p1341
F20.6
sVconfidence
p1342
F0.521
sVspeaker
p1343
I0
sVfrom
p1344
F20.31
sVfinal
p1345
I00
sa(dp1346
Vto
p1347
F20.74
sVconfidence
p1348
F0.521
sVspeaker
p1349
I0
sVfrom
p1350
F20.6
sVfinal
p1351
I00
sa(dp1352
Vto
p1353
F21.07
sVconfidence
p1354
F0.521
sVspeaker
p1355
I0
sVfrom
p1356
F20.74
sVfinal
p1357
I00
sa(dp1358
Vto
p1359
F21.36
sVconfidence
p1360
F0.521
sVspeaker
p1361
I0
sVfrom
p1362
F21.07
sVfinal
p1363
I00
sa(dp1364
Vto
p1365
F21.55
sVconfidence
p1366
F0.521
sVspeaker
p1367
I0
sVfrom
p1368
F21.36
sVfinal
p1369
I00
sa(dp1370
Vto
p1371
F21.7
sVconfidence
p1372
F0.521
sVspeaker
p1373
I0
sVfrom
p1374
F21.55
sVfinal
p1375
I00
sa(dp1376
Vto
p1377
F22.08
sVconfidence
p1378
F0.521
sVspeaker
p1379
I0
sVfrom
p1380
F21.7
sVfinal
p1381
I00
sa(dp1382
Vto
p1383
F22.42
sVconfidence
p1384
F0.521
sVspeaker
p1385
I0
sVfrom
p1386
F22.08
sVfinal
p1387
I00
sa(dp1388
Vto
p1389
F23.11
sVconfidence
p1390
F0.632
sVspeaker
p1391
I0
sVfrom
p1392
F22.9
sVfinal
p1393
I00
sa(dp1394
Vto
p1395
F23.49
sVconfidence
p1396
F0.463
sVspeaker
p1397
I0
sVfrom
p1398
F23.27
sVfinal
p1399
I00
sa(dp1400
Vto
p1401
F24.03
sVconfidence
p1402
F0.463
sVspeaker
p1403
I0
sVfrom
p1404
F23.49
sVfinal
p1405
I00
sa(dp1406
Vto
p1407
F24.24
sVconfidence
p1408
F0.463
sVspeaker
p1409
I0
sVfrom
p1410
F24.03
sVfinal
p1411
I00
sa(dp1412
Vto
p1413
F24.31
sVconfidence
p1414
F0.463
sVspeaker
p1415
I0
sVfrom
p1416
F24.24
sVfinal
p1417
I00
sa(dp1418
Vto
p1419
F24.52
sVconfidence
p1420
F0.463
sVspeaker
p1421
I0
sVfrom
p1422
F24.31
sVfinal
p1423
I00
sa(dp1424
Vto
p1425
F24.63
sVconfidence
p1426
F0.463
sVspeaker
p1427
I0
sVfrom
p1428
F24.52
sVfinal
p1429
I00
sa(dp1430
Vto
p1431
F24.78
sVconfidence
p1432
F0.463
sVspeaker
p1433
I0
sVfrom
p1434
F24.63
sVfinal
p1435
I00
sa(dp1436
Vto
p1437
F24.92
sVconfidence
p1438
F0.463
sVspeaker
p1439
I0
sVfrom
p1440
F24.78
sVfinal
p1441
I00
sa(dp1442
Vto
p1443
F25.01
sVconfidence
p1444
F0.463
sVspeaker
p1445
I0
sVfrom
p1446
F24.92
sVfinal
p1447
I00
sa(dp1448
Vto
p1449
F25.09
sVconfidence
p1450
F0.463
sVspeaker
p1451
I0
sVfrom
p1452
F25.01
sVfinal
p1453
I00
sa(dp1454
Vto
p1455
F25.28
sVconfidence
p1456
F0.463
sVspeaker
p1457
I0
sVfrom
p1458
F25.09
sVfinal
p1459
I00
sa(dp1460
Vto
p1461
F25.56
sVconfidence
p1462
F0.463
sVspeaker
p1463
I0
sVfrom
p1464
F25.28
sVfinal
p1465
I00
sa(dp1466
Vto
p1467
F25.7
sVconfidence
p1468
F0.463
sVspeaker
p1469
I0
sVfrom
p1470
F25.56
sVfinal
p1471
I00
sa(dp1472
Vto
p1473
F25.78
sVconfidence
p1474
F0.463
sVspeaker
p1475
I0
sVfrom
p1476
F25.7
sVfinal
p1477
I00
sa(dp1478
Vto
p1479
F26.32
sVconfidence
p1480
F0.463
sVspeaker
p1481
I0
sVfrom
p1482
F25.78
sVfinal
p1483
I00
sa(dp1484
Vto
p1485
F27.11
sVconfidence
p1486
F0.457
sVspeaker
p1487
I0
sVfrom
p1488
F26.89
sVfinal
p1489
I00
sa(dp1490
Vto
p1491
F27.29
sVconfidence
p1492
F0.457
sVspeaker
p1493
I0
sVfrom
p1494
F27.11
sVfinal
p1495
I00
sa(dp1496
Vto
p1497
F27.61
sVconfidence
p1498
F0.457
sVspeaker
p1499
I0
sVfrom
p1500
F27.29
sVfinal
p1501
I00
sa(dp1502
Vto
p1503
F27.92
sVconfidence
p1504
F0.457
sVspeaker
p1505
I0
sVfrom
p1506
F27.61
sVfinal
p1507
I00
sa(dp1508
Vto
p1509
F28.02
sVconfidence
p1510
F0.457
sVspeaker
p1511
I0
sVfrom
p1512
F27.92
sVfinal
p1513
I00
sa(dp1514
Vto
p1515
F28.3
sVconfidence
p1516
F0.457
sVspeaker
p1517
I0
sVfrom
p1518
F28.02
sVfinal
p1519
I00
sa(dp1520
Vto
p1521
F28.57
sVconfidence
p1522
F0.457
sVspeaker
p1523
I0
sVfrom
p1524
F28.3
sVfinal
p1525
I00
sa(dp1526
Vto
p1527
F28.78
sVconfidence
p1528
F0.457
sVspeaker
p1529
I0
sVfrom
p1530
F28.57
sVfinal
p1531
I00
sa(dp1532
Vto
p1533
F29.39
sVconfidence
p1534
F0.408
sVspeaker
p1535
I0
sVfrom
p1536
F28.81
sVfinal
p1537
I00
sa(dp1538
Vto
p1539
F30.14
sVconfidence
p1540
F0.622
sVspeaker
p1541
I0
sVfrom
p1542
F29.81
sVfinal
p1543
I00
sa(dp1544
Vto
p1545
F30.63
sVconfidence
p1546
F0.508
sVspeaker
p1547
I0
sVfrom
p1548
F30.28
sVfinal
p1549
I00
sa(dp1550
Vto
p1551
F30.76
sVconfidence
p1552
F0.415
sVspeaker
p1553
I0
sVfrom
p1554
F30.67
sVfinal
p1555
I00
sa(dp1556
Vto
p1557
F31.08
sVconfidence
p1558
F0.415
sVspeaker
p1559
I0
sVfrom
p1560
F30.76
sVfinal
p1561
I00
sa(dp1562
Vto
p1563
F31.21
sVconfidence
p1564
F0.415
sVspeaker
p1565
I0
sVfrom
p1566
F31.08
sVfinal
p1567
I00
sa(dp1568
Vto
p1569
F31.28
sVconfidence
p1570
F0.415
sVspeaker
p1571
I0
sVfrom
p1572
F31.21
sVfinal
p1573
I00
sa(dp1574
Vto
p1575
F31.52
sVconfidence
p1576
F0.415
sVspeaker
p1577
I0
sVfrom
p1578
F31.28
sVfinal
p1579
I00
sa(dp1580
Vto
p1581
F31.7
sVconfidence
p1582
F0.415
sVspeaker
p1583
I0
sVfrom
p1584
F31.52
sVfinal
p1585
I00
sa(dp1586
Vto
p1587
F31.82
sVconfidence
p1588
F0.415
sVspeaker
p1589
I0
sVfrom
p1590
F31.7
sVfinal
p1591
I00
sa(dp1592
Vto
p1593
F32.14
sVconfidence
p1594
F0.415
sVspeaker
p1595
I0
sVfrom
p1596
F31.82
sVfinal
p1597
I00
sa(dp1598
Vto
p1599
F32.35
sVconfidence
p1600
F0.415
sVspeaker
p1601
I0
sVfrom
p1602
F32.14
sVfinal
p1603
I00
sa(dp1604
Vto
p1605
F32.6
sVconfidence
p1606
F0.415
sVspeaker
p1607
I0
sVfrom
p1608
F32.35
sVfinal
p1609
I00
sa(dp1610
Vto
p1611
F32.77
sVconfidence
p1612
F0.415
sVspeaker
p1613
I0
sVfrom
p1614
F32.6
sVfinal
p1615
I00
sa(dp1616
Vto
p1617
F32.95
sVconfidence
p1618
F0.415
sVspeaker
p1619
I0
sVfrom
p1620
F32.77
sVfinal
p1621
I00
sa(dp1622
Vto
p1623
F33.12
sVconfidence
p1624
F0.415
sVspeaker
p1625
I0
sVfrom
p1626
F32.95
sVfinal
p1627
I00
sa(dp1628
Vto
p1629
F33.84
sVconfidence
p1630
F0.415
sVspeaker
p1631
I0
sVfrom
p1632
F33.12
sVfinal
p1633
I00
sa(dp1634
Vto
p1635
F33.94
sVconfidence
p1636
F0.415
sVspeaker
p1637
I0
sVfrom
p1638
F33.84
sVfinal
p1639
I00
sa(dp1640
Vto
p1641
F34.26
sVconfidence
p1642
F0.415
sVspeaker
p1643
I0
sVfrom
p1644
F33.94
sVfinal
p1645
I00
sa(dp1646
Vto
p1647
F34.33
sVconfidence
p1648
F0.415
sVspeaker
p1649
I0
sVfrom
p1650
F34.26
sVfinal
p1651
I00
sa(dp1652
Vto
p1653
F34.4
sVconfidence
p1654
F0.415
sVspeaker
p1655
I0
sVfrom
p1656
F34.33
sVfinal
p1657
I00
sa(dp1658
Vto
p1659
F34.82
sVconfidence
p1660
F0.415
sVspeaker
p1661
I0
sVfrom
p1662
F34.4
sVfinal
p1663
I00
sa(dp1664
Vto
p1665
F35.3
sVconfidence
p1666
F0.596
sVspeaker
p1667
I0
sVfrom
p1668
F35.15
sVfinal
p1669
I00
sa(dp1670
Vto
p1671
F35.43
sVconfidence
p1672
F0.596
sVspeaker
p1673
I0
sVfrom
p1674
F35.3
sVfinal
p1675
I00
sa(dp1676
Vto
p1677
F35.78
sVconfidence
p1678
F0.596
sVspeaker
p1679
I0
sVfrom
p1680
F35.43
sVfinal
p1681
I00
sa(dp1682
Vto
p1683
F36.13
sVconfidence
p1684
F0.596
sVspeaker
p1685
I0
sVfrom
p1686
F35.78
sVfinal
p1687
I00
sa(dp1688
Vto
p1689
F36.29
sVconfidence
p1690
F0.596
sVspeaker
p1691
I0
sVfrom
p1692
F36.13
sVfinal
p1693
I00
sa(dp1694
Vto
p1695
F36.56
sVconfidence
p1696
F0.596
sVspeaker
p1697
I0
sVfrom
p1698
F36.29
sVfinal
p1699
I00
sa(dp1700
Vto
p1701
F37.34
sVconfidence
p1702
F0.552
sVspeaker
p1703
I0
sVfrom
p1704
F36.91
sVfinal
p1705
I00
sa(dp1706
Vto
p1707
F37.65
sVconfidence
p1708
F0.552
sVspeaker
p1709
I0
sVfrom
p1710
F37.34
sVfinal
p1711
I00
sa(dp1712
Vto
p1713
F38.11
sVconfidence
p1714
F0.556
sVspeaker
p1715
I0
sVfrom
p1716
F37.68
sVfinal
p1717
I00
sa(dp1718
Vto
p1719
F38.3
sVconfidence
p1720
F0.556
sVspeaker
p1721
I0
sVfrom
p1722
F38.11
sVfinal
p1723
I00
sa(dp1724
Vto
p1725
F38.46
sVconfidence
p1726
F0.556
sVspeaker
p1727
I0
sVfrom
p1728
F38.3
sVfinal
p1729
I00
sa(dp1730
Vto
p1731
F38.64
sVconfidence
p1732
F0.556
sVspeaker
p1733
I0
sVfrom
p1734
F38.46
sVfinal
p1735
I00
sa(dp1736
Vto
p1737
F39.24
sVconfidence
p1738
F0.488
sVspeaker
p1739
I0
sVfrom
p1740
F38.9
sVfinal
p1741
I00
sa(dp1742
Vto
p1743
F39.72
sVconfidence
p1744
F0.488
sVspeaker
p1745
I0
sVfrom
p1746
F39.24
sVfinal
p1747
I00
sa(dp1748
Vto
p1749
F40.34
sVconfidence
p1750
F0.488
sVspeaker
p1751
I0
sVfrom
p1752
F39.72
sVfinal
p1753
I00
sa(dp1754
Vto
p1755
F40.57
sVconfidence
p1756
F0.488
sVspeaker
p1757
I0
sVfrom
p1758
F40.34
sVfinal
p1759
I00
sa(dp1760
Vto
p1761
F40.76
sVconfidence
p1762
F0.488
sVspeaker
p1763
I0
sVfrom
p1764
F40.57
sVfinal
p1765
I00
sa(dp1766
Vto
p1767
F41.73
sVconfidence
p1768
F0.53
sVspeaker
p1769
I0
sVfrom
p1770
F41.02
sVfinal
p1771
I00
sa(dp1772
Vto
p1773
F42.16
sVconfidence
p1774
F0.524
sVspeaker
p1775
I0
sVfrom
p1776
F41.76
sVfinal
p1777
I00
sa(dp1778
Vto
p1779
F42.91
sVconfidence
p1780
F0.39
sVspeaker
p1781
I0
sVfrom
p1782
F42.4
sVfinal
p1783
I00
sa(dp1784
Vto
p1785
F43.05
sVconfidence
p1786
F0.39
sVspeaker
p1787
I0
sVfrom
p1788
F42.91
sVfinal
p1789
I00
sa(dp1790
Vto
p1791
F43.52
sVconfidence
p1792
F0.39
sVspeaker
p1793
I0
sVfrom
p1794
F43.05
sVfinal
p1795
I00
sa(dp1796
Vto
p1797
F43.89
sVconfidence
p1798
F0.39
sVspeaker
p1799
I0
sVfrom
p1800
F43.52
sVfinal
p1801
I00
sa(dp1802
Vto
p1803
F44.28
sVconfidence
p1804
F0.39
sVspeaker
p1805
I0
sVfrom
p1806
F43.89
sVfinal
p1807
I00
sa(dp1808
Vto
p1809
F44.69
sVconfidence
p1810
F0.56
sVspeaker
p1811
I0
sVfrom
p1812
F44.55
sVfinal
p1813
I00
sa(dp1814
Vto
p1815
F44.93
sVconfidence
p1816
F0.56
sVspeaker
p1817
I0
sVfrom
p1818
F44.69
sVfinal
p1819
I00
sa(dp1820
Vto
p1821
F45.06
sVconfidence
p1822
F0.56
sVspeaker
p1823
I0
sVfrom
p1824
F44.93
sVfinal
p1825
I00
sa(dp1826
Vto
p1827
F45.23
sVconfidence
p1828
F0.56
sVspeaker
p1829
I0
sVfrom
p1830
F45.06
sVfinal
p1831
I00
sa(dp1832
Vto
p1833
F45.56
sVconfidence
p1834
F0.56
sVspeaker
p1835
I0
sVfrom
p1836
F45.23
sVfinal
p1837
I00
sa(dp1838
Vto
p1839
F45.66
sVconfidence
p1840
F0.56
sVspeaker
p1841
I0
sVfrom
p1842
F45.56
sVfinal
p1843
I00
sa(dp1844
Vto
p1845
F45.79
sVconfidence
p1846
F0.56
sVspeaker
p1847
I0
sVfrom
p1848
F45.66
sVfinal
p1849
I00
sa(dp1850
Vto
p1851
F45.85
sVconfidence
p1852
F0.56
sVspeaker
p1853
I0
sVfrom
p1854
F45.79
sVfinal
p1855
I00
sa(dp1856
Vto
p1857
F46.02
sVconfidence
p1858
F0.56
sVspeaker
p1859
I0
sVfrom
p1860
F45.85
sVfinal
p1861
I00
sa(dp1862
Vto
p1863
F46.92
sVconfidence
p1864
F0.56
sVspeaker
p1865
I0
sVfrom
p1866
F46.02
sVfinal
p1867
I00
sa(dp1868
Vto
p1869
F47.57
sVconfidence
p1870
F0.525
sVspeaker
p1871
I0
sVfrom
p1872
F47.21
sVfinal
p1873
I00
sa(dp1874
Vto
p1875
F47.76
sVconfidence
p1876
F0.564
sVspeaker
p1877
I0
sVfrom
p1878
F47.61
sVfinal
p1879
I00
sa(dp1880
Vto
p1881
F48.09
sVconfidence
p1882
F0.564
sVspeaker
p1883
I0
sVfrom
p1884
F47.76
sVfinal
p1885
I00
sa(dp1886
Vto
p1887
F48.31
sVconfidence
p1888
F0.564
sVspeaker
p1889
I0
sVfrom
p1890
F48.09
sVfinal
p1891
I00
sa(dp1892
Vto
p1893
F48.46
sVconfidence
p1894
F0.564
sVspeaker
p1895
I0
sVfrom
p1896
F48.31
sVfinal
p1897
I00
sa(dp1898
Vto
p1899
F49.05
sVconfidence
p1900
F0.564
sVspeaker
p1901
I0
sVfrom
p1902
F48.46
sVfinal
p1903
I00
sa(dp1904
Vto
p1905
F49.62
sVconfidence
p1906
F0.531
sVspeaker
p1907
I0
sVfrom
p1908
F49.38
sVfinal
p1909
I00
sa(dp1910
Vto
p1911
F49.81
sVconfidence
p1912
F0.432
sVspeaker
p1913
I0
sVfrom
p1914
F49.65
sVfinal
p1915
I00
sa(dp1916
Vto
p1917
F50.26
sVconfidence
p1918
F0.432
sVspeaker
p1919
I0
sVfrom
p1920
F49.81
sVfinal
p1921
I00
sa(dp1922
Vto
p1923
F50.39
sVconfidence
p1924
F0.432
sVspeaker
p1925
I0
sVfrom
p1926
F50.26
sVfinal
p1927
I00
sa(dp1928
Vto
p1929
F50.5
sVconfidence
p1930
F0.432
sVspeaker
p1931
I0
sVfrom
p1932
F50.39
sVfinal
p1933
I00
sa(dp1934
Vto
p1935
F50.83
sVconfidence
p1936
F0.432
sVspeaker
p1937
I0
sVfrom
p1938
F50.5
sVfinal
p1939
I00
sa(dp1940
Vto
p1941
F50.98
sVconfidence
p1942
F0.432
sVspeaker
p1943
I0
sVfrom
p1944
F50.83
sVfinal
p1945
I00
sa(dp1946
Vto
p1947
F51.13
sVconfidence
p1948
F0.432
sVspeaker
p1949
I0
sVfrom
p1950
F50.98
sVfinal
p1951
I00
sa(dp1952
Vto
p1953
F51.39
sVconfidence
p1954
F0.432
sVspeaker
p1955
I0
sVfrom
p1956
F51.13
sVfinal
p1957
I00
sa(dp1958
Vto
p1959
F52.06
sVconfidence
p1960
F0.432
sVspeaker
p1961
I0
sVfrom
p1962
F51.39
sVfinal
p1963
I00
sa(dp1964
Vto
p1965
F52.6
sVconfidence
p1966
F0.432
sVspeaker
p1967
I0
sVfrom
p1968
F52.49
sVfinal
p1969
I00
sa(dp1970
Vto
p1971
F52.8
sVconfidence
p1972
F0.432
sVspeaker
p1973
I0
sVfrom
p1974
F52.6
sVfinal
p1975
I00
sa(dp1976
Vto
p1977
F52.99
sVconfidence
p1978
F0.432
sVspeaker
p1979
I0
sVfrom
p1980
F52.8
sVfinal
p1981
I00
sa(dp1982
Vto
p1983
F53.11
sVconfidence
p1984
F0.432
sVspeaker
p1985
I0
sVfrom
p1986
F52.99
sVfinal
p1987
I00
sa(dp1988
Vto
p1989
F53.29
sVconfidence
p1990
F0.432
sVspeaker
p1991
I0
sVfrom
p1992
F53.11
sVfinal
p1993
I00
sa(dp1994
Vto
p1995
F53.39
sVconfidence
p1996
F0.432
sVspeaker
p1997
I0
sVfrom
p1998
F53.29
sVfinal
p1999
I00
sa(dp2000
Vto
p2001
F53.61
sVconfidence
p2002
F0.432
sVspeaker
p2003
I0
sVfrom
p2004
F53.39
sVfinal
p2005
I00
sa(dp2006
Vto
p2007
F53.99
sVconfidence
p2008
F0.432
sVspeaker
p2009
I0
sVfrom
p2010
F53.61
sVfinal
p2011
I00
sa(dp2012
Vto
p2013
F54.28
sVconfidence
p2014
F0.432
sVspeaker
p2015
I0
sVfrom
p2016
F53.99
sVfinal
p2017
I00
sa(dp2018
Vto
p2019
F54.81
sVconfidence
p2020
F0.432
sVspeaker
p2021
I0
sVfrom
p2022
F54.28
sVfinal
p2023
I00
sa(dp2024
Vto
p2025
F55.07
sVconfidence
p2026
F0.432
sVspeaker
p2027
I0
sVfrom
p2028
F54.81
sVfinal
p2029
I00
sa(dp2030
Vto
p2031
F55.53
sVconfidence
p2032
F0.356
sVspeaker
p2033
I0
sVfrom
p2034
F55.37
sVfinal
p2035
I00
sa(dp2036
Vto
p2037
F55.61
sVconfidence
p2038
F0.356
sVspeaker
p2039
I0
sVfrom
p2040
F55.53
sVfinal
p2041
I00
sa(dp2042
Vto
p2043
F55.85
sVconfidence
p2044
F0.356
sVspeaker
p2045
I0
sVfrom
p2046
F55.61
sVfinal
p2047
I00
sa(dp2048
Vto
p2049
F56.33
sVconfidence
p2050
F0.356
sVspeaker
p2051
I0
sVfrom
p2052
F55.85
sVfinal
p2053
I00
sa(dp2054
Vto
p2055
F56.55
sVconfidence
p2056
F0.356
sVspeaker
p2057
I0
sVfrom
p2058
F56.33
sVfinal
p2059
I00
sa(dp2060
Vto
p2061
F56.71
sVconfidence
p2062
F0.356
sVspeaker
p2063
I0
sVfrom
p2064
F56.55
sVfinal
p2065
I00
sa(dp2066
Vto
p2067
F57.08
sVconfidence
p2068
F0.356
sVspeaker
p2069
I0
sVfrom
p2070
F56.71
sVfinal
p2071
I00
sa(dp2072
Vto
p2073
F57.33
sVconfidence
p2074
F0.356
sVspeaker
p2075
I0
sVfrom
p2076
F57.08
sVfinal
p2077
I00
sa(dp2078
Vto
p2079
F57.49
sVconfidence
p2080
F0.356
sVspeaker
p2081
I0
sVfrom
p2082
F57.33
sVfinal
p2083
I00
sa(dp2084
Vto
p2085
F57.68
sVconfidence
p2086
F0.356
sVspeaker
p2087
I0
sVfrom
p2088
F57.49
sVfinal
p2089
I00
sa(dp2090
Vto
p2091
F57.94
sVconfidence
p2092
F0.356
sVspeaker
p2093
I0
sVfrom
p2094
F57.68
sVfinal
p2095
I00
sa(dp2096
Vto
p2097
F58.32
sVconfidence
p2098
F0.356
sVspeaker
p2099
I0
sVfrom
p2100
F57.94
sVfinal
p2101
I00
sa(dp2102
Vto
p2103
F59.47
sVconfidence
p2104
F0.126
sVspeaker
p2105
I0
sVfrom
p2106
F59.44
sVfinal
p2107
I00
sa(dp2108
Vto
p2109
F59.72
sVconfidence
p2110
F0.639
sVspeaker
p2111
I0
sVfrom
p2112
F59.5
sVfinal
p2113
I00
sa(dp2114
Vto
p2115
F59.86
sVconfidence
p2116
F0.639
sVspeaker
p2117
I0
sVfrom
p2118
F59.72
sVfinal
p2119
I00
sa(dp2120
Vto
p2121
F59.97
sVconfidence
p2122
F0.639
sVspeaker
p2123
I0
sVfrom
p2124
F59.86
sVfinal
p2125
I00
sa(dp2126
Vto
p2127
F60.3
sVconfidence
p2128
F0.639
sVspeaker
p2129
I0
sVfrom
p2130
F59.97
sVfinal
p2131
I00
sa(dp2132
Vto
p2133
F61.12
sVconfidence
p2134
F0.522
sVspeaker
p2135
I0
sVfrom
p2136
F60.68
sVfinal
p2137
I00
sa(dp2138
Vto
p2139
F61.46
sVconfidence
p2140
F0.522
sVspeaker
p2141
I0
sVfrom
p2142
F61.12
sVfinal
p2143
I00
sa(dp2144
Vto
p2145
F61.65
sVconfidence
p2146
F0.647
sVspeaker
p2147
I0
sVfrom
p2148
F61.49
sVfinal
p2149
I00
sa(dp2150
Vto
p2151
F61.82
sVconfidence
p2152
F0.647
sVspeaker
p2153
I0
sVfrom
p2154
F61.65
sVfinal
p2155
I00
sa(dp2156
Vto
p2157
F61.91
sVconfidence
p2158
F0.647
sVspeaker
p2159
I0
sVfrom
p2160
F61.82
sVfinal
p2161
I00
sa(dp2162
Vto
p2163
F62.6
sVconfidence
p2164
F0.535
sVspeaker
p2165
I0
sVfrom
p2166
F62.08
sVfinal
p2167
I00
sa(dp2168
Vto
p2169
F63.12
sVconfidence
p2170
F0.535
sVspeaker
p2171
I0
sVfrom
p2172
F62.6
sVfinal
p2173
I00
sa(dp2174
Vto
p2175
F63.19
sVconfidence
p2176
F0.535
sVspeaker
p2177
I0
sVfrom
p2178
F63.12
sVfinal
p2179
I00
sa(dp2180
Vto
p2181
F63.28
sVconfidence
p2182
F0.535
sVspeaker
p2183
I0
sVfrom
p2184
F63.19
sVfinal
p2185
I00
sa(dp2186
Vto
p2187
F63.55
sVconfidence
p2188
F0.535
sVspeaker
p2189
I0
sVfrom
p2190
F63.28
sVfinal
p2191
I00
sa(dp2192
Vto
p2193
F63.73
sVconfidence
p2194
F0.354
sVspeaker
p2195
I0
sVfrom
p2196
F63.58
sVfinal
p2197
I00
sa(dp2198
Vto
p2199
F63.91
sVconfidence
p2200
F0.354
sVspeaker
p2201
I0
sVfrom
p2202
F63.73
sVfinal
p2203
I00
sa(dp2204
Vto
p2205
F63.97
sVconfidence
p2206
F0.354
sVspeaker
p2207
I0
sVfrom
p2208
F63.91
sVfinal
p2209
I00
sa(dp2210
Vto
p2211
F64.18
sVconfidence
p2212
F0.354
sVspeaker
p2213
I0
sVfrom
p2214
F63.97
sVfinal
p2215
I00
sa(dp2216
Vto
p2217
F64.55
sVconfidence
p2218
F0.354
sVspeaker
p2219
I0
sVfrom
p2220
F64.18
sVfinal
p2221
I00
sa(dp2222
Vto
p2223
F64.67
sVconfidence
p2224
F0.354
sVspeaker
p2225
I0
sVfrom
p2226
F64.55
sVfinal
p2227
I00
sa(dp2228
Vto
p2229
F64.83
sVconfidence
p2230
F0.354
sVspeaker
p2231
I0
sVfrom
p2232
F64.67
sVfinal
p2233
I00
sa(dp2234
Vto
p2235
F65.08
sVconfidence
p2236
F0.354
sVspeaker
p2237
I0
sVfrom
p2238
F64.83
sVfinal
p2239
I00
sa(dp2240
Vto
p2241
F65.15
sVconfidence
p2242
F0.354
sVspeaker
p2243
I0
sVfrom
p2244
F65.08
sVfinal
p2245
I00
sa(dp2246
Vto
p2247
F65.44
sVconfidence
p2248
F0.354
sVspeaker
p2249
I0
sVfrom
p2250
F65.15
sVfinal
p2251
I00
sa(dp2252
Vto
p2253
F65.86
sVconfidence
p2254
F0.354
sVspeaker
p2255
I0
sVfrom
p2256
F65.44
sVfinal
p2257
I00
sa(dp2258
Vto
p2259
F66.19
sVconfidence
p2260
F0.354
sVspeaker
p2261
I0
sVfrom
p2262
F65.86
sVfinal
p2263
I00
sa(dp2264
Vto
p2265
F66.42
sVconfidence
p2266
F0.354
sVspeaker
p2267
I0
sVfrom
p2268
F66.19
sVfinal
p2269
I00
sa(dp2270
Vto
p2271
F66.67
sVconfidence
p2272
F0.354
sVspeaker
p2273
I0
sVfrom
p2274
F66.42
sVfinal
p2275
I00
sa(dp2276
Vto
p2277
F67.23
sVconfidence
p2278
F0.314
sVspeaker
p2279
I0
sVfrom
p2280
F67.05
sVfinal
p2281
I00
sa(dp2282
Vto
p2283
F67.34
sVconfidence
p2284
F0.314
sVspeaker
p2285
I0
sVfrom
p2286
F67.23
sVfinal
p2287
I00
sa(dp2288
Vto
p2289
F67.76
sVconfidence
p2290
F0.314
sVspeaker
p2291
I0
sVfrom
p2292
F67.34
sVfinal
p2293
I00
sa(dp2294
Vto
p2295
F67.86
sVconfidence
p2296
F0.314
sVspeaker
p2297
I0
sVfrom
p2298
F67.76
sVfinal
p2299
I00
sa(dp2300
Vto
p2301
F67.92
sVconfidence
p2302
F0.314
sVspeaker
p2303
I0
sVfrom
p2304
F67.86
sVfinal
p2305
I00
sa(dp2306
Vto
p2307
F68.21
sVconfidence
p2308
F0.314
sVspeaker
p2309
I0
sVfrom
p2310
F67.92
sVfinal
p2311
I00
sa(dp2312
Vto
p2313
F68.29
sVconfidence
p2314
F0.314
sVspeaker
p2315
I0
sVfrom
p2316
F68.21
sVfinal
p2317
I00
sa(dp2318
Vto
p2319
F68.36
sVconfidence
p2320
F0.314
sVspeaker
p2321
I0
sVfrom
p2322
F68.29
sVfinal
p2323
I00
sa(dp2324
Vto
p2325
F68.66
sVconfidence
p2326
F0.314
sVspeaker
p2327
I0
sVfrom
p2328
F68.36
sVfinal
p2329
I00
sa(dp2330
Vto
p2331
F68.75
sVconfidence
p2332
F0.314
sVspeaker
p2333
I0
sVfrom
p2334
F68.66
sVfinal
p2335
I00
sa(dp2336
Vto
p2337
F69.09
sVconfidence
p2338
F0.314
sVspeaker
p2339
I0
sVfrom
p2340
F68.75
sVfinal
p2341
I00
sa(dp2342
Vto
p2343
F69.93
sVconfidence
p2344
F0.424
sVspeaker
p2345
I0
sVfrom
p2346
F69.46
sVfinal
p2347
I00
sa(dp2348
Vto
p2349
F70.54
sVconfidence
p2350
F0.534
sVspeaker
p2351
I0
sVfrom
p2352
F70.28
sVfinal
p2353
I00
sa(dp2354
Vto
p2355
F70.67
sVconfidence
p2356
F0.534
sVspeaker
p2357
I0
sVfrom
p2358
F70.54
sVfinal
p2359
I00
sa(dp2360
Vto
p2361
F71.04
sVconfidence
p2362
F0.568
sVspeaker
p2363
I0
sVfrom
p2364
F70.7
sVfinal
p2365
I00
sa(dp2366
Vto
p2367
F71.22
sVconfidence
p2368
F0.568
sVspeaker
p2369
I0
sVfrom
p2370
F71.04
sVfinal
p2371
I00
sa(dp2372
Vto
p2373
F71.37
sVconfidence
p2374
F0.568
sVspeaker
p2375
I0
sVfrom
p2376
F71.22
sVfinal
p2377
I00
sa(dp2378
Vto
p2379
F71.49
sVconfidence
p2380
F0.568
sVspeaker
p2381
I0
sVfrom
p2382
F71.37
sVfinal
p2383
I00
sa(dp2384
Vto
p2385
F71.78
sVconfidence
p2386
F0.568
sVspeaker
p2387
I0
sVfrom
p2388
F71.49
sVfinal
p2389
I00
sa(dp2390
Vto
p2391
F72.26
sVconfidence
p2392
F0.568
sVspeaker
p2393
I0
sVfrom
p2394
F71.78
sVfinal
p2395
I00
sa(dp2396
Vto
p2397
F72.32
sVconfidence
p2398
F0.568
sVspeaker
p2399
I0
sVfrom
p2400
F72.26
sVfinal
p2401
I00
sa(dp2402
Vto
p2403
F72.58
sVconfidence
p2404
F0.568
sVspeaker
p2405
I0
sVfrom
p2406
F72.32
sVfinal
p2407
I00
sa(dp2408
Vto
p2409
F72.84
sVconfidence
p2410
F0.568
sVspeaker
p2411
I0
sVfrom
p2412
F72.58
sVfinal
p2413
I00
sa(dp2414
Vto
p2415
F73.01
sVconfidence
p2416
F0.585
sVspeaker
p2417
I0
sVfrom
p2418
F72.87
sVfinal
p2419
I00
sa(dp2420
Vto
p2421
F73.15
sVconfidence
p2422
F0.585
sVspeaker
p2423
I0
sVfrom
p2424
F73.01
sVfinal
p2425
I00
sa(dp2426
Vto
p2427
F74.13
sVconfidence
p2428
F0.331
sVspeaker
p2429
I0
sVfrom
p2430
F73.77
sVfinal
p2431
I00
sa(dp2432
Vto
p2433
F76.2
sVconfidence
p2434
F0.273
sVspeaker
p2435
I0
sVfrom
p2436
F75.82
sVfinal
p2437
I00
sa(dp2438
Vto
p2439
F76.59
sVconfidence
p2440
F0.273
sVspeaker
p2441
I0
sVfrom
p2442
F76.2
sVfinal
p2443
I00
sa(dp2444
Vto
p2445
F76.73
sVconfidence
p2446
F0.297
sVspeaker
p2447
I0
sVfrom
p2448
F76.62
sVfinal
p2449
I00
sa(dp2450
Vto
p2451
F76.94
sVconfidence
p2452
F0.297
sVspeaker
p2453
I0
sVfrom
p2454
F76.73
sVfinal
p2455
I00
sa(dp2456
Vto
p2457
F77.23
sVconfidence
p2458
F0.297
sVspeaker
p2459
I0
sVfrom
p2460
F76.94
sVfinal
p2461
I00
sa(dp2462
Vto
p2463
F77.8
sVconfidence
p2464
F0.297
sVspeaker
p2465
I0
sVfrom
p2466
F77.43
sVfinal
p2467
I00
sa(dp2468
Vto
p2469
F77.88
sVconfidence
p2470
F0.297
sVspeaker
p2471
I0
sVfrom
p2472
F77.8
sVfinal
p2473
I00
sa(dp2474
Vto
p2475
F78.03
sVconfidence
p2476
F0.297
sVspeaker
p2477
I0
sVfrom
p2478
F77.88
sVfinal
p2479
I00
sa(dp2480
Vto
p2481
F78.08
sVconfidence
p2482
F0.297
sVspeaker
p2483
I0
sVfrom
p2484
F78.03
sVfinal
p2485
I00
sa(dp2486
Vto
p2487
F78.28
sVconfidence
p2488
F0.297
sVspeaker
p2489
I0
sVfrom
p2490
F78.08
sVfinal
p2491
I00
sa(dp2492
Vto
p2493
F78.83
sVconfidence
p2494
F0.297
sVspeaker
p2495
I0
sVfrom
p2496
F78.28
sVfinal
p2497
I00
sa(dp2498
Vto
p2499
F79.31
sVconfidence
p2500
F0.297
sVspeaker
p2501
I0
sVfrom
p2502
F78.83
sVfinal
p2503
I00
sa(dp2504
Vto
p2505
F79.55
sVconfidence
p2506
F0.297
sVspeaker
p2507
I0
sVfrom
p2508
F79.31
sVfinal
p2509
I00
sa(dp2510
Vto
p2511
F80.02
sVconfidence
p2512
F0.354
sVspeaker
p2513
I0
sVfrom
p2514
F79.81
sVfinal
p2515
I00
sa(dp2516
Vto
p2517
F80.09
sVconfidence
p2518
F0.354
sVspeaker
p2519
I0
sVfrom
p2520
F80.02
sVfinal
p2521
I00
sa(dp2522
Vto
p2523
F80.28
sVconfidence
p2524
F0.354
sVspeaker
p2525
I0
sVfrom
p2526
F80.09
sVfinal
p2527
I00
sa(dp2528
Vto
p2529
F80.62
sVconfidence
p2530
F0.354
sVspeaker
p2531
I0
sVfrom
p2532
F80.28
sVfinal
p2533
I00
sa(dp2534
Vto
p2535
F80.8
sVconfidence
p2536
F0.354
sVspeaker
p2537
I0
sVfrom
p2538
F80.62
sVfinal
p2539
I00
sa(dp2540
Vto
p2541
F81.0
sVconfidence
p2542
F0.354
sVspeaker
p2543
I0
sVfrom
p2544
F80.8
sVfinal
p2545
I00
sa(dp2546
Vto
p2547
F81.19
sVconfidence
p2548
F0.354
sVspeaker
p2549
I0
sVfrom
p2550
F81.0
sVfinal
p2551
I00
sa(dp2552
Vto
p2553
F81.61
sVconfidence
p2554
F0.22
sVspeaker
p2555
I0
sVfrom
p2556
F81.41
sVfinal
p2557
I00
sa(dp2558
Vto
p2559
F81.8
sVconfidence
p2560
F0.22
sVspeaker
p2561
I0
sVfrom
p2562
F81.61
sVfinal
p2563
I00
sa(dp2564
Vto
p2565
F81.96
sVconfidence
p2566
F0.22
sVspeaker
p2567
I0
sVfrom
p2568
F81.8
sVfinal
p2569
I00
sa(dp2570
Vto
p2571
F82.0
sVconfidence
p2572
F0.22
sVspeaker
p2573
I0
sVfrom
p2574
F81.96
sVfinal
p2575
I00
sa(dp2576
Vto
p2577
F82.17
sVconfidence
p2578
F0.22
sVspeaker
p2579
I0
sVfrom
p2580
F82.0
sVfinal
p2581
I00
sa(dp2582
Vto
p2583
F82.33
sVconfidence
p2584
F0.22
sVspeaker
p2585
I0
sVfrom
p2586
F82.17
sVfinal
p2587
I00
sa(dp2588
Vto
p2589
F82.75
sVconfidence
p2590
F0.22
sVspeaker
p2591
I0
sVfrom
p2592
F82.33
sVfinal
p2593
I00
sa(dp2594
Vto
p2595
F85.14
sVconfidence
p2596
F0.328
sVspeaker
p2597
I0
sVfrom
p2598
F84.98
sVfinal
p2599
I00
sa(dp2600
Vto
p2601
F85.78
sVconfidence
p2602
F0.482
sVspeaker
p2603
I0
sVfrom
p2604
F85.17
sVfinal
p2605
I00
sa(dp2606
Vto
p2607
F86.29
sVconfidence
p2608
F0.482
sVspeaker
p2609
I0
sVfrom
p2610
F85.78
sVfinal
p2611
I00
sa(dp2612
Vto
p2613
F86.78
sVconfidence
p2614
F0.31
sVspeaker
p2615
I0
sVfrom
p2616
F86.57
sVfinal
p2617
I00
sa(dp2618
Vto
p2619
F87.06
sVconfidence
p2620
F0.31
sVspeaker
p2621
I0
sVfrom
p2622
F86.78
sVfinal
p2623
I00
sa(dp2624
Vto
p2625
F87.39
sVconfidence
p2626
F0.31
sVspeaker
p2627
I0
sVfrom
p2628
F87.06
sVfinal
p2629
I00
sa(dp2630
Vto
p2631
F88.8
sVconfidence
p2632
F0.389
sVspeaker
p2633
I0
sVfrom
p2634
F88.21
sVfinal
p2635
I00
sa(dp2636
Vto
p2637
F88.93
sVconfidence
p2638
F0.389
sVspeaker
p2639
I0
sVfrom
p2640
F88.8
sVfinal
p2641
I00
sa(dp2642
Vto
p2643
F89.55
sVconfidence
p2644
F0.389
sVspeaker
p2645
I0
sVfrom
p2646
F88.93
sVfinal
p2647
I00
sa(dp2648
Vto
p2649
F89.98
sVconfidence
p2650
F0.57
sVspeaker
p2651
I0
sVfrom
p2652
F89.82
sVfinal
p2653
I00
sa(dp2654
Vto
p2655
F90.07
sVconfidence
p2656
F0.57
sVspeaker
p2657
I0
sVfrom
p2658
F89.98
sVfinal
p2659
I00
sa(dp2660
Vto
p2661
F90.3
sVconfidence
p2662
F0.57
sVspeaker
p2663
I0
sVfrom
p2664
F90.07
sVfinal
p2665
I00
sa(dp2666
Vto
p2667
F90.57
sVconfidence
p2668
F0.61
sVspeaker
p2669
I0
sVfrom
p2670
F90.33
sVfinal
p2671
I00
sa(dp2672
Vto
p2673
F91.17
sVconfidence
p2674
F0.554
sVspeaker
p2675
I0
sVfrom
p2676
F90.98
sVfinal
p2677
I00
sa(dp2678
Vto
p2679
F91.25
sVconfidence
p2680
F0.554
sVspeaker
p2681
I0
sVfrom
p2682
F91.17
sVfinal
p2683
I00
sa(dp2684
Vto
p2685
F91.37
sVconfidence
p2686
F0.554
sVspeaker
p2687
I0
sVfrom
p2688
F91.25
sVfinal
p2689
I00
sa(dp2690
Vto
p2691
F91.49
sVconfidence
p2692
F0.554
sVspeaker
p2693
I0
sVfrom
p2694
F91.37
sVfinal
p2695
I00
sa(dp2696
Vto
p2697
F91.76
sVconfidence
p2698
F0.554
sVspeaker
p2699
I0
sVfrom
p2700
F91.49
sVfinal
p2701
I00
sa(dp2702
Vto
p2703
F92.27
sVconfidence
p2704
F0.577
sVspeaker
p2705
I0
sVfrom
p2706
F92.01
sVfinal
p2707
I00
sa(dp2708
Vto
p2709
F92.37
sVconfidence
p2710
F0.577
sVspeaker
p2711
I0
sVfrom
p2712
F92.27
sVfinal
p2713
I00
sa(dp2714
Vto
p2715
F92.66
sVconfidence
p2716
F0.577
sVspeaker
p2717
I0
sVfrom
p2718
F92.37
sVfinal
p2719
I00
sa(dp2720
Vto
p2721
F92.86
sVconfidence
p2722
F0.577
sVspeaker
p2723
I0
sVfrom
p2724
F92.66
sVfinal
p2725
I00
sa(dp2726
Vto
p2727
F93.05
sVconfidence
p2728
F0.577
sVspeaker
p2729
I0
sVfrom
p2730
F92.86
sVfinal
p2731
I00
sa(dp2732
Vto
p2733
F93.71
sVconfidence
p2734
F0.365
sVspeaker
p2735
I0
sVfrom
p2736
F93.68
sVfinal
p2737
I00
sa(dp2738
Vto
p2739
F94.59
sVconfidence
p2740
F0.629
sVspeaker
p2741
I0
sVfrom
p2742
F94.09
sVfinal
p2743
I00
sa(dp2744
Vto
p2745
F94.84
sVconfidence
p2746
F0.629
sVspeaker
p2747
I0
sVfrom
p2748
F94.59
sVfinal
p2749
I00
sa(dp2750
Vto
p2751
F94.94
sVconfidence
p2752
F0.629
sVspeaker
p2753
I0
sVfrom
p2754
F94.84
sVfinal
p2755
I00
sa(dp2756
Vto
p2757
F95.2
sVconfidence
p2758
F0.629
sVspeaker
p2759
I0
sVfrom
p2760
F94.94
sVfinal
p2761
I00
sa(dp2762
Vto
p2763
F95.46
sVconfidence
p2764
F0.629
sVspeaker
p2765
I0
sVfrom
p2766
F95.2
sVfinal
p2767
I00
sa(dp2768
Vto
p2769
F95.9
sVconfidence
p2770
F0.323
sVspeaker
p2771
I0
sVfrom
p2772
F95.51
sVfinal
p2773
I00
sa(dp2774
Vto
p2775
F96.39
sVconfidence
p2776
F0.618
sVspeaker
p2777
I0
sVfrom
p2778
F96.16
sVfinal
p2779
I00
sa(dp2780
Vto
p2781
F96.63
sVconfidence
p2782
F0.618
sVspeaker
p2783
I0
sVfrom
p2784
F96.39
sVfinal
p2785
I00
sa(dp2786
Vto
p2787
F97.18
sVconfidence
p2788
F0.618
sVspeaker
p2789
I0
sVfrom
p2790
F96.63
sVfinal
p2791
I00
sa(dp2792
Vto
p2793
F97.61
sVconfidence
p2794
F0.3
sVspeaker
p2795
I0
sVfrom
p2796
F97.21
sVfinal
p2797
I00
sa(dp2798
Vto
p2799
F98.31
sVconfidence
p2800
F0.576
sVspeaker
p2801
I0
sVfrom
p2802
F97.7
sVfinal
p2803
I00
sa(dp2804
Vto
p2805
F98.74
sVconfidence
p2806
F0.576
sVspeaker
p2807
I0
sVfrom
p2808
F98.31
sVfinal
p2809
I00
sa(dp2810
Vto
p2811
F99.75
sVconfidence
p2812
F0.548
sVspeaker
p2813
I0
sVfrom
p2814
F99.15
sVfinal
p2815
I00
sa(dp2816
Vto
p2817
F99.89
sVconfidence
p2818
F0.548
sVspeaker
p2819
I0
sVfrom
p2820
F99.75
sVfinal
p2821
I00
sa(dp2822
Vto
p2823
F100.06
sVconfidence
p2824
F0.548
sVspeaker
p2825
I0
sVfrom
p2826
F99.89
sVfinal
p2827
I00
sa(dp2828
Vto
p2829
F100.27
sVconfidence
p2830
F0.548
sVspeaker
p2831
I0
sVfrom
p2832
F100.06
sVfinal
p2833
I00
sa(dp2834
Vto
p2835
F100.58
sVconfidence
p2836
F0.548
sVspeaker
p2837
I0
sVfrom
p2838
F100.27
sVfinal
p2839
I00
sa(dp2840
Vto
p2841
F100.72
sVconfidence
p2842
F0.548
sVspeaker
p2843
I0
sVfrom
p2844
F100.58
sVfinal
p2845
I00
sa(dp2846
Vto
p2847
F101.18
sVconfidence
p2848
F0.548
sVspeaker
p2849
I0
sVfrom
p2850
F100.72
sVfinal
p2851
I00
sa(dp2852
Vto
p2853
F101.38
sVconfidence
p2854
F0.499
sVspeaker
p2855
I0
sVfrom
p2856
F101.24
sVfinal
p2857
I00
sa(dp2858
Vto
p2859
F101.52
sVconfidence
p2860
F0.499
sVspeaker
p2861
I0
sVfrom
p2862
F101.38
sVfinal
p2863
I00
sa(dp2864
Vto
p2865
F101.78
sVconfidence
p2866
F0.499
sVspeaker
p2867
I0
sVfrom
p2868
F101.52
sVfinal
p2869
I00
sa(dp2870
Vto
p2871
F102.27
sVconfidence
p2872
F0.527
sVspeaker
p2873
I0
sVfrom
p2874
F102.08
sVfinal
p2875
I00
sa(dp2876
Vto
p2877
F102.61
sVconfidence
p2878
F0.527
sVspeaker
p2879
I0
sVfrom
p2880
F102.27
sVfinal
p2881
I00
sa(dp2882
Vto
p2883
F103.21
sVconfidence
p2884
F0.175
sVspeaker
p2885
I0
sVfrom
p2886
F102.64
sVfinal
p2887
I00
sa(dp2888
Vto
p2889
F104.55
sVconfidence
p2890
F0.508
sVspeaker
p2891
I0
sVfrom
p2892
F104.19
sVfinal
p2893
I00
sa(dp2894
Vto
p2895
F104.83
sVconfidence
p2896
F0.487
sVspeaker
p2897
I0
sVfrom
p2898
F104.6
sVfinal
p2899
I00
sa(dp2900
Vto
p2901
F105.02
sVconfidence
p2902
F0.299
sVspeaker
p2903
I0
sVfrom
p2904
F104.86
sVfinal
p2905
I00
sa(dp2906
Vto
p2907
F105.25
sVconfidence
p2908
F0.299
sVspeaker
p2909
I0
sVfrom
p2910
F105.02
sVfinal
p2911
I00
sa(dp2912
Vto
p2913
F105.38
sVconfidence
p2914
F0.299
sVspeaker
p2915
I0
sVfrom
p2916
F105.25
sVfinal
p2917
I00
sa(dp2918
Vto
p2919
F105.43
sVconfidence
p2920
F0.299
sVspeaker
p2921
I0
sVfrom
p2922
F105.38
sVfinal
p2923
I00
sa(dp2924
Vto
p2925
F106.28
sVconfidence
p2926
F0.299
sVspeaker
p2927
I0
sVfrom
p2928
F105.43
sVfinal
p2929
I00
sa(dp2930
Vto
p2931
F106.88
sVconfidence
p2932
F0.546
sVspeaker
p2933
I0
sVfrom
p2934
F106.56
sVfinal
p2935
I00
sa(dp2936
Vto
p2937
F107.98
sVconfidence
p2938
F0.552
sVspeaker
p2939
I0
sVfrom
p2940
F107.37
sVfinal
p2941
I00
sa(dp2942
Vto
p2943
F108.48
sVconfidence
p2944
F0.552
sVspeaker
p2945
I0
sVfrom
p2946
F107.98
sVfinal
p2947
I00
sa(dp2948
Vto
p2949
F108.74
sVconfidence
p2950
F0.552
sVspeaker
p2951
I0
sVfrom
p2952
F108.48
sVfinal
p2953
I00
sa(dp2954
Vto
p2955
F109.14
sVconfidence
p2956
F0.598
sVspeaker
p2957
I0
sVfrom
p2958
F108.86
sVfinal
p2959
I00
sa(dp2960
Vto
p2961
F109.35
sVconfidence
p2962
F0.528
sVspeaker
p2963
I0
sVfrom
p2964
F109.17
sVfinal
p2965
I00
sa(dp2966
Vto
p2967
F109.53
sVconfidence
p2968
F0.528
sVspeaker
p2969
I0
sVfrom
p2970
F109.35
sVfinal
p2971
I00
sa(dp2972
Vto
p2973
F109.89
sVconfidence
p2974
F0.528
sVspeaker
p2975
I0
sVfrom
p2976
F109.53
sVfinal
p2977
I00
sa(dp2978
Vto
p2979
F110.42
sVconfidence
p2980
F0.172
sVspeaker
p2981
I0
sVfrom
p2982
F110.18
sVfinal
p2983
I00
sa(dp2984
Vto
p2985
F110.75
sVconfidence
p2986
F0.172
sVspeaker
p2987
I0
sVfrom
p2988
F110.42
sVfinal
p2989
I00
sa(dp2990
Vto
p2991
F111.08
sVconfidence
p2992
F0.172
sVspeaker
p2993
I0
sVfrom
p2994
F110.75
sVfinal
p2995
I00
sa(dp2996
Vto
p2997
F111.22
sVconfidence
p2998
F0.172
sVspeaker
p2999
I0
sVfrom
p3000
F111.08
sVfinal
p3001
I00
sa(dp3002
Vto
p3003
F111.33
sVconfidence
p3004
F0.172
sVspeaker
p3005
I0
sVfrom
p3006
F111.22
sVfinal
p3007
I00
sa(dp3008
Vto
p3009
F111.52
sVconfidence
p3010
F0.172
sVspeaker
p3011
I0
sVfrom
p3012
F111.33
sVfinal
p3013
I00
sa(dp3014
Vto
p3015
F111.87
sVconfidence
p3016
F0.172
sVspeaker
p3017
I0
sVfrom
p3018
F111.52
sVfinal
p3019
I00
sa(dp3020
Vto
p3021
F112.03
sVconfidence
p3022
F0.172
sVspeaker
p3023
I0
sVfrom
p3024
F111.87
sVfinal
p3025
I00
sa(dp3026
Vto
p3027
F112.17
sVconfidence
p3028
F0.172
sVspeaker
p3029
I0
sVfrom
p3030
F112.03
sVfinal
p3031
I00
sa(dp3032
Vto
p3033
F112.97
sVconfidence
p3034
F0.402
sVspeaker
p3035
I0
sVfrom
p3036
F112.65
sVfinal
p3037
I00
sa(dp3038
Vto
p3039
F113.17
sVconfidence
p3040
F0.402
sVspeaker
p3041
I0
sVfrom
p3042
F112.97
sVfinal
p3043
I00
sa(dp3044
Vto
p3045
F113.67
sVconfidence
p3046
F0.402
sVspeaker
p3047
I0
sVfrom
p3048
F113.17
sVfinal
p3049
I00
sa(dp3050
Vto
p3051
F114.2
sVconfidence
p3052
F0.172
sVspeaker
p3053
I0
sVfrom
p3054
F113.96
sVfinal
p3055
I00
sa(dp3056
Vto
p3057
F114.31
sVconfidence
p3058
F0.172
sVspeaker
p3059
I0
sVfrom
p3060
F114.2
sVfinal
p3061
I00
sa(dp3062
Vto
p3063
F114.64
sVconfidence
p3064
F0.172
sVspeaker
p3065
I0
sVfrom
p3066
F114.31
sVfinal
p3067
I00
sa(dp3068
Vto
p3069
F114.88
sVconfidence
p3070
F0.172
sVspeaker
p3071
I0
sVfrom
p3072
F114.64
sVfinal
p3073
I00
sa(dp3074
Vto
p3075
F114.95
sVconfidence
p3076
F0.172
sVspeaker
p3077
I0
sVfrom
p3078
F114.88
sVfinal
p3079
I00
sa(dp3080
Vto
p3081
F115.05
sVconfidence
p3082
F0.172
sVspeaker
p3083
I0
sVfrom
p3084
F114.95
sVfinal
p3085
I00
sa(dp3086
Vto
p3087
F115.1
sVconfidence
p3088
F0.172
sVspeaker
p3089
I0
sVfrom
p3090
F115.05
sVfinal
p3091
I00
sa(dp3092
Vto
p3093
F115.69
sVconfidence
p3094
F0.172
sVspeaker
p3095
I0
sVfrom
p3096
F115.1
sVfinal
p3097
I00
sa(dp3098
Vto
p3099
F116.25
sVconfidence
p3100
F0.511
sVspeaker
p3101
I0
sVfrom
p3102
F116.05
sVfinal
p3103
I00
sa(dp3104
Vto
p3105
F116.7
sVconfidence
p3106
F0.603
sVspeaker
p3107
I0
sVfrom
p3108
F116.36
sVfinal
p3109
I00
sa(dp3110
Vto
p3111
F117.29
sVconfidence
p3112
F0.362
sVspeaker
p3113
I0
sVfrom
p3114
F116.73
sVfinal
p3115
I00
sa(dp3116
Vto
p3117
F117.98
sVconfidence
p3118
F0.362
sVspeaker
p3119
I0
sVfrom
p3120
F117.29
sVfinal
p3121
I00
sa(dp3122
Vto
p3123
F119.11
sVconfidence
p3124
F0.531
sVspeaker
p3125
I0
sVfrom
p3126
F118.71
sVfinal
p3127
I00
sa(dp3128
Vto
p3129
F119.21
sVconfidence
p3130
F0.531
sVspeaker
p3131
I0
sVfrom
p3132
F119.11
sVfinal
p3133
I00
sa(dp3134
Vto
p3135
F119.47
sVconfidence
p3136
F0.531
sVspeaker
p3137
I0
sVfrom
p3138
F119.21
sVfinal
p3139
I00
sa(dp3140
Vto
p3141
F119.85
sVconfidence
p3142
F0.531
sVspeaker
p3143
I0
sVfrom
p3144
F119.47
sVfinal
p3145
I00
sa(dp3146
Vto
p3147
F120.01
sVconfidence
p3148
F0.531
sVspeaker
p3149
I0
sVfrom
p3150
F119.85
sVfinal
p3151
I00
sa(dp3152
Vto
p3153
F120.11
sVconfidence
p3154
F0.531
sVspeaker
p3155
I0
sVfrom
p3156
F120.01
sVfinal
p3157
I00
sa(dp3158
Vto
p3159
F120.39
sVconfidence
p3160
F0.531
sVspeaker
p3161
I0
sVfrom
p3162
F120.11
sVfinal
p3163
I00
sa(dp3164
Vto
p3165
F120.9
sVconfidence
p3166
F0.531
sVspeaker
p3167
I0
sVfrom
p3168
F120.39
sVfinal
p3169
I00
sa(dp3170
Vto
p3171
F121.03
sVconfidence
p3172
F0.531
sVspeaker
p3173
I0
sVfrom
p3174
F120.9
sVfinal
p3175
I00
sa(dp3176
Vto
p3177
F121.26
sVconfidence
p3178
F0.531
sVspeaker
p3179
I0
sVfrom
p3180
F121.03
sVfinal
p3181
I00
sa(dp3182
Vto
p3183
F121.33
sVconfidence
p3184
F0.531
sVspeaker
p3185
I0
sVfrom
p3186
F121.26
sVfinal
p3187
I00
sa(dp3188
Vto
p3189
F121.64
sVconfidence
p3190
F0.531
sVspeaker
p3191
I0
sVfrom
p3192
F121.33
sVfinal
p3193
I00
sa(dp3194
Vto
p3195
F121.75
sVconfidence
p3196
F0.531
sVspeaker
p3197
I0
sVfrom
p3198
F121.64
sVfinal
p3199
I00
sa(dp3200
Vto
p3201
F122.15
sVconfidence
p3202
F0.531
sVspeaker
p3203
I0
sVfrom
p3204
F121.75
sVfinal
p3205
I00
sa(dp3206
Vto
p3207
F122.21
sVconfidence
p3208
F0.531
sVspeaker
p3209
I0
sVfrom
p3210
F122.15
sVfinal
p3211
I00
sa(dp3212
Vto
p3213
F122.37
sVconfidence
p3214
F0.531
sVspeaker
p3215
I0
sVfrom
p3216
F122.21
sVfinal
p3217
I00
sa(dp3218
Vto
p3219
F122.56
sVconfidence
p3220
F0.531
sVspeaker
p3221
I0
sVfrom
p3222
F122.37
sVfinal
p3223
I00
sa(dp3224
Vto
p3225
F122.77
sVconfidence
p3226
F0.531
sVspeaker
p3227
I0
sVfrom
p3228
F122.56
sVfinal
p3229
I00
sa(dp3230
Vto
p3231
F123.92
sVconfidence
p3232
F0.112
sVspeaker
p3233
I0
sVfrom
p3234
F123.27
sVfinal
p3235
I00
sa(dp3236
Vto
p3237
F124.99
sVconfidence
p3238
F0.324
sVspeaker
p3239
I0
sVfrom
p3240
F124.25
sVfinal
p3241
I00
sa(dp3242
Vto
p3243
F125.29
sVconfidence
p3244
F0.324
sVspeaker
p3245
I0
sVfrom
p3246
F124.99
sVfinal
p3247
I00
sa(dp3248
Vto
p3249
F125.6
sVconfidence
p3250
F0.324
sVspeaker
p3251
I0
sVfrom
p3252
F125.29
sVfinal
p3253
I00
sa(dp3254
Vto
p3255
F125.83
sVconfidence
p3256
F0.324
sVspeaker
p3257
I0
sVfrom
p3258
F125.6
sVfinal
p3259
I00
sa(dp3260
Vto
p3261
F126.15
sVconfidence
p3262
F0.148
sVspeaker
p3263
I0
sVfrom
p3264
F125.88
sVfinal
p3265
I00
sa(dp3266
Vto
p3267
F126.67
sVconfidence
p3268
F0.172
sVspeaker
p3269
I0
sVfrom
p3270
F126.18
sVfinal
p3271
I00
sa(dp3272
Vto
p3273
F126.89
sVconfidence
p3274
F0.172
sVspeaker
p3275
I0
sVfrom
p3276
F126.67
sVfinal
p3277
I00
sa(dp3278
Vto
p3279
F127.62
sVconfidence
p3280
F0.172
sVspeaker
p3281
I0
sVfrom
p3282
F126.89
sVfinal
p3283
I00
sa(dp3284
Vto
p3285
F127.92
sVconfidence
p3286
F0.172
sVspeaker
p3287
I0
sVfrom
p3288
F127.62
sVfinal
p3289
I00
sa(dp3290
Vto
p3291
F128.59
sVconfidence
p3292
F0.529
sVspeaker
p3293
I0
sVfrom
p3294
F128.24
sVfinal
p3295
I00
sa(dp3296
Vto
p3297
F128.86
sVconfidence
p3298
F0.254
sVspeaker
p3299
I0
sVfrom
p3300
F128.62
sVfinal
p3301
I00
sa(dp3302
Vto
p3303
F128.92
sVconfidence
p3304
F0.254
sVspeaker
p3305
I0
sVfrom
p3306
F128.86
sVfinal
p3307
I00
sa(dp3308
Vto
p3309
F129.19
sVconfidence
p3310
F0.254
sVspeaker
p3311
I0
sVfrom
p3312
F128.92
sVfinal
p3313
I00
sa(dp3314
Vto
p3315
F129.26
sVconfidence
p3316
F0.254
sVspeaker
p3317
I0
sVfrom
p3318
F129.19
sVfinal
p3319
I00
sa(dp3320
Vto
p3321
F129.69
sVconfidence
p3322
F0.254
sVspeaker
p3323
I0
sVfrom
p3324
F129.26
sVfinal
p3325
I00
sa(dp3326
Vto
p3327
F130.31
sVconfidence
p3328
F0.453
sVspeaker
p3329
I0
sVfrom
p3330
F130.04
sVfinal
p3331
I00
sa(dp3332
Vto
p3333
F130.56
sVconfidence
p3334
F0.186
sVspeaker
p3335
I0
sVfrom
p3336
F130.35
sVfinal
p3337
I00
sa(dp3338
Vto
p3339
F130.64
sVconfidence
p3340
F0.186
sVspeaker
p3341
I0
sVfrom
p3342
F130.56
sVfinal
p3343
I00
sa(dp3344
Vto
p3345
F130.74
sVconfidence
p3346
F0.186
sVspeaker
p3347
I0
sVfrom
p3348
F130.64
sVfinal
p3349
I00
sa(dp3350
Vto
p3351
F131.0
sVconfidence
p3352
F0.186
sVspeaker
p3353
I0
sVfrom
p3354
F130.74
sVfinal
p3355
I00
sa(dp3356
Vto
p3357
F131.13
sVconfidence
p3358
F0.186
sVspeaker
p3359
I0
sVfrom
p3360
F131.0
sVfinal
p3361
I00
sa(dp3362
Vto
p3363
F131.22
sVconfidence
p3364
F0.186
sVspeaker
p3365
I0
sVfrom
p3366
F131.13
sVfinal
p3367
I00
sa(dp3368
Vto
p3369
F131.63
sVconfidence
p3370
F0.186
sVspeaker
p3371
I0
sVfrom
p3372
F131.22
sVfinal
p3373
I00
sa(dp3374
Vto
p3375
F131.83
sVconfidence
p3376
F0.186
sVspeaker
p3377
I0
sVfrom
p3378
F131.63
sVfinal
p3379
I00
sa(dp3380
Vto
p3381
F132.6
sVconfidence
p3382
F0.186
sVspeaker
p3383
I0
sVfrom
p3384
F131.83
sVfinal
p3385
I00
sa(dp3386
Vto
p3387
F132.99
sVconfidence
p3388
F0.186
sVspeaker
p3389
I0
sVfrom
p3390
F132.6
sVfinal
p3391
I00
sa(dp3392
Vto
p3393
F133.17
sVconfidence
p3394
F0.186
sVspeaker
p3395
I0
sVfrom
p3396
F132.99
sVfinal
p3397
I00
sa(dp3398
Vto
p3399
F133.31
sVconfidence
p3400
F0.186
sVspeaker
p3401
I0
sVfrom
p3402
F133.17
sVfinal
p3403
I00
sa(dp3404
Vto
p3405
F133.46
sVconfidence
p3406
F0.186
sVspeaker
p3407
I0
sVfrom
p3408
F133.31
sVfinal
p3409
I00
sa(dp3410
Vto
p3411
F133.71
sVconfidence
p3412
F0.186
sVspeaker
p3413
I0
sVfrom
p3414
F133.46
sVfinal
p3415
I00
sa(dp3416
Vto
p3417
F133.75
sVconfidence
p3418
F0.186
sVspeaker
p3419
I0
sVfrom
p3420
F133.71
sVfinal
p3421
I00
sa(dp3422
Vto
p3423
F133.93
sVconfidence
p3424
F0.186
sVspeaker
p3425
I0
sVfrom
p3426
F133.75
sVfinal
p3427
I00
sa(dp3428
Vto
p3429
F134.08
sVconfidence
p3430
F0.186
sVspeaker
p3431
I0
sVfrom
p3432
F133.93
sVfinal
p3433
I00
sa(dp3434
Vto
p3435
F134.47
sVconfidence
p3436
F0.186
sVspeaker
p3437
I0
sVfrom
p3438
F134.08
sVfinal
p3439
I00
sa(dp3440
Vto
p3441
F134.7
sVconfidence
p3442
F0.186
sVspeaker
p3443
I0
sVfrom
p3444
F134.47
sVfinal
p3445
I00
sa(dp3446
Vto
p3447
F135.29
sVconfidence
p3448
F0.438
sVspeaker
p3449
I0
sVfrom
p3450
F135.12
sVfinal
p3451
I00
sa(dp3452
Vto
p3453
F135.42
sVconfidence
p3454
F0.438
sVspeaker
p3455
I0
sVfrom
p3456
F135.29
sVfinal
p3457
I00
sa(dp3458
Vto
p3459
F135.72
sVconfidence
p3460
F0.438
sVspeaker
p3461
I0
sVfrom
p3462
F135.42
sVfinal
p3463
I00
sa(dp3464
Vto
p3465
F136.09
sVconfidence
p3466
F0.438
sVspeaker
p3467
I0
sVfrom
p3468
F135.72
sVfinal
p3469
I00
sa(dp3470
Vto
p3471
F136.52
sVconfidence
p3472
F0.373
sVspeaker
p3473
I0
sVfrom
p3474
F136.28
sVfinal
p3475
I00
sa(dp3476
Vto
p3477
F136.88
sVconfidence
p3478
F0.373
sVspeaker
p3479
I0
sVfrom
p3480
F136.52
sVfinal
p3481
I00
sa(dp3482
Vto
p3483
F137.92
sVconfidence
p3484
F0.483
sVspeaker
p3485
I0
sVfrom
p3486
F137.73
sVfinal
p3487
I00
sa(dp3488
Vto
p3489
F138.24
sVconfidence
p3490
F0.483
sVspeaker
p3491
I0
sVfrom
p3492
F137.92
sVfinal
p3493
I00
sa(dp3494
Vto
p3495
F138.38
sVconfidence
p3496
F0.295
sVspeaker
p3497
I0
sVfrom
p3498
F138.27
sVfinal
p3499
I00
sa(dp3500
Vto
p3501
F138.5
sVconfidence
p3502
F0.295
sVspeaker
p3503
I0
sVfrom
p3504
F138.38
sVfinal
p3505
I00
sa(dp3506
Vto
p3507
F138.62
sVconfidence
p3508
F0.295
sVspeaker
p3509
I0
sVfrom
p3510
F138.5
sVfinal
p3511
I00
sa(dp3512
Vto
p3513
F138.77
sVconfidence
p3514
F0.295
sVspeaker
p3515
I0
sVfrom
p3516
F138.62
sVfinal
p3517
I00
sa(dp3518
Vto
p3519
F138.95
sVconfidence
p3520
F0.295
sVspeaker
p3521
I0
sVfrom
p3522
F138.77
sVfinal
p3523
I00
sa(dp3524
Vto
p3525
F139.59
sVconfidence
p3526
F0.295
sVspeaker
p3527
I0
sVfrom
p3528
F138.95
sVfinal
p3529
I00
sa(dp3530
Vto
p3531
F140.74
sVconfidence
p3532
F0.592
sVspeaker
p3533
I0
sVfrom
p3534
F140.44
sVfinal
p3535
I00
sa(dp3536
Vto
p3537
F141.15
sVconfidence
p3538
F0.497
sVspeaker
p3539
I0
sVfrom
p3540
F140.97
sVfinal
p3541
I00
sa(dp3542
Vto
p3543
F141.54
sVconfidence
p3544
F0.497
sVspeaker
p3545
I0
sVfrom
p3546
F141.15
sVfinal
p3547
I00
sa(dp3548
Vto
p3549
F141.66
sVconfidence
p3550
F0.497
sVspeaker
p3551
I0
sVfrom
p3552
F141.54
sVfinal
p3553
I00
sa(dp3554
Vto
p3555
F141.93
sVconfidence
p3556
F0.497
sVspeaker
p3557
I0
sVfrom
p3558
F141.66
sVfinal
p3559
I00
sa(dp3560
Vto
p3561
F142.15
sVconfidence
p3562
F0.497
sVspeaker
p3563
I0
sVfrom
p3564
F141.93
sVfinal
p3565
I00
sa(dp3566
Vto
p3567
F142.24
sVconfidence
p3568
F0.497
sVspeaker
p3569
I0
sVfrom
p3570
F142.15
sVfinal
p3571
I00
sa(dp3572
Vto
p3573
F142.65
sVconfidence
p3574
F0.497
sVspeaker
p3575
I0
sVfrom
p3576
F142.24
sVfinal
p3577
I00
sa(dp3578
Vto
p3579
F143.18
sVconfidence
p3580
F0.484
sVspeaker
p3581
I0
sVfrom
p3582
F143.01
sVfinal
p3583
I00
sa(dp3584
Vto
p3585
F143.44
sVconfidence
p3586
F0.484
sVspeaker
p3587
I0
sVfrom
p3588
F143.18
sVfinal
p3589
I00
sa(dp3590
Vto
p3591
F143.53
sVconfidence
p3592
F0.484
sVspeaker
p3593
I0
sVfrom
p3594
F143.44
sVfinal
p3595
I00
sa(dp3596
Vto
p3597
F143.75
sVconfidence
p3598
F0.484
sVspeaker
p3599
I0
sVfrom
p3600
F143.53
sVfinal
p3601
I00
sa(dp3602
Vto
p3603
F143.98
sVconfidence
p3604
F0.484
sVspeaker
p3605
I0
sVfrom
p3606
F143.75
sVfinal
p3607
I00
sa(dp3608
Vto
p3609
F144.08
sVconfidence
p3610
F0.484
sVspeaker
p3611
I0
sVfrom
p3612
F143.98
sVfinal
p3613
I00
sa(dp3614
Vto
p3615
F144.24
sVconfidence
p3616
F0.484
sVspeaker
p3617
I0
sVfrom
p3618
F144.08
sVfinal
p3619
I00
sa(dp3620
Vto
p3621
F144.52
sVconfidence
p3622
F0.484
sVspeaker
p3623
I0
sVfrom
p3624
F144.24
sVfinal
p3625
I00
sa(dp3626
Vto
p3627
F144.58
sVconfidence
p3628
F0.484
sVspeaker
p3629
I0
sVfrom
p3630
F144.52
sVfinal
p3631
I00
sa(dp3632
Vto
p3633
F145.01
sVconfidence
p3634
F0.484
sVspeaker
p3635
I0
sVfrom
p3636
F144.58
sVfinal
p3637
I00
sa(dp3638
Vto
p3639
F145.25
sVconfidence
p3640
F0.484
sVspeaker
p3641
I0
sVfrom
p3642
F145.01
sVfinal
p3643
I00
sa(dp3644
Vto
p3645
F145.4
sVconfidence
p3646
F0.484
sVspeaker
p3647
I0
sVfrom
p3648
F145.25
sVfinal
p3649
I00
sa(dp3650
Vto
p3651
F145.47
sVconfidence
p3652
F0.484
sVspeaker
p3653
I0
sVfrom
p3654
F145.4
sVfinal
p3655
I00
sa(dp3656
Vto
p3657
F145.74
sVconfidence
p3658
F0.484
sVspeaker
p3659
I0
sVfrom
p3660
F145.47
sVfinal
p3661
I00
sa(dp3662
Vto
p3663
F146.28
sVconfidence
p3664
F0.484
sVspeaker
p3665
I0
sVfrom
p3666
F145.74
sVfinal
p3667
I00
sa(dp3668
Vto
p3669
F146.5
sVconfidence
p3670
F0.484
sVspeaker
p3671
I0
sVfrom
p3672
F146.28
sVfinal
p3673
I00
sa(dp3674
Vto
p3675
F146.63
sVconfidence
p3676
F0.484
sVspeaker
p3677
I0
sVfrom
p3678
F146.5
sVfinal
p3679
I00
sa(dp3680
Vto
p3681
F146.73
sVconfidence
p3682
F0.484
sVspeaker
p3683
I0
sVfrom
p3684
F146.63
sVfinal
p3685
I00
sa(dp3686
Vto
p3687
F146.87
sVconfidence
p3688
F0.484
sVspeaker
p3689
I0
sVfrom
p3690
F146.73
sVfinal
p3691
I00
sa(dp3692
Vto
p3693
F146.98
sVconfidence
p3694
F0.484
sVspeaker
p3695
I0
sVfrom
p3696
F146.87
sVfinal
p3697
I00
sa(dp3698
Vto
p3699
F147.18
sVconfidence
p3700
F0.484
sVspeaker
p3701
I0
sVfrom
p3702
F146.98
sVfinal
p3703
I00
sa(dp3704
Vto
p3705
F147.8
sVconfidence
p3706
F0.519
sVspeaker
p3707
I0
sVfrom
p3708
F147.57
sVfinal
p3709
I00
sa(dp3710
Vto
p3711
F148.21
sVconfidence
p3712
F0.519
sVspeaker
p3713
I0
sVfrom
p3714
F147.8
sVfinal
p3715
I00
sa(dp3716
Vto
p3717
F148.35
sVconfidence
p3718
F0.519
sVspeaker
p3719
I0
sVfrom
p3720
F148.21
sVfinal
p3721
I00
sa(dp3722
Vto
p3723
F148.59
sVconfidence
p3724
F0.519
sVspeaker
p3725
I0
sVfrom
p3726
F148.35
sVfinal
p3727
I00
sa(dp3728
Vto
p3729
F148.75
sVconfidence
p3730
F0.519
sVspeaker
p3731
I0
sVfrom
p3732
F148.59
sVfinal
p3733
I00
sa(dp3734
Vto
p3735
F149.0
sVconfidence
p3736
F0.519
sVspeaker
p3737
I0
sVfrom
p3738
F148.75
sVfinal
p3739
I00
sa(dp3740
Vto
p3741
F149.54
sVconfidence
p3742
F0.519
sVspeaker
p3743
I0
sVfrom
p3744
F149.0
sVfinal
p3745
I00
sa(dp3746
Vto
p3747
F149.65
sVconfidence
p3748
F0.519
sVspeaker
p3749
I0
sVfrom
p3750
F149.54
sVfinal
p3751
I00
sa(dp3752
Vto
p3753
F149.76
sVconfidence
p3754
F0.519
sVspeaker
p3755
I0
sVfrom
p3756
F149.65
sVfinal
p3757
I00
sa(dp3758
Vto
p3759
F149.88
sVconfidence
p3760
F0.519
sVspeaker
p3761
I0
sVfrom
p3762
F149.76
sVfinal
p3763
I00
sa(dp3764
Vto
p3765
F150.08
sVconfidence
p3766
F0.519
sVspeaker
p3767
I0
sVfrom
p3768
F149.88
sVfinal
p3769
I00
sa(dp3770
Vto
p3771
F150.28
sVconfidence
p3772
F0.519
sVspeaker
p3773
I0
sVfrom
p3774
F150.08
sVfinal
p3775
I00
sa(dp3776
Vto
p3777
F150.37
sVconfidence
p3778
F0.519
sVspeaker
p3779
I0
sVfrom
p3780
F150.28
sVfinal
p3781
I00
sa(dp3782
Vto
p3783
F150.44
sVconfidence
p3784
F0.519
sVspeaker
p3785
I0
sVfrom
p3786
F150.37
sVfinal
p3787
I00
sa(dp3788
Vto
p3789
F150.64
sVconfidence
p3790
F0.519
sVspeaker
p3791
I0
sVfrom
p3792
F150.44
sVfinal
p3793
I00
sa(dp3794
Vto
p3795
F150.78
sVconfidence
p3796
F0.519
sVspeaker
p3797
I0
sVfrom
p3798
F150.64
sVfinal
p3799
I00
sa(dp3800
Vto
p3801
F151.01
sVconfidence
p3802
F0.43
sVspeaker
p3803
I0
sVfrom
p3804
F150.81
sVfinal
p3805
I00
sa(dp3806
Vto
p3807
F151.14
sVconfidence
p3808
F0.43
sVspeaker
p3809
I0
sVfrom
p3810
F151.01
sVfinal
p3811
I00
sa(dp3812
Vto
p3813
F151.6
sVconfidence
p3814
F0.43
sVspeaker
p3815
I0
sVfrom
p3816
F151.14
sVfinal
p3817
I01
sas.