(dp0
Vresults
p1
(lp2
(dp3
Valternatives
p4
(lp5
(dp6
Vtimestamps
p7
(lp8
(lp9
V%HESITATION
p10
aF0.92
aF1.21
aasVconfidence
p11
F0.573
sVtranscript
p12
V%HESITATION 
p13
sasVfinal
p14
I01
sa(dp15
Valternatives
p16
(lp17
(dp18
Vtimestamps
p19
(lp20
(lp21
VI
p22
aF10.85
aF11.15
aa(lp23
Vdon't
p24
aF27.49
aF27.69
aa(lp25
Vknow
p26
aF27.69
aF27.87
aa(lp27
Vwhat
p28
aF28.59
aF28.83
aa(lp29
Vdo
p30
aF34.12
aF34.3
aa(lp31
Vyou
p32
aF34.49
aF34.78
aasVconfidence
p33
F0.472
sVtranscript
p34
VI don't know what do you 
p35
sasVfinal
p36
I01
sa(dp37
Valternatives
p38
(lp39
(dp40
Vtimestamps
p41
(lp42
(lp43
Vone
p44
aF35.75
aF35.93
aa(lp45
Vof
p46
aF35.93
aF36.04
aa(lp47
Vthem
p48
aF36.62
aF36.91
aasVconfidence
p49
F0.158
sVtranscript
p50
Vone of them 
p51
sasVfinal
p52
I01
sa(dp53
Valternatives
p54
(lp55
(dp56
Vtimestamps
p57
(lp58
(lp59
Vyes
p60
aF40.1
aF40.44
aa(lp61
g22
aF40.51
aF40.56
aa(lp62
Vknow
p63
aF40.56
aF40.96
aa(lp64
Vbut
p65
aF41.04
aF41.53
aa(lp66
Vyou
p67
aF41.99
aF42.15
aa(lp68
Vhave
p69
aF42.15
aF42.37
aa(lp70
Vto
p71
aF42.43
aF42.58
aa(lp72
Vbe
p73
aF42.58
aF42.8
aa(lp74
Vstrong
p75
aF43.29
aF43.63
aa(lp76
Vand
p77
aF43.63
aF43.86
aa(lp78
Vwhat
p79
aF43.86
aF44.01
aa(lp80
Vyou
p81
aF44.01
aF44.12
aa(lp82
Vbelieve
p83
aF44.12
aF44.43
aa(lp84
Vin
p85
aF44.43
aF44.56
aa(lp86
Vthis
p87
aF44.88
aF45.08
aa(lp88
Vlike
p89
aF45.08
aF45.43
aasVconfidence
p90
F0.637
sVtranscript
p91
Vyes I know but you have to be strong and what you believe in this like 
p92
sasVfinal
p93
I01
sa(dp94
Valternatives
p95
(lp96
(dp97
Vtimestamps
p98
(lp99
(lp100
Vyou
p101
aF46.63
aF46.87
aa(lp102
Vare
p103
aF46.87
aF47.03
aa(lp104
Vyour
p105
aF47.03
aF47.19
aa(lp106
Vown
p107
aF47.19
aF47.28
aa(lp108
Vperson
p109
aF47.28
aF47.92
aa(lp110
Vand
p111
aF47.95
aF48.31
aa(lp112
Vyou
p113
aF48.34
aF48.54
aa(lp114
Vwill
p115
aF49.02
aF49.12
aa(lp116
Vbe
p117
aF49.12
aF49.21
aa(lp118
Von
p119
aF49.21
aF49.33
aa(lp120
Vcall
p121
aF49.33
aF49.56
aa(lp122
Vversion
p123
aF49.56
aF50.1
aasVconfidence
p124
F0.678
sVtranscript
p125
Vyou are your own person and you will be on call version 
p126
sasVfinal
p127
I01
sa(dp128
Valternatives
p129
(lp130
(dp131
Vtimestamps
p132
(lp133
(lp134
Vand
p135
aF50.97
aF51.57
aa(lp136
Vyour
p137
aF51.67
aF51.89
aa(lp138
Vtime
p139
aF51.89
aF52.2
aasVconfidence
p140
F0.819
sVtranscript
p141
Vand your time 
p142
sasVfinal
p143
I01
sa(dp144
Valternatives
p145
(lp146
(dp147
Vtimestamps
p148
(lp149
(lp150
Vin
p151
aF54.12
aF54.19
aa(lp152
Vthe
p153
aF54.19
aF54.3
aa(lp154
Vworld
p155
aF54.37
aF54.86
aasVconfidence
p156
F0.529
sVtranscript
p157
Vin the world 
p158
sasVfinal
p159
I01
sa(dp160
Valternatives
p161
(lp162
(dp163
Vtimestamps
p164
(lp165
(lp166
Vto
p167
aF56.62
aF56.75
aa(lp168
Vstay
p169
aF56.75
aF56.96
aa(lp170
Vfor
p171
aF56.96
aF57.13
aa(lp172
Vthe
p173
aF57.13
aF57.27
aa(lp174
Vwhole
p175
aF57.93
aF58.07
aa(lp176
Vday
p177
aF58.07
aF58.46
aa(lp178
Vwith
p179
aF58.89
aF59.22
aasVconfidence
p180
F0.256
sVtranscript
p181
Vto stay for the whole day with 
p182
sasVfinal
p183
I01
sa(dp184
Valternatives
p185
(lp186
(dp187
Vtimestamps
p188
(lp189
(lp190
V%HESITATION
p191
aF61.16
aF61.44
aa(lp192
V%HESITATION
p193
aF62.13
aF62.62
aa(lp194
V%HESITATION
p195
aF63.45
aF63.65
aa(lp196
V%HESITATION
p197
aF63.78
aF64.07
aa(lp198
V%HESITATION
p199
aF64.54
aF65.07
aa(lp200
V%HESITATION
p201
aF66.21
aF66.79
aa(lp202
V%HESITATION
p203
aF68.44
aF68.64
aa(lp204
V%HESITATION
p205
aF68.7
aF68.92
aa(lp206
V%HESITATION
p207
aF69.34
aF69.9
aasVconfidence
p208
F0.783
sVtranscript
p209
V%HESITATION %HESITATION %HESITATION %HESITATION %HESITATION %HESITATION %HESITATION %HESITATION %HESITATION 
p210
sasVfinal
p211
I01
sa(dp212
Valternatives
p213
(lp214
(dp215
Vtimestamps
p216
(lp217
(lp218
Vyeah
p219
aF70.93
aF71.26
aa(lp220
Vand
p221
aF71.67
aF72.35
aa(lp222
Vmaybe
p223
aF72.38
aF72.7
aa(lp224
Vyou
p225
aF72.7
aF72.96
aa(lp226
Vcame
p227
aF72.99
aF73.27
aa(lp228
Vand
p229
aF73.27
aF73.45
aa(lp230
Vwe're
p231
aF73.45
aF73.69
aa(lp232
Vwe're
p233
aF73.73
aF74.0
aa(lp234
Vlooking
p235
aF74.0
aF74.27
aa(lp236
Varound
p237
aF74.27
aF74.93
aa(lp238
Vand
p239
aF75.16
aF75.43
aa(lp240
Vsaying
p241
aF75.73
aF76.3
aa(lp242
Vyou
p243
aF76.34
aF76.82
aasVconfidence
p244
F0.606
sVtranscript
p245
Vyeah and maybe you came and we're we're looking around and saying you 
p246
sasVfinal
p247
I01
sa(dp248
Valternatives
p249
(lp250
(dp251
Vtimestamps
p252
(lp253
(lp254
V%HESITATION
p255
aF77.4
aF77.61
aa(lp256
V%HESITATION
p257
aF77.61
aF77.85
aa(lp258
V%HESITATION
p259
aF77.85
aF78.11
aa(lp260
V%HESITATION
p261
aF78.28
aF78.46
aa(lp262
V%HESITATION
p263
aF79.06
aF79.83
aasVconfidence
p264
F0.523
sVtranscript
p265
V%HESITATION %HESITATION %HESITATION %HESITATION %HESITATION 
p266
sasVfinal
p267
I01
sa(dp268
Valternatives
p269
(lp270
(dp271
Vtimestamps
p272
(lp273
(lp274
Vwe
p275
aF80.71
aF80.81
aa(lp276
Vwe
p277
aF80.81
aF80.95
aa(lp278
Vwe
p279
aF80.95
aF81.09
aa(lp280
Vinto
p281
aF81.09
aF81.47
aa(lp282
Vthe
p283
aF81.47
aF81.83
aasVconfidence
p284
F0.55
sVtranscript
p285
Vwe we we into the 
p286
sasVfinal
p287
I01
sa(dp288
Valternatives
p289
(lp290
(dp291
Vtimestamps
p292
(lp293
(lp294
VMcDonald's
p295
aF82.42
aF83.36
aasVconfidence
p296
F0.261
sVtranscript
p297
VMcDonald's 
p298
sasVfinal
p299
I01
sa(dp300
Valternatives
p301
(lp302
(dp303
Vtimestamps
p304
(lp305
(lp306
g22
aF85.81
aF85.93
aa(lp307
Vsure
p308
aF85.93
aF86.27
aa(lp309
Vcan
p310
aF86.27
aF86.54
aasVconfidence
p311
F0.306
sVtranscript
p312
VI sure can 
p313
sasVfinal
p314
I01
sa(dp315
Valternatives
p316
(lp317
(dp318
Vtimestamps
p319
(lp320
(lp321
Vchips
p322
aF87.86
aF88.24
aa(lp323
Vand
p324
aF88.24
aF88.42
aa(lp325
Vthen
p326
aF89.09
aF89.36
aa(lp327
Vlater
p328
aF89.4
aF89.72
aa(lp329
Vthe
p330
aF89.72
aF89.92
aasVconfidence
p331
F0.333
sVtranscript
p332
Vchips and then later the 
p333
sasVfinal
p334
I01
sasVresult_index
p335
I0
sVspeaker_labels
p336
(lp337
(dp338
Vto
p339
F1.21
sVconfidence
p340
F0.324
sVspeaker
p341
I0
sVfrom
p342
F0.92
sVfinal
p343
I00
sa(dp344
Vto
p345
F11.15
sVconfidence
p346
F0.431
sVspeaker
p347
I0
sVfrom
p348
F10.85
sVfinal
p349
I00
sa(dp350
Vto
p351
F27.69
sVconfidence
p352
F0.4
sVspeaker
p353
I0
sVfrom
p354
F27.49
sVfinal
p355
I00
sa(dp356
Vto
p357
F27.87
sVconfidence
p358
F0.4
sVspeaker
p359
I0
sVfrom
p360
F27.69
sVfinal
p361
I00
sa(dp362
Vto
p363
F28.83
sVconfidence
p364
F0.563
sVspeaker
p365
I0
sVfrom
p366
F28.59
sVfinal
p367
I00
sa(dp368
Vto
p369
F34.3
sVconfidence
p370
F0.517
sVspeaker
p371
I0
sVfrom
p372
F34.12
sVfinal
p373
I00
sa(dp374
Vto
p375
F34.78
sVconfidence
p376
F0.476
sVspeaker
p377
I0
sVfrom
p378
F34.49
sVfinal
p379
I00
sa(dp380
Vto
p381
F35.93
sVconfidence
p382
F0.526
sVspeaker
p383
I0
sVfrom
p384
F35.75
sVfinal
p385
I00
sa(dp386
Vto
p387
F36.04
sVconfidence
p388
F0.526
sVspeaker
p389
I0
sVfrom
p390
F35.93
sVfinal
p391
I00
sa(dp392
Vto
p393
F36.91
sVconfidence
p394
F0.451
sVspeaker
p395
I0
sVfrom
p396
F36.62
sVfinal
p397
I00
sa(dp398
Vto
p399
F40.44
sVconfidence
p400
F0.396
sVspeaker
p401
I1
sVfrom
p402
F40.1
sVfinal
p403
I00
sa(dp404
Vto
p405
F40.56
sVconfidence
p406
F0.482
sVspeaker
p407
I1
sVfrom
p408
F40.51
sVfinal
p409
I00
sa(dp410
Vto
p411
F40.96
sVconfidence
p412
F0.482
sVspeaker
p413
I1
sVfrom
p414
F40.56
sVfinal
p415
I00
sa(dp416
Vto
p417
F41.53
sVconfidence
p418
F0.448
sVspeaker
p419
I1
sVfrom
p420
F41.04
sVfinal
p421
I00
sa(dp422
Vto
p423
F42.15
sVconfidence
p424
F0.283
sVspeaker
p425
I0
sVfrom
p426
F41.99
sVfinal
p427
I00
sa(dp428
Vto
p429
F42.37
sVconfidence
p430
F0.283
sVspeaker
p431
I0
sVfrom
p432
F42.15
sVfinal
p433
I00
sa(dp434
Vto
p435
F42.58
sVconfidence
p436
F0.452
sVspeaker
p437
I1
sVfrom
p438
F42.43
sVfinal
p439
I00
sa(dp440
Vto
p441
F42.8
sVconfidence
p442
F0.452
sVspeaker
p443
I1
sVfrom
p444
F42.58
sVfinal
p445
I00
sa(dp446
Vto
p447
F43.63
sVconfidence
p448
F0.422
sVspeaker
p449
I1
sVfrom
p450
F43.29
sVfinal
p451
I00
sa(dp452
Vto
p453
F43.86
sVconfidence
p454
F0.422
sVspeaker
p455
I1
sVfrom
p456
F43.63
sVfinal
p457
I00
sa(dp458
Vto
p459
F44.01
sVconfidence
p460
F0.422
sVspeaker
p461
I1
sVfrom
p462
F43.86
sVfinal
p463
I00
sa(dp464
Vto
p465
F44.12
sVconfidence
p466
F0.422
sVspeaker
p467
I1
sVfrom
p468
F44.01
sVfinal
p469
I00
sa(dp470
Vto
p471
F44.43
sVconfidence
p472
F0.422
sVspeaker
p473
I1
sVfrom
p474
F44.12
sVfinal
p475
I00
sa(dp476
Vto
p477
F44.56
sVconfidence
p478
F0.422
sVspeaker
p479
I1
sVfrom
p480
F44.43
sVfinal
p481
I00
sa(dp482
Vto
p483
F45.08
sVconfidence
p484
F0.438
sVspeaker
p485
I1
sVfrom
p486
F44.88
sVfinal
p487
I00
sa(dp488
Vto
p489
F45.43
sVconfidence
p490
F0.438
sVspeaker
p491
I1
sVfrom
p492
F45.08
sVfinal
p493
I00
sa(dp494
Vto
p495
F46.87
sVconfidence
p496
F0.552
sVspeaker
p497
I1
sVfrom
p498
F46.63
sVfinal
p499
I00
sa(dp500
Vto
p501
F47.03
sVconfidence
p502
F0.552
sVspeaker
p503
I1
sVfrom
p504
F46.87
sVfinal
p505
I00
sa(dp506
Vto
p507
F47.19
sVconfidence
p508
F0.552
sVspeaker
p509
I1
sVfrom
p510
F47.03
sVfinal
p511
I00
sa(dp512
Vto
p513
F47.28
sVconfidence
p514
F0.552
sVspeaker
p515
I1
sVfrom
p516
F47.19
sVfinal
p517
I00
sa(dp518
Vto
p519
F47.92
sVconfidence
p520
F0.552
sVspeaker
p521
I1
sVfrom
p522
F47.28
sVfinal
p523
I00
sa(dp524
Vto
p525
F48.31
sVconfidence
p526
F0.495
sVspeaker
p527
I1
sVfrom
p528
F47.95
sVfinal
p529
I00
sa(dp530
Vto
p531
F48.54
sVconfidence
p532
F0.453
sVspeaker
p533
I1
sVfrom
p534
F48.34
sVfinal
p535
I00
sa(dp536
Vto
p537
F49.12
sVconfidence
p538
F0.558
sVspeaker
p539
I1
sVfrom
p540
F49.02
sVfinal
p541
I00
sa(dp542
Vto
p543
F49.21
sVconfidence
p544
F0.558
sVspeaker
p545
I1
sVfrom
p546
F49.12
sVfinal
p547
I00
sa(dp548
Vto
p549
F49.33
sVconfidence
p550
F0.558
sVspeaker
p551
I1
sVfrom
p552
F49.21
sVfinal
p553
I00
sa(dp554
Vto
p555
F49.56
sVconfidence
p556
F0.558
sVspeaker
p557
I1
sVfrom
p558
F49.33
sVfinal
p559
I00
sa(dp560
Vto
p561
F50.1
sVconfidence
p562
F0.558
sVspeaker
p563
I1
sVfrom
p564
F49.56
sVfinal
p565
I00
sa(dp566
Vto
p567
F51.57
sVconfidence
p568
F0.51
sVspeaker
p569
I1
sVfrom
p570
F50.97
sVfinal
p571
I00
sa(dp572
Vto
p573
F51.89
sVconfidence
p574
F0.297
sVspeaker
p575
I0
sVfrom
p576
F51.67
sVfinal
p577
I00
sa(dp578
Vto
p579
F52.2
sVconfidence
p580
F0.297
sVspeaker
p581
I0
sVfrom
p582
F51.89
sVfinal
p583
I00
sa(dp584
Vto
p585
F54.19
sVconfidence
p586
F0.436
sVspeaker
p587
I0
sVfrom
p588
F54.12
sVfinal
p589
I00
sa(dp590
Vto
p591
F54.3
sVconfidence
p592
F0.436
sVspeaker
p593
I0
sVfrom
p594
F54.19
sVfinal
p595
I00
sa(dp596
Vto
p597
F54.86
sVconfidence
p598
F0.41
sVspeaker
p599
I1
sVfrom
p600
F54.37
sVfinal
p601
I00
sa(dp602
Vto
p603
F56.75
sVconfidence
p604
F0.452
sVspeaker
p605
I0
sVfrom
p606
F56.62
sVfinal
p607
I00
sa(dp608
Vto
p609
F56.96
sVconfidence
p610
F0.452
sVspeaker
p611
I0
sVfrom
p612
F56.75
sVfinal
p613
I00
sa(dp614
Vto
p615
F57.13
sVconfidence
p616
F0.452
sVspeaker
p617
I0
sVfrom
p618
F56.96
sVfinal
p619
I00
sa(dp620
Vto
p621
F57.27
sVconfidence
p622
F0.452
sVspeaker
p623
I0
sVfrom
p624
F57.13
sVfinal
p625
I00
sa(dp626
Vto
p627
F58.07
sVconfidence
p628
F0.581
sVspeaker
p629
I0
sVfrom
p630
F57.93
sVfinal
p631
I00
sa(dp632
Vto
p633
F58.46
sVconfidence
p634
F0.581
sVspeaker
p635
I0
sVfrom
p636
F58.07
sVfinal
p637
I00
sa(dp638
Vto
p639
F59.22
sVconfidence
p640
F0.528
sVspeaker
p641
I0
sVfrom
p642
F58.89
sVfinal
p643
I00
sa(dp644
Vto
p645
F61.44
sVconfidence
p646
F0.471
sVspeaker
p647
I0
sVfrom
p648
F61.16
sVfinal
p649
I00
sa(dp650
Vto
p651
F62.62
sVconfidence
p652
F0.481
sVspeaker
p653
I0
sVfrom
p654
F62.13
sVfinal
p655
I00
sa(dp656
Vto
p657
F63.65
sVconfidence
p658
F0.443
sVspeaker
p659
I0
sVfrom
p660
F63.45
sVfinal
p661
I00
sa(dp662
Vto
p663
F64.07
sVconfidence
p664
F0.429
sVspeaker
p665
I0
sVfrom
p666
F63.78
sVfinal
p667
I00
sa(dp668
Vto
p669
F65.07
sVconfidence
p670
F0.481
sVspeaker
p671
I0
sVfrom
p672
F64.54
sVfinal
p673
I00
sa(dp674
Vto
p675
F66.79
sVconfidence
p676
F0.457
sVspeaker
p677
I0
sVfrom
p678
F66.21
sVfinal
p679
I00
sa(dp680
Vto
p681
F68.64
sVconfidence
p682
F0.229
sVspeaker
p683
I0
sVfrom
p684
F68.44
sVfinal
p685
I00
sa(dp686
Vto
p687
F68.92
sVconfidence
p688
F0.426
sVspeaker
p689
I1
sVfrom
p690
F68.7
sVfinal
p691
I00
sa(dp692
Vto
p693
F69.9
sVconfidence
p694
F0.405
sVspeaker
p695
I0
sVfrom
p696
F69.34
sVfinal
p697
I00
sa(dp698
Vto
p699
F71.26
sVconfidence
p700
F0.585
sVspeaker
p701
I0
sVfrom
p702
F70.93
sVfinal
p703
I00
sa(dp704
Vto
p705
F72.35
sVconfidence
p706
F0.569
sVspeaker
p707
I1
sVfrom
p708
F71.67
sVfinal
p709
I00
sa(dp710
Vto
p711
F72.7
sVconfidence
p712
F0.546
sVspeaker
p713
I1
sVfrom
p714
F72.38
sVfinal
p715
I00
sa(dp716
Vto
p717
F72.96
sVconfidence
p718
F0.546
sVspeaker
p719
I1
sVfrom
p720
F72.7
sVfinal
p721
I00
sa(dp722
Vto
p723
F73.27
sVconfidence
p724
F0.589
sVspeaker
p725
I1
sVfrom
p726
F72.99
sVfinal
p727
I00
sa(dp728
Vto
p729
F73.45
sVconfidence
p730
F0.589
sVspeaker
p731
I1
sVfrom
p732
F73.27
sVfinal
p733
I00
sa(dp734
Vto
p735
F73.69
sVconfidence
p736
F0.589
sVspeaker
p737
I1
sVfrom
p738
F73.45
sVfinal
p739
I00
sa(dp740
Vto
p741
F74.0
sVconfidence
p742
F0.556
sVspeaker
p743
I1
sVfrom
p744
F73.73
sVfinal
p745
I00
sa(dp746
Vto
p747
F74.27
sVconfidence
p748
F0.556
sVspeaker
p749
I1
sVfrom
p750
F74.0
sVfinal
p751
I00
sa(dp752
Vto
p753
F74.93
sVconfidence
p754
F0.556
sVspeaker
p755
I1
sVfrom
p756
F74.27
sVfinal
p757
I00
sa(dp758
Vto
p759
F75.43
sVconfidence
p760
F0.565
sVspeaker
p761
I1
sVfrom
p762
F75.16
sVfinal
p763
I00
sa(dp764
Vto
p765
F76.3
sVconfidence
p766
F0.586
sVspeaker
p767
I1
sVfrom
p768
F75.73
sVfinal
p769
I00
sa(dp770
Vto
p771
F76.82
sVconfidence
p772
F0.539
sVspeaker
p773
I0
sVfrom
p774
F76.34
sVfinal
p775
I00
sa(dp776
Vto
p777
F77.61
sVconfidence
p778
F0.507
sVspeaker
p779
I0
sVfrom
p780
F77.4
sVfinal
p781
I00
sa(dp782
Vto
p783
F77.85
sVconfidence
p784
F0.507
sVspeaker
p785
I0
sVfrom
p786
F77.61
sVfinal
p787
I00
sa(dp788
Vto
p789
F78.11
sVconfidence
p790
F0.507
sVspeaker
p791
I0
sVfrom
p792
F77.85
sVfinal
p793
I00
sa(dp794
Vto
p795
F78.46
sVconfidence
p796
F0.43
sVspeaker
p797
I0
sVfrom
p798
F78.28
sVfinal
p799
I00
sa(dp800
Vto
p801
F79.83
sVconfidence
p802
F0.369
sVspeaker
p803
I0
sVfrom
p804
F79.06
sVfinal
p805
I00
sa(dp806
Vto
p807
F80.81
sVconfidence
p808
F0.575
sVspeaker
p809
I1
sVfrom
p810
F80.71
sVfinal
p811
I00
sa(dp812
Vto
p813
F80.95
sVconfidence
p814
F0.575
sVspeaker
p815
I1
sVfrom
p816
F80.81
sVfinal
p817
I00
sa(dp818
Vto
p819
F81.09
sVconfidence
p820
F0.575
sVspeaker
p821
I1
sVfrom
p822
F80.95
sVfinal
p823
I00
sa(dp824
Vto
p825
F81.47
sVconfidence
p826
F0.575
sVspeaker
p827
I1
sVfrom
p828
F81.09
sVfinal
p829
I00
sa(dp830
Vto
p831
F81.83
sVconfidence
p832
F0.575
sVspeaker
p833
I1
sVfrom
p834
F81.47
sVfinal
p835
I00
sa(dp836
Vto
p837
F83.36
sVconfidence
p838
F0.599
sVspeaker
p839
I1
sVfrom
p840
F82.42
sVfinal
p841
I00
sa(dp842
Vto
p843
F85.93
sVconfidence
p844
F0.497
sVspeaker
p845
I1
sVfrom
p846
F85.81
sVfinal
p847
I00
sa(dp848
Vto
p849
F86.27
sVconfidence
p850
F0.497
sVspeaker
p851
I1
sVfrom
p852
F85.93
sVfinal
p853
I00
sa(dp854
Vto
p855
F86.54
sVconfidence
p856
F0.497
sVspeaker
p857
I1
sVfrom
p858
F86.27
sVfinal
p859
I00
sa(dp860
Vto
p861
F88.24
sVconfidence
p862
F0.443
sVspeaker
p863
I1
sVfrom
p864
F87.86
sVfinal
p865
I00
sa(dp866
Vto
p867
F88.42
sVconfidence
p868
F0.443
sVspeaker
p869
I1
sVfrom
p870
F88.24
sVfinal
p871
I00
sa(dp872
Vto
p873
F89.36
sVconfidence
p874
F0.587
sVspeaker
p875
I1
sVfrom
p876
F89.09
sVfinal
p877
I00
sa(dp878
Vto
p879
F89.72
sVconfidence
p880
F0.596
sVspeaker
p881
I1
sVfrom
p882
F89.4
sVfinal
p883
I00
sa(dp884
Vto
p885
F89.92
sVconfidence
p886
F0.596
sVspeaker
p887
I1
sVfrom
p888
F89.72
sVfinal
p889
I01
sas.