(dp0
Vresults
p1
(lp2
(dp3
Valternatives
p4
(lp5
(dp6
Vtimestamps
p7
(lp8
(lp9
V%HESITATION
p10
aF0.92
aF1.21
aasVconfidence
p11
F0.573
sVtranscript
p12
V%HESITATION 
p13
sasVfinal
p14
I01
sa(dp15
Valternatives
p16
(lp17
(dp18
Vtimestamps
p19
(lp20
(lp21
VI
p22
aF2.55
aF2.58
aa(lp23
Vwould
p24
aF2.79
aF2.97
aa(lp25
Vlike
p26
aF2.97
aF3.16
aa(lp27
Vto
p28
aF3.2
aF3.26
aa(lp29
Vthink
p30
aF3.26
aF3.45
aa(lp31
Vof
p32
aF3.45
aF3.54
aa(lp33
Vthings
p34
aF3.54
aF3.92
aa(lp35
Vand
p36
aF4.33
aF4.62
aa(lp37
V%HESITATION
p38
aF4.98
aF5.44
aa(lp39
Vyou
p40
aF9.56
aF9.7
aa(lp41
Vreally
p42
aF9.7
aF9.97
aa(lp43
Vdo
p44
aF9.97
aF10.11
aa(lp45
Vyou
p46
aF11.63
aF11.82
aa(lp47
Vreally
p48
aF11.82
aF12.09
aa(lp49
Vdo
p50
aF12.09
aF12.29
aa(lp51
Vdeserve
p52
aF12.29
aF12.64
aa(lp53
Vthat
p54
aF12.64
aF12.92
aa(lp55
VColin
p56
aF13.17
aF13.51
aa(lp57
g22
aF13.51
aF13.64
aa(lp58
Vhad
p59
aF13.64
aF13.85
aa(lp60
Vdiscussed
p61
aF14.24
aF14.91
aa(lp62
Vand
p63
aF14.95
aF15.46
aa(lp64
VItaly
p65
aF15.49
aF15.81
aa(lp66
Vyeah
p67
aF15.81
aF16.16
aa(lp68
Vif
p69
aF16.34
aF16.51
aa(lp70
Vwe
p71
aF16.54
aF17.08
aa(lp72
Vfor
p73
aF18.34
aF18.5
aa(lp74
Vsome
p75
aF18.5
aF18.7
aa(lp76
Vreason
p77
aF18.7
aF19.24
aa(lp78
Vdoes
p79
aF19.27
aF19.5
aa(lp80
Vone
p81
aF19.5
aF19.87
aa(lp82
Vand
p83
aF20.22
aF20.94
aa(lp84
Vfound
p85
aF20.98
aF21.3
aa(lp86
Vthat
p87
aF21.3
aF21.45
aa(lp88
Vthere
p89
aF21.45
aF21.56
aa(lp90
Vwas
p91
aF21.56
aF21.8
aa(lp92
Va
p93
aF21.8
aF21.97
aa(lp94
Vfellow
p95
aF22.04
aF22.57
aa(lp96
Vcontestant
p97
aF22.71
aF23.31
aa(lp98
Vor
p99
aF23.31
aF23.49
aa(lp100
Vteam
p101
aF23.66
aF24.02
aa(lp102
Vthat
p103
aF24.02
aF24.25
aa(lp104
Vdoesn't
p105
aF24.25
aF24.54
aa(lp106
Vwin
p107
aF24.54
aF24.7
aa(lp108
Vas
p109
aF24.7
aF24.86
aa(lp110
Vmuch
p111
aF24.86
aF25.22
aa(lp112
Vwe
p113
aF25.22
aF25.38
aa(lp114
Vwould
p115
aF25.38
aF25.56
aa(lp116
Vdefinitely
p117
aF25.56
aF26.08
aa(lp118
Vbe
p119
aF26.08
aF26.52
aa(lp120
Vgiving
p121
aF26.77
aF27.08
aa(lp122
Vmoney
p123
aF27.08
aF27.6
aa(lp124
Vto
p125
aF27.65
aF27.79
aa(lp126
Vthe
p127
aF27.79
aF27.93
aa(lp128
Vend
p129
aF27.93
aF28.17
aa(lp130
Vbecause
p131
aF28.17
aF28.35
aa(lp132
Vwe
p133
aF28.35
aF28.47
aa(lp134
Vjust
p135
aF28.47
aF28.93
aa(lp136
Vwe
p137
aF29.33
aF29.48
aa(lp138
Vdidn't
p139
aF29.48
aF29.68
aa(lp140
Vthing
p141
aF29.68
aF29.81
aa(lp142
Vwas
p143
aF29.81
aF30.06
aa(lp144
Vit
p145
aF30.11
aF30.42
aa(lp146
Vgiven
p147
aF30.42
aF30.81
aa(lp148
Vthe
p149
aF31.05
aF31.18
aa(lp150
Vamount
p151
aF31.18
aF31.52
aa(lp152
Vof
p153
aF31.55
aF32.02
aa(lp154
V%HESITATION
p155
aF32.05
aF32.64
aasVconfidence
p156
F0.763
sVtranscript
p157
VI would like to think of things and %HESITATION you really do you really do deserve that Colin I had discussed and Italy yeah if we for some reason does one and found that there was a fellow contestant or team that doesn't win as much we would definitely be giving money to the end because we just we didn't thing was it given the amount of %HESITATION 
p158
sasVfinal
p159
I01
sa(dp160
Valternatives
p161
(lp162
(dp163
Vtimestamps
p164
(lp165
(lp166
Vtime
p167
aF33.61
aF33.9
aa(lp168
Vand
p169
aF33.9
aF34.01
aa(lp170
Vthey
p171
aF34.01
aF34.11
aa(lp172
Vfavor
p173
aF34.11
aF34.59
aa(lp174
Von
p175
aF34.59
aF34.71
aa(lp176
g93
aF34.71
aF34.81
aa(lp177
Vput
p178
aF34.81
aF35.02
aa(lp179
Von
p180
aF35.02
aF35.21
aa(lp181
Vwhich
p182
aF35.21
aF35.4
aa(lp183
Vwas
p184
aF35.4
aF35.56
aa(lp185
Vquite
p186
aF35.56
aF35.77
aa(lp187
g93
aF35.8
aF35.91
aa(lp188
Vquote
p189
aF35.91
aF36.41
aa(lp190
Vand
p191
aF36.68
aF36.98
aa(lp192
Vthe
p193
aF37.07
aF37.3
aa(lp194
Vrisk
p195
aF37.3
aF37.71
aa(lp196
Vand
p197
aF37.71
aF38.12
aa(lp198
V%HESITATION
p199
aF38.15
aF38.45
aa(lp200
Vwhat
p201
aF38.45
aF38.61
aa(lp202
Vthat
p203
aF38.61
aF38.83
aa(lp204
Vhad
p205
aF38.83
aF39.02
aa(lp206
Vto
p207
aF39.02
aF39.25
aa(lp208
Vgive
p209
aF39.37
aF39.58
aa(lp210
Vup
p211
aF39.58
aF39.86
aa(lp212
Vto
p213
aF39.86
aF39.99
aa(lp214
Vgo
p215
aF39.99
aF40.1
aa(lp216
Von
p217
aF40.1
aF40.2
aa(lp218
Vthe
p219
aF40.2
aF40.28
aa(lp220
Vblock
p221
aF40.28
aF40.79
aa(lp222
Vwe
p223
aF40.91
aF41.15
aa(lp224
Vhad
p225
aF41.15
aF41.39
aa(lp226
Vand
p227
aF41.39
aF41.56
aa(lp228
Vwe
p229
aF41.56
aF41.66
aa(lp230
Vdidn't
p231
aF41.66
aF41.94
aa(lp232
Vwe
p233
aF42.06
aF42.2
aa(lp234
Vjust
p235
aF42.2
aF42.34
aa(lp236
Vthat
p237
aF42.37
aF42.5
aa(lp238
Vwe
p239
aF42.5
aF42.64
aa(lp240
Vdiscussed
p241
aF42.64
aF43.14
aa(lp242
Vthe
p243
aF43.14
aF43.23
aa(lp244
Vflights
p245
aF43.23
aF43.8
aa(lp246
Vof
p247
aF44.24
aF44.44
aa(lp248
Vwhile
p249
aF44.44
aF44.91
aa(lp250
g22
aF44.91
aF45.1
aa(lp251
Vages
p252
aF45.1
aF45.38
aa(lp253
Vago
p254
aF45.38
aF45.63
aa(lp255
Vand
p256
aF45.63
aF45.95
aa(lp257
Vthen
p258
aF45.95
aF46.09
aa(lp259
Von
p260
aF46.09
aF46.3
aa(lp261
Vwe
p262
aF46.33
aF46.53
aa(lp263
Vwe
p264
aF46.53
aF46.74
aa(lp265
Vten
p266
aF47.13
aF47.46
aa(lp267
Vgrand
p268
aF47.46
aF48.06
aa(lp269
Vfor
p270
aF48.11
aF48.26
aa(lp271
VH.
p272
aF48.26
aF48.57
aa(lp273
Vthe
p274
aF48.57
aF48.76
aa(lp275
Vtank
p276
aF48.76
aF49.13
aa(lp277
Vis
p278
aF49.18
aF49.28
aa(lp279
Vprobably
p280
aF49.28
aF49.54
aa(lp281
Vlike
p282
aF49.54
aF49.76
aa(lp283
g93
aF49.76
aF49.9
aa(lp284
Vmonth
p285
aF50.16
aF50.75
aa(lp286
Vand
p287
aF50.75
aF50.84
aa(lp288
g93
aF50.84
aF50.87
aa(lp289
Vhalf
p290
aF50.87
aF51.1
aa(lp291
Vago
p292
aF51.1
aF51.27
aa(lp293
Valso
p294
aF51.27
aF51.51
aa(lp295
Vonly
p296
aF51.51
aF51.73
aa(lp297
Vwhen
p298
aF51.73
aF51.94
aa(lp299
Vand
p300
aF51.94
aF52.16
aa(lp301
Vit
p302
aF52.19
aF52.29
aa(lp303
Vjust
p304
aF52.29
aF52.51
aa(lp305
Von
p306
aF52.51
aF52.59
aa(lp307
Vthe
p308
aF52.59
aF52.68
aa(lp309
Vno
p310
aF52.68
aF52.82
aa(lp311
g22
aF52.82
aF52.93
aa(lp312
Vwill
p313
aF52.93
aF53.06
aa(lp314
Vnot
p315
aF53.06
aF53.22
aa(lp316
Vonly
p317
aF53.22
aF53.49
aa(lp318
Vin
p319
aF53.49
aF53.55
aa(lp320
Vthis
p321
aF53.55
aF53.67
aa(lp322
Vis
p323
aF53.67
aF53.78
aa(lp324
Vhappening
p325
aF53.78
aF54.14
aa(lp326
Vsh
p327
aF54.14
aF54.32
aa(lp328
VM.
p329
aF54.32
aF54.53
aa(lp330
Vall
p331
aF54.53
aF54.72
aa(lp332
Vthis
p333
aF54.72
aF54.9
aa(lp334
Vwith
p335
aF54.9
aF55.16
aa(lp336
Vanother
p337
aF55.16
aF55.43
aa(lp338
Vissue
p339
aF55.46
aF55.81
aa(lp340
Vwe
p341
aF55.81
aF56.03
aa(lp342
Vdo
p343
aF56.33
aF56.5
aa(lp344
Vsomething
p345
aF56.5
aF56.78
aa(lp346
Vabout
p347
aF56.78
aF57.04
aa(lp348
Vit
p349
aF57.04
aF57.12
aa(lp350
Vand
p351
aF57.12
aF57.27
aa(lp352
Vwe
p353
aF57.27
aF57.37
aa(lp354
Vjust
p355
aF57.37
aF57.61
aa(lp356
Vand
p357
aF57.64
aF57.78
aa(lp358
Vthen
p359
aF57.78
aF57.9
aa(lp360
Vit
p361
aF57.9
aF57.98
aa(lp362
Vjust
p363
aF57.98
aF58.16
aa(lp364
Vhappened
p365
aF58.16
aF58.52
aa(lp366
Vit
p367
aF58.55
aF58.63
aa(lp368
Vwas
p369
aF58.63
aF58.72
aa(lp370
Vjust
p371
aF58.72
aF58.9
aa(lp372
Vthat
p373
aF58.9
aF59.13
aa(lp374
Vjust
p375
aF59.28
aF59.57
aa(lp376
Vwith
p377
aF59.82
aF60.06
aa(lp378
Vthose
p379
aF60.06
aF60.44
aa(lp380
Vyeah
p381
aF60.76
aF61.16
aa(lp382
Vyou've
p383
aF61.93
aF62.11
aa(lp384
Vgot
p385
aF62.11
aF62.22
aa(lp386
Vto
p387
aF62.22
aF62.28
aa(lp388
Vdo
p389
aF62.28
aF62.42
aa(lp390
Vis
p391
aF62.42
aF62.55
aa(lp392
Vasking
p393
aF62.55
aF62.92
aa(lp394
g93
aF62.92
aF62.96
aa(lp395
Vmillion
p396
aF62.96
aF63.24
aa(lp397
Vone
p398
aF63.24
aF63.39
aa(lp399
Vhundred
p400
aF63.39
aF63.66
aa(lp401
Vand
p402
aF64.02
aF64.15
aa(lp403
Vfifty
p404
aF64.15
aF64.53
aa(lp405
Von
p406
aF64.53
aF64.72
aa(lp407
Vyour
p408
aF64.72
aF64.88
aa(lp409
Vbehalf
p410
aF64.88
aF65.44
aa(lp411
g22
aF65.47
aF65.59
aa(lp412
Vwas
p413
aF65.59
aF65.75
aa(lp414
Vdefinitely
p415
aF65.75
aF66.07
aa(lp416
Vnervous
p417
aF66.07
aF66.54
aa(lp418
Vbefore
p419
aF66.54
aF67.11
aa(lp420
Vfinding
p421
aF67.11
aF67.51
aa(lp422
Vout
p423
aF67.51
aF67.73
aa(lp424
Vthe
p425
aF67.73
aF68.14
aa(lp426
Voptional
p427
aF68.17
aF68.68
aa(lp428
Vthat
p429
aF68.68
aF68.97
aa(lp430
Vthat
p431
aF69.0
aF69.38
aa(lp432
Vthat
p433
aF69.66
aF69.9
aa(lp434
Vwas
p435
aF69.93
aF70.17
aa(lp436
Vmaking
p437
aF70.5
aF70.83
aa(lp438
Vme
p439
aF70.83
aF70.94
aa(lp440
Vreally
p441
aF70.94
aF71.17
aa(lp442
Vnervous
p443
aF71.17
aF71.47
aa(lp444
Vbut
p445
aF71.47
aF71.67
aa(lp446
Vin
p447
aF71.7
aF71.83
aa(lp448
Vthe
p449
aF71.83
aF71.94
aa(lp450
Vactual
p451
aF71.94
aF72.25
aa(lp452
Vauction
p453
aF72.25
aF72.57
aa(lp454
Vitself
p455
aF72.57
aF73.14
aasVconfidence
p456
F0.698
sVtranscript
p457
Vtime and they favor on a put on which was quite a quote and the risk and %HESITATION what that had to give up to go on the block we had and we didn't we just that we discussed the flights of while I ages ago and then on we we ten grand for H. the tank is probably like a month and a half ago also only when and it just on the no I will not only in this is happening sh M. all this with another issue we do something about it and we just and then it just happened it was just that just with those yeah you've got to do is asking a million one hundred and fifty on your behalf I was definitely nervous before finding out the optional that that that was making me really nervous but in the actual auction itself 
p458
sasVfinal
p459
I01
sa(dp460
Valternatives
p461
(lp462
(dp463
Vtimestamps
p464
(lp465
(lp466
g22
aF73.64
aF73.73
aa(lp467
Vgot
p468
aF73.73
aF73.96
aa(lp469
Vreally
p470
aF73.96
aF74.38
aa(lp471
Vnerve
p472
aF74.38
aF74.66
aa(lp473
Vwracking
p474
aF74.66
aF74.96
aa(lp475
Vwhen
p476
aF74.96
aF75.09
aa(lp477
Vyou
p478
aF75.09
aF75.19
aa(lp479
Vcould
p480
aF75.19
aF75.35
aa(lp481
Vhit
p482
aF75.35
aF75.76
aa(lp483
Vthat
p484
aF76.14
aF76.32
aa(lp485
Vis
p486
aF76.32
aF76.63
aa(lp487
Von
p488
aF76.84
aF77.0
aa(lp489
Vtop
p490
aF77.0
aF77.18
aa(lp491
Vof
p492
aF77.18
aF77.31
aa(lp493
Veach
p494
aF77.31
aF77.47
aa(lp495
Vother
p496
aF77.47
aF77.68
aa(lp497
Vyou
p498
aF77.9
aF78.06
aa(lp499
Vknow
p500
aF78.06
aF78.19
aa(lp501
Vit
p502
aF78.19
aF78.35
aa(lp503
Vwould
p504
aF78.35
aF78.63
aa(lp505
Vguide
p506
aF78.63
aF79.07
aa(lp507
Vyou
p508
aF79.75
aF79.95
aa(lp509
Vfrom
p510
aF79.98
aF80.25
aa(lp511
g93
aF80.25
aF80.31
aa(lp512
Vfifty
p513
aF80.31
aF80.73
aa(lp514
Vthousand
p515
aF80.73
aF81.12
aa(lp516
Vdollar
p517
aF81.12
aF81.34
aa(lp518
Vbed
p519
aF81.34
aF81.61
aa(lp520
Vto
p521
aF81.61
aF81.76
aa(lp522
Vanother
p523
aF81.76
aF82.05
aa(lp524
Vfifty
p525
aF82.05
aF82.32
aa(lp526
Vthousand
p527
aF82.32
aF82.73
aa(lp528
Vold
p529
aF82.73
aF82.9
aa(lp530
Vbut
p531
aF82.9
aF83.08
aa(lp532
Vto
p533
aF83.08
aF83.21
aa(lp534
Vanother
p535
aF83.21
aF83.62
aa(lp536
Vtwenty
p537
aF83.95
aF84.23
aa(lp538
Vfive
p539
aF84.23
aF84.48
aa(lp540
Vthousand
p541
aF84.48
aF84.8
aa(lp542
Vall
p543
aF84.8
aF84.93
aa(lp544
Vthat
p545
aF84.93
aF85.12
aa(lp546
Vwhat
p547
aF85.12
aF85.32
aa(lp548
Vevent
p549
aF85.32
aF85.57
aa(lp550
Vthat
p551
aF85.76
aF85.91
aa(lp552
Vjust
p553
aF85.91
aF86.11
aa(lp554
Vhappened
p555
aF86.11
aF86.44
aa(lp556
Vso
p557
aF86.44
aF86.66
aa(lp558
Vfast
p559
aF86.72
aF87.16
aa(lp560
Vin
p561
aF87.16
aF87.24
aa(lp562
Vmy
p563
aF87.24
aF87.46
aasVconfidence
p564
F0.797
sVtranscript
p565
VI got really nerve wracking when you could hit that is on top of each other you know it would guide you from a fifty thousand dollar bed to another fifty thousand old but to another twenty five thousand all that what event that just happened so fast in my 
p566
sasVfinal
p567
I01
sa(dp568
Valternatives
p569
(lp570
(dp571
Vtimestamps
p572
(lp573
(lp574
Vmy
p575
aF88.23
aF88.36
aa(lp576
Vhot
p577
aF88.36
aF88.68
aa(lp578
Vskin
p579
aF88.68
aF89.15
aasVconfidence
p580
F0.285
sVtranscript
p581
Vmy hot skin 
p582
sasVfinal
p583
I01
sa(dp584
Valternatives
p585
(lp586
(dp587
Vtimestamps
p588
(lp589
(lp590
Vthen
p591
aF90.51
aF90.63
aa(lp592
Vone
p593
aF90.63
aF90.83
aa(lp594
Vday
p595
aF91.06
aF91.2
aa(lp596
g22
aF91.2
aF91.32
aa(lp597
Vhad
p598
aF91.32
aF91.76
aa(lp599
Vone
p600
aF91.76
aF92.02
aasVconfidence
p601
F0.668
sVtranscript
p602
Vthen one day I had one 
p603
sasVfinal
p604
I01
sa(dp605
Valternatives
p606
(lp607
(dp608
Vtimestamps
p609
(lp610
(lp611
g93
aF93.4
aF93.43
aa(lp612
Vlot
p613
aF93.43
aF93.61
aa(lp614
Vof
p615
aF93.61
aF93.67
aa(lp616
Vrain
p617
aF93.99
aF94.25
aasVconfidence
p618
F0.621
sVtranscript
p619
Va lot of rain 
p620
sasVfinal
p621
I01
sa(dp622
Valternatives
p623
(lp624
(dp625
Vtimestamps
p626
(lp627
(lp628
Vright
p629
aF98.88
aF99.08
aa(lp630
Vfrom
p631
aF99.08
aF99.22
aa(lp632
Vwhen
p633
aF99.22
aF99.41
aa(lp634
Vwe
p635
aF99.41
aF99.76
aa(lp636
Vgot
p637
aF99.85
aF100.13
aa(lp638
Vthat
p639
aF100.13
aF100.31
aa(lp640
Vturned
p641
aF100.31
aF100.56
aa(lp642
Vin
p643
aF100.56
aF100.66
aa(lp644
Vtwenty
p645
aF100.66
aF100.92
aa(lp646
Vseven
p647
aF100.92
aF101.14
aa(lp648
Vthousand
p649
aF101.14
aF101.53
aa(lp650
Vwith
p651
aF101.53
aF101.67
aa(lp652
g93
aF101.67
aF101.72
aa(lp653
Vlight
p654
aF101.72
aF102.0
aa(lp655
Vthat
p656
aF102.31
aF102.7
aa(lp657
Vis
p658
aF102.7
aF102.85
aa(lp659
Vyour
p660
aF102.85
aF103.05
aa(lp661
Vwish
p662
aF103.08
aF103.39
aa(lp663
g22
aF103.39
aF103.48
aa(lp664
Vhad
p665
aF103.48
aF103.65
aa(lp666
Vthat
p667
aF103.81
aF104.0
aa(lp668
Vthe
p669
aF104.03
aF104.25
aa(lp670
VIT
p671
aF104.28
aF104.58
aa(lp672
Vthousand
p673
aF104.58
aF105.03
aa(lp674
Vall
p675
aF105.03
aF105.15
aa(lp676
Vof
p677
aF105.15
aF105.37
aa(lp678
Vthe
p679
aF105.37
aF105.46
aa(lp680
Vrelevant
p681
aF105.46
aF105.85
aa(lp682
Vthat
p683
aF105.85
aF106.0
aa(lp684
Vone
p685
aF106.06
aF106.23
aa(lp686
Vside
p687
aF106.23
aF106.56
aa(lp688
Vas
p689
aF106.84
aF107.03
aa(lp690
Vhe
p691
aF107.03
aF107.14
aa(lp692
Vruns
p693
aF107.14
aF107.46
aa(lp694
Vmoney
p695
aF107.46
aF107.77
aa(lp696
Vkeeps
p697
aF107.77
aF108.06
aa(lp698
Vgoing
p699
aF108.3
aF108.7
aa(lp700
Vup
p701
aF108.7
aF108.87
aa(lp702
Vwas
p703
aF108.87
aF109.02
aa(lp704
g93
aF109.02
aF109.08
aa(lp705
Vbit
p706
aF109.08
aF109.24
aa(lp707
Vhere
p708
aF109.24
aF109.57
aa(lp709
Vgoing
p710
aF109.72
aF109.95
aa(lp711
Vhighway
p712
aF109.95
aF110.35
aa(lp713
Vwith
p714
aF110.35
aF110.47
aa(lp715
Vthis
p716
aF110.47
aF110.64
aa(lp717
Vyear
p718
aF110.64
aF110.82
aa(lp719
Vin
p720
aF110.82
aF110.89
aa(lp721
Vthe
p722
aF110.89
aF110.95
aa(lp723
Vmall
p724
aF110.95
aF111.18
aa(lp725
Vand
p726
aF111.21
aF111.63
aa(lp727
Vjust
p728
aF111.77
aF111.98
aa(lp729
Vhoping
p730
aF112.12
aF112.64
aa(lp731
Vfor
p732
aF112.64
aF112.76
aa(lp733
Vthe
p734
aF112.76
aF112.84
aa(lp735
Vbest
p736
aF112.84
aF113.1
aa(lp737
Vbut
p738
aF113.1
aF113.54
aa(lp739
Veveryone
p740
aF113.71
aF114.18
aa(lp741
Vyeah
p742
aF114.24
aF114.77
aa(lp743
Vcold
p744
aF114.9
aF115.19
aa(lp745
Vand
p746
aF115.19
aF115.44
aa(lp747
g22
aF115.44
aF115.53
aa(lp748
Vspent
p749
aF115.53
aF115.85
aa(lp750
g93
aF115.85
aF115.92
aa(lp751
Vlot
p752
aF115.92
aF116.06
aa(lp753
Vof
p754
aF116.06
aF116.14
aa(lp755
Vtime
p756
aF116.14
aF116.35
aa(lp757
Vbefore
p758
aF116.35
aF116.72
aa(lp759
Vwe
p760
aF116.72
aF116.92
aa(lp761
Vwent
p762
aF116.92
aF117.14
aa(lp763
Von
p764
aF117.17
aF117.3
aa(lp765
Vthe
p766
aF117.3
aF117.39
aa(lp767
Vblock
p768
aF117.39
aF117.79
aa(lp769
Vto
p770
aF117.82
aF118.27
aa(lp771
Vfigure
p772
aF118.52
aF118.79
aa(lp773
Vout
p774
aF118.79
aF119.14
aa(lp775
Vexactly
p776
aF119.21
aF119.72
aa(lp777
Vwhat
p778
aF119.72
aF119.88
aa(lp779
Vwe
p780
aF119.88
aF120.0
aa(lp781
Vlacked
p782
aF120.0
aF120.38
aa(lp783
Vwas
p784
aF120.72
aF120.95
aa(lp785
Vthe
p786
aF120.95
aF121.05
aa(lp787
Vdesign
p788
aF121.05
aF121.61
aa(lp789
V%HESITATION
p790
aF122.0
aF122.61
aa(lp791
Vwait
p792
aF123.06
aF123.75
aa(lp793
g22
aF123.75
aF123.8
aa(lp794
Vspend
p795
aF123.8
aF124.05
aa(lp796
g93
aF124.05
aF124.11
aa(lp797
Vlot
p798
aF124.11
aF124.26
aa(lp799
Vof
p800
aF124.26
aF124.35
aa(lp801
Vtime
p802
aF124.35
aF124.82
aa(lp803
Vresearching
p804
aF125.29
aF125.99
aa(lp805
Vlocal
p806
aF126.02
aF126.93
aa(lp807
Vsupplies
p808
aF126.96
aF127.64
aa(lp809
Vas
p810
aF127.67
aF127.84
aa(lp811
Vwell
p812
aF127.84
aF128.19
aa(lp813
Vso
p814
aF128.55
aF128.99
aa(lp815
Vwhen
p816
aF129.02
aF129.33
aa(lp817
g22
aF129.33
aF129.42
aa(lp818
Vgot
p819
aF129.42
aF129.75
aa(lp820
Vto
p821
aF129.78
aF130.05
aa(lp822
Vsit
p823
aF130.05
aF130.22
aa(lp824
Vin
p825
aF130.22
aF130.28
aa(lp826
Vrooms
p827
aF130.28
aF130.77
aa(lp828
Vthose
p829
aF130.77
aF131.11
aa(lp830
Vand
p831
aF131.11
aF131.3
aa(lp832
Vwait
p833
aF131.3
aF131.51
aa(lp834
Vfor
p835
aF131.51
aF131.74
aa(lp836
Vthings
p837
aF131.8
aF132.13
aa(lp838
Vthat
p839
aF132.13
aF132.23
aa(lp840
Vwe
p841
aF132.23
aF132.35
aa(lp842
Vwanted
p843
aF132.35
aF132.6
aa(lp844
Vto
p845
aF132.6
aF132.73
aa(lp846
Vdie
p847
aF132.73
aF132.98
aa(lp848
g22
aF132.98
aF133.14
aa(lp849
Vnearly
p850
aF133.14
aF133.69
aa(lp851
Vin
p852
aF134.01
aF134.2
aa(lp853
Vunion
p854
aF134.2
aF134.69
aa(lp855
Vwho
p856
aF134.86
aF135.21
aa(lp857
Vjust
p858
aF135.21
aF135.5
aa(lp859
Vheard
p860
aF135.53
aF135.77
aa(lp861
g93
aF135.77
aF135.81
aa(lp862
Vcold
p863
aF135.81
aF136.11
aa(lp864
Vto
p865
aF136.11
aF136.19
aa(lp866
Vget
p867
aF136.19
aF136.4
aa(lp868
Vsince
p869
aF136.4
aF136.71
aa(lp870
V%HESITATION
p871
aF137.25
aF137.63
aa(lp872
g22
aF137.63
aF137.77
aa(lp873
Vthink
p874
aF137.77
aF138.09
aa(lp875
Vthe
p876
aF138.09
aF138.23
aa(lp877
Vcommon
p878
aF138.23
aF138.53
aa(lp879
Vmisconception
p880
aF138.53
aF139.17
aa(lp881
Vis
p882
aF139.17
aF139.41
aa(lp883
Vthat
p884
aF139.41
aF139.61
aa(lp885
Vpeople
p886
aF139.61
aF139.86
aa(lp887
Vthink
p888
aF139.86
aF140.07
aa(lp889
Vwe're
p890
aF140.1
aF140.33
aa(lp891
Vprofessionals
p892
aF140.33
aF141.04
aa(lp893
V%HESITATION
p894
aF141.28
aF141.81
aa(lp895
Vbut
p896
aF141.84
aF141.98
aa(lp897
Vthe
p898
aF141.98
aF142.06
aa(lp899
Vother
p900
aF142.06
aF142.26
aa(lp901
Vthing
p902
aF142.26
aF142.45
aa(lp903
Vis
p904
aF142.45
aF142.59
aa(lp905
Vdoes
p906
aF142.59
aF142.95
aa(lp907
Vit
p908
aF142.95
aF143.1
aa(lp909
Vsay
p910
aF143.1
aF143.57
aa(lp911
Vthat
p912
aF143.98
aF144.1
aa(lp913
Vthe
p914
aF144.1
aF144.19
aa(lp915
Vcompetition
p916
aF144.19
aF144.92
aa(lp917
Vand
p918
aF144.92
aF145.48
aa(lp919
Von
p920
aF145.51
aF145.67
aa(lp921
Vother
p922
aF145.67
aF145.87
aa(lp923
Vpurchases
p924
aF145.87
aF146.41
aa(lp925
Vthey
p926
aF146.41
aF146.59
aa(lp927
Vbring
p928
aF146.59
aF146.87
aa(lp929
Vtheir
p930
aF146.87
aF147.06
aa(lp931
Vbase
p932
aF147.06
aF147.32
aa(lp933
Vpeople
p934
aF147.32
aF147.96
aa(lp935
VFord
p936
aF148.3
aF148.71
aa(lp937
Vfull
p938
aF148.71
aF148.99
aa(lp939
Vcompetition
p940
aF148.99
aF149.61
aa(lp941
Vsite
p942
aF149.64
aF150.08
aa(lp943
V%HESITATION
p944
aF150.51
aF150.85
aa(lp945
Vbut
p946
aF150.85
aF151.03
aa(lp947
Vthey
p948
aF151.29
aF151.41
aa(lp949
Vwill
p950
aF151.41
aF151.6
aa(lp951
Vhave
p952
aF151.6
aF151.74
aa(lp953
Vgone
p954
aF151.74
aF152.0
aa(lp955
Von
p956
aF152.0
aF152.21
aa(lp957
Vin
p958
aF152.21
aF152.29
aa(lp959
Vbass
p960
aF152.29
aF152.71
aa(lp961
Vhaving
p962
aF152.71
aF153.16
aa(lp963
Vand
p964
aF153.21
aF153.54
aa(lp965
Vthe
p966
aF153.57
aF153.74
aa(lp967
Vproperty
p968
aF153.78
aF154.49
aa(lp969
Vportfolios
p970
aF154.68
aF155.63
aa(lp971
Vand
p972
aF155.63
aF156.0
aasVconfidence
p973
F0.717
sVtranscript
p974
Vright from when we got that turned in twenty seven thousand with a light that is your wish I had that the IT thousand all of the relevant that one side as he runs money keeps going up was a bit here going highway with this year in the mall and just hoping for the best but everyone yeah cold and I spent a lot of time before we went on the block to figure out exactly what we lacked was the design %HESITATION wait I spend a lot of time researching local supplies as well so when I got to sit in rooms those and wait for things that we wanted to die I nearly in union who just heard a cold to get since %HESITATION I think the common misconception is that people think we're professionals %HESITATION but the other thing is does it say that the competition and on other purchases they bring their base people Ford full competition site %HESITATION but they will have gone on in bass having and the property portfolios and 
p975
sasVfinal
p976
I01
sa(dp977
Valternatives
p978
(lp979
(dp980
Vtimestamps
p981
(lp982
(lp983
Vwell
p984
aF157.38
aF157.55
aa(lp985
Vthe
p986
aF157.73
aF158.0
aa(lp987
Vgoal
p988
aF158.33
aF158.5
aa(lp989
Vwhen
p990
aF158.5
aF158.68
aa(lp991
Vonce
p992
aF158.68
aF159.0
aa(lp993
Vthough
p994
aF159.0
aF159.16
aa(lp995
Vto
p996
aF159.16
aF159.34
aa(lp997
Vhouse
p998
aF159.34
aF159.77
aa(lp999
Vthat
p1000
aF159.82
aF160.05
aa(lp1001
Vtook
p1002
aF160.05
aF160.23
aa(lp1003
Vfour
p1004
aF160.23
aF160.5
aa(lp1005
Vyears
p1006
aF160.5
aF160.77
aa(lp1007
Vto
p1008
aF160.77
aF160.89
aa(lp1009
Vbuild
p1010
aF160.89
aF161.42
aa(lp1011
V%HESITATION
p1012
aF161.81
aF162.18
aa(lp1013
Vand
p1014
aF162.18
aF162.43
aa(lp1015
Vthen
p1016
aF162.43
aF162.55
aa(lp1017
Vwe
p1018
aF162.55
aF162.68
aa(lp1019
Vsold
p1020
aF162.68
aF162.96
aa(lp1021
Vat
p1022
aF162.96
aF163.17
aa(lp1023
Vour
p1024
aF164.28
aF164.48
aa(lp1025
Vhouse
p1026
aF164.73
aF165.09
aa(lp1027
Vbut
p1028
aF165.12
aF165.27
aa(lp1029
Vwe've
p1030
aF165.27
aF165.55
aa(lp1031
Vhad
p1032
aF165.55
aF165.95
aa(lp1033
Vand
p1034
aF166.21
aF166.38
aa(lp1035
Vthat
p1036
aF166.38
aF166.55
aa(lp1037
Vis
p1038
aF166.55
aF166.62
aa(lp1039
Vnot
p1040
aF166.62
aF166.87
aa(lp1041
Vprofessional
p1042
aF166.87
aF167.39
aa(lp1043
Vthat's
p1044
aF167.39
aF167.58
aa(lp1045
Vjust
p1046
aF167.58
aF167.98
aa(lp1047
Vlife
p1048
aF168.08
aF168.71
aasVconfidence
p1049
F0.695
sVtranscript
p1050
Vwell the goal when once though to house that took four years to build %HESITATION and then we sold at our house but we've had and that is not professional that's just life 
p1051
sasVfinal
p1052
I01
sasVresult_index
p1053
I0
sVspeaker_labels
p1054
(lp1055
(dp1056
Vto
p1057
F1.21
sVconfidence
p1058
F0.5
sVspeaker
p1059
I0
sVfrom
p1060
F0.92
sVfinal
p1061
I00
sa(dp1062
Vto
p1063
F2.58
sVconfidence
p1064
F0.335
sVspeaker
p1065
I1
sVfrom
p1066
F2.55
sVfinal
p1067
I00
sa(dp1068
Vto
p1069
F2.97
sVconfidence
p1070
F0.524
sVspeaker
p1071
I1
sVfrom
p1072
F2.79
sVfinal
p1073
I00
sa(dp1074
Vto
p1075
F3.16
sVconfidence
p1076
F0.524
sVspeaker
p1077
I1
sVfrom
p1078
F2.97
sVfinal
p1079
I00
sa(dp1080
Vto
p1081
F3.26
sVconfidence
p1082
F0.359
sVspeaker
p1083
I1
sVfrom
p1084
F3.2
sVfinal
p1085
I00
sa(dp1086
Vto
p1087
F3.45
sVconfidence
p1088
F0.359
sVspeaker
p1089
I1
sVfrom
p1090
F3.26
sVfinal
p1091
I00
sa(dp1092
Vto
p1093
F3.54
sVconfidence
p1094
F0.359
sVspeaker
p1095
I1
sVfrom
p1096
F3.45
sVfinal
p1097
I00
sa(dp1098
Vto
p1099
F3.92
sVconfidence
p1100
F0.359
sVspeaker
p1101
I1
sVfrom
p1102
F3.54
sVfinal
p1103
I00
sa(dp1104
Vto
p1105
F4.62
sVconfidence
p1106
F0.432
sVspeaker
p1107
I1
sVfrom
p1108
F4.33
sVfinal
p1109
I00
sa(dp1110
Vto
p1111
F5.44
sVconfidence
p1112
F0.254
sVspeaker
p1113
I1
sVfrom
p1114
F4.98
sVfinal
p1115
I00
sa(dp1116
Vto
p1117
F9.7
sVconfidence
p1118
F0.238
sVspeaker
p1119
I1
sVfrom
p1120
F9.56
sVfinal
p1121
I00
sa(dp1122
Vto
p1123
F9.97
sVconfidence
p1124
F0.238
sVspeaker
p1125
I1
sVfrom
p1126
F9.7
sVfinal
p1127
I00
sa(dp1128
Vto
p1129
F10.11
sVconfidence
p1130
F0.238
sVspeaker
p1131
I1
sVfrom
p1132
F9.97
sVfinal
p1133
I00
sa(dp1134
Vto
p1135
F11.82
sVconfidence
p1136
F0.253
sVspeaker
p1137
I1
sVfrom
p1138
F11.63
sVfinal
p1139
I00
sa(dp1140
Vto
p1141
F12.09
sVconfidence
p1142
F0.253
sVspeaker
p1143
I1
sVfrom
p1144
F11.82
sVfinal
p1145
I00
sa(dp1146
Vto
p1147
F12.29
sVconfidence
p1148
F0.253
sVspeaker
p1149
I1
sVfrom
p1150
F12.09
sVfinal
p1151
I00
sa(dp1152
Vto
p1153
F12.64
sVconfidence
p1154
F0.253
sVspeaker
p1155
I1
sVfrom
p1156
F12.29
sVfinal
p1157
I00
sa(dp1158
Vto
p1159
F12.92
sVconfidence
p1160
F0.253
sVspeaker
p1161
I1
sVfrom
p1162
F12.64
sVfinal
p1163
I00
sa(dp1164
Vto
p1165
F13.51
sVconfidence
p1166
F0.551
sVspeaker
p1167
I1
sVfrom
p1168
F13.17
sVfinal
p1169
I00
sa(dp1170
Vto
p1171
F13.64
sVconfidence
p1172
F0.551
sVspeaker
p1173
I1
sVfrom
p1174
F13.51
sVfinal
p1175
I00
sa(dp1176
Vto
p1177
F13.85
sVconfidence
p1178
F0.551
sVspeaker
p1179
I1
sVfrom
p1180
F13.64
sVfinal
p1181
I00
sa(dp1182
Vto
p1183
F14.91
sVconfidence
p1184
F0.52
sVspeaker
p1185
I1
sVfrom
p1186
F14.24
sVfinal
p1187
I00
sa(dp1188
Vto
p1189
F15.46
sVconfidence
p1190
F0.441
sVspeaker
p1191
I1
sVfrom
p1192
F14.95
sVfinal
p1193
I00
sa(dp1194
Vto
p1195
F15.81
sVconfidence
p1196
F0.542
sVspeaker
p1197
I1
sVfrom
p1198
F15.49
sVfinal
p1199
I00
sa(dp1200
Vto
p1201
F16.16
sVconfidence
p1202
F0.542
sVspeaker
p1203
I1
sVfrom
p1204
F15.81
sVfinal
p1205
I00
sa(dp1206
Vto
p1207
F16.51
sVconfidence
p1208
F0.527
sVspeaker
p1209
I1
sVfrom
p1210
F16.34
sVfinal
p1211
I00
sa(dp1212
Vto
p1213
F17.08
sVconfidence
p1214
F0.491
sVspeaker
p1215
I1
sVfrom
p1216
F16.54
sVfinal
p1217
I00
sa(dp1218
Vto
p1219
F18.5
sVconfidence
p1220
F0.546
sVspeaker
p1221
I1
sVfrom
p1222
F18.34
sVfinal
p1223
I00
sa(dp1224
Vto
p1225
F18.7
sVconfidence
p1226
F0.546
sVspeaker
p1227
I1
sVfrom
p1228
F18.5
sVfinal
p1229
I00
sa(dp1230
Vto
p1231
F19.24
sVconfidence
p1232
F0.546
sVspeaker
p1233
I1
sVfrom
p1234
F18.7
sVfinal
p1235
I00
sa(dp1236
Vto
p1237
F19.5
sVconfidence
p1238
F0.357
sVspeaker
p1239
I1
sVfrom
p1240
F19.27
sVfinal
p1241
I00
sa(dp1242
Vto
p1243
F19.87
sVconfidence
p1244
F0.357
sVspeaker
p1245
I1
sVfrom
p1246
F19.5
sVfinal
p1247
I00
sa(dp1248
Vto
p1249
F20.94
sVconfidence
p1250
F0.519
sVspeaker
p1251
I1
sVfrom
p1252
F20.22
sVfinal
p1253
I00
sa(dp1254
Vto
p1255
F21.3
sVconfidence
p1256
F0.581
sVspeaker
p1257
I1
sVfrom
p1258
F20.98
sVfinal
p1259
I00
sa(dp1260
Vto
p1261
F21.45
sVconfidence
p1262
F0.581
sVspeaker
p1263
I1
sVfrom
p1264
F21.3
sVfinal
p1265
I00
sa(dp1266
Vto
p1267
F21.56
sVconfidence
p1268
F0.581
sVspeaker
p1269
I1
sVfrom
p1270
F21.45
sVfinal
p1271
I00
sa(dp1272
Vto
p1273
F21.8
sVconfidence
p1274
F0.581
sVspeaker
p1275
I1
sVfrom
p1276
F21.56
sVfinal
p1277
I00
sa(dp1278
Vto
p1279
F21.97
sVconfidence
p1280
F0.581
sVspeaker
p1281
I1
sVfrom
p1282
F21.8
sVfinal
p1283
I00
sa(dp1284
Vto
p1285
F22.57
sVconfidence
p1286
F0.485
sVspeaker
p1287
I1
sVfrom
p1288
F22.04
sVfinal
p1289
I00
sa(dp1290
Vto
p1291
F23.31
sVconfidence
p1292
F0.521
sVspeaker
p1293
I1
sVfrom
p1294
F22.71
sVfinal
p1295
I00
sa(dp1296
Vto
p1297
F23.49
sVconfidence
p1298
F0.521
sVspeaker
p1299
I1
sVfrom
p1300
F23.31
sVfinal
p1301
I00
sa(dp1302
Vto
p1303
F24.02
sVconfidence
p1304
F0.599
sVspeaker
p1305
I1
sVfrom
p1306
F23.66
sVfinal
p1307
I00
sa(dp1308
Vto
p1309
F24.25
sVconfidence
p1310
F0.599
sVspeaker
p1311
I1
sVfrom
p1312
F24.02
sVfinal
p1313
I00
sa(dp1314
Vto
p1315
F24.54
sVconfidence
p1316
F0.599
sVspeaker
p1317
I1
sVfrom
p1318
F24.25
sVfinal
p1319
I00
sa(dp1320
Vto
p1321
F24.7
sVconfidence
p1322
F0.599
sVspeaker
p1323
I1
sVfrom
p1324
F24.54
sVfinal
p1325
I00
sa(dp1326
Vto
p1327
F24.86
sVconfidence
p1328
F0.599
sVspeaker
p1329
I1
sVfrom
p1330
F24.7
sVfinal
p1331
I00
sa(dp1332
Vto
p1333
F25.22
sVconfidence
p1334
F0.599
sVspeaker
p1335
I1
sVfrom
p1336
F24.86
sVfinal
p1337
I00
sa(dp1338
Vto
p1339
F25.38
sVconfidence
p1340
F0.599
sVspeaker
p1341
I1
sVfrom
p1342
F25.22
sVfinal
p1343
I00
sa(dp1344
Vto
p1345
F25.56
sVconfidence
p1346
F0.599
sVspeaker
p1347
I1
sVfrom
p1348
F25.38
sVfinal
p1349
I00
sa(dp1350
Vto
p1351
F26.08
sVconfidence
p1352
F0.599
sVspeaker
p1353
I1
sVfrom
p1354
F25.56
sVfinal
p1355
I00
sa(dp1356
Vto
p1357
F26.52
sVconfidence
p1358
F0.599
sVspeaker
p1359
I1
sVfrom
p1360
F26.08
sVfinal
p1361
I00
sa(dp1362
Vto
p1363
F27.08
sVconfidence
p1364
F0.601
sVspeaker
p1365
I1
sVfrom
p1366
F26.77
sVfinal
p1367
I00
sa(dp1368
Vto
p1369
F27.6
sVconfidence
p1370
F0.601
sVspeaker
p1371
I1
sVfrom
p1372
F27.08
sVfinal
p1373
I00
sa(dp1374
Vto
p1375
F27.79
sVconfidence
p1376
F0.528
sVspeaker
p1377
I1
sVfrom
p1378
F27.65
sVfinal
p1379
I00
sa(dp1380
Vto
p1381
F27.93
sVconfidence
p1382
F0.528
sVspeaker
p1383
I1
sVfrom
p1384
F27.79
sVfinal
p1385
I00
sa(dp1386
Vto
p1387
F28.17
sVconfidence
p1388
F0.528
sVspeaker
p1389
I1
sVfrom
p1390
F27.93
sVfinal
p1391
I00
sa(dp1392
Vto
p1393
F28.35
sVconfidence
p1394
F0.528
sVspeaker
p1395
I1
sVfrom
p1396
F28.17
sVfinal
p1397
I00
sa(dp1398
Vto
p1399
F28.47
sVconfidence
p1400
F0.528
sVspeaker
p1401
I1
sVfrom
p1402
F28.35
sVfinal
p1403
I00
sa(dp1404
Vto
p1405
F28.93
sVconfidence
p1406
F0.528
sVspeaker
p1407
I1
sVfrom
p1408
F28.47
sVfinal
p1409
I00
sa(dp1410
Vto
p1411
F29.48
sVconfidence
p1412
F0.486
sVspeaker
p1413
I1
sVfrom
p1414
F29.33
sVfinal
p1415
I00
sa(dp1416
Vto
p1417
F29.68
sVconfidence
p1418
F0.486
sVspeaker
p1419
I1
sVfrom
p1420
F29.48
sVfinal
p1421
I00
sa(dp1422
Vto
p1423
F29.81
sVconfidence
p1424
F0.486
sVspeaker
p1425
I1
sVfrom
p1426
F29.68
sVfinal
p1427
I00
sa(dp1428
Vto
p1429
F30.06
sVconfidence
p1430
F0.486
sVspeaker
p1431
I1
sVfrom
p1432
F29.81
sVfinal
p1433
I00
sa(dp1434
Vto
p1435
F30.42
sVconfidence
p1436
F0.631
sVspeaker
p1437
I1
sVfrom
p1438
F30.11
sVfinal
p1439
I00
sa(dp1440
Vto
p1441
F30.81
sVconfidence
p1442
F0.631
sVspeaker
p1443
I1
sVfrom
p1444
F30.42
sVfinal
p1445
I00
sa(dp1446
Vto
p1447
F31.18
sVconfidence
p1448
F0.547
sVspeaker
p1449
I1
sVfrom
p1450
F31.05
sVfinal
p1451
I00
sa(dp1452
Vto
p1453
F31.52
sVconfidence
p1454
F0.547
sVspeaker
p1455
I1
sVfrom
p1456
F31.18
sVfinal
p1457
I00
sa(dp1458
Vto
p1459
F32.02
sVconfidence
p1460
F0.464
sVspeaker
p1461
I1
sVfrom
p1462
F31.55
sVfinal
p1463
I00
sa(dp1464
Vto
p1465
F32.64
sVconfidence
p1466
F0.549
sVspeaker
p1467
I1
sVfrom
p1468
F32.05
sVfinal
p1469
I00
sa(dp1470
Vto
p1471
F33.9
sVconfidence
p1472
F0.584
sVspeaker
p1473
I1
sVfrom
p1474
F33.61
sVfinal
p1475
I00
sa(dp1476
Vto
p1477
F34.01
sVconfidence
p1478
F0.584
sVspeaker
p1479
I1
sVfrom
p1480
F33.9
sVfinal
p1481
I00
sa(dp1482
Vto
p1483
F34.11
sVconfidence
p1484
F0.584
sVspeaker
p1485
I1
sVfrom
p1486
F34.01
sVfinal
p1487
I00
sa(dp1488
Vto
p1489
F34.59
sVconfidence
p1490
F0.584
sVspeaker
p1491
I1
sVfrom
p1492
F34.11
sVfinal
p1493
I00
sa(dp1494
Vto
p1495
F34.71
sVconfidence
p1496
F0.584
sVspeaker
p1497
I1
sVfrom
p1498
F34.59
sVfinal
p1499
I00
sa(dp1500
Vto
p1501
F34.81
sVconfidence
p1502
F0.584
sVspeaker
p1503
I1
sVfrom
p1504
F34.71
sVfinal
p1505
I00
sa(dp1506
Vto
p1507
F35.02
sVconfidence
p1508
F0.584
sVspeaker
p1509
I1
sVfrom
p1510
F34.81
sVfinal
p1511
I00
sa(dp1512
Vto
p1513
F35.21
sVconfidence
p1514
F0.584
sVspeaker
p1515
I1
sVfrom
p1516
F35.02
sVfinal
p1517
I00
sa(dp1518
Vto
p1519
F35.4
sVconfidence
p1520
F0.584
sVspeaker
p1521
I1
sVfrom
p1522
F35.21
sVfinal
p1523
I00
sa(dp1524
Vto
p1525
F35.56
sVconfidence
p1526
F0.584
sVspeaker
p1527
I1
sVfrom
p1528
F35.4
sVfinal
p1529
I00
sa(dp1530
Vto
p1531
F35.77
sVconfidence
p1532
F0.584
sVspeaker
p1533
I1
sVfrom
p1534
F35.56
sVfinal
p1535
I00
sa(dp1536
Vto
p1537
F35.91
sVconfidence
p1538
F0.603
sVspeaker
p1539
I1
sVfrom
p1540
F35.8
sVfinal
p1541
I00
sa(dp1542
Vto
p1543
F36.41
sVconfidence
p1544
F0.603
sVspeaker
p1545
I1
sVfrom
p1546
F35.91
sVfinal
p1547
I00
sa(dp1548
Vto
p1549
F36.98
sVconfidence
p1550
F0.383
sVspeaker
p1551
I1
sVfrom
p1552
F36.68
sVfinal
p1553
I00
sa(dp1554
Vto
p1555
F37.3
sVconfidence
p1556
F0.528
sVspeaker
p1557
I1
sVfrom
p1558
F37.07
sVfinal
p1559
I00
sa(dp1560
Vto
p1561
F37.71
sVconfidence
p1562
F0.528
sVspeaker
p1563
I1
sVfrom
p1564
F37.3
sVfinal
p1565
I00
sa(dp1566
Vto
p1567
F38.12
sVconfidence
p1568
F0.528
sVspeaker
p1569
I1
sVfrom
p1570
F37.71
sVfinal
p1571
I00
sa(dp1572
Vto
p1573
F38.45
sVconfidence
p1574
F0.637
sVspeaker
p1575
I1
sVfrom
p1576
F38.15
sVfinal
p1577
I00
sa(dp1578
Vto
p1579
F38.61
sVconfidence
p1580
F0.637
sVspeaker
p1581
I1
sVfrom
p1582
F38.45
sVfinal
p1583
I00
sa(dp1584
Vto
p1585
F38.83
sVconfidence
p1586
F0.637
sVspeaker
p1587
I1
sVfrom
p1588
F38.61
sVfinal
p1589
I00
sa(dp1590
Vto
p1591
F39.02
sVconfidence
p1592
F0.637
sVspeaker
p1593
I1
sVfrom
p1594
F38.83
sVfinal
p1595
I00
sa(dp1596
Vto
p1597
F39.25
sVconfidence
p1598
F0.637
sVspeaker
p1599
I1
sVfrom
p1600
F39.02
sVfinal
p1601
I00
sa(dp1602
Vto
p1603
F39.58
sVconfidence
p1604
F0.547
sVspeaker
p1605
I1
sVfrom
p1606
F39.37
sVfinal
p1607
I00
sa(dp1608
Vto
p1609
F39.86
sVconfidence
p1610
F0.547
sVspeaker
p1611
I1
sVfrom
p1612
F39.58
sVfinal
p1613
I00
sa(dp1614
Vto
p1615
F39.99
sVconfidence
p1616
F0.547
sVspeaker
p1617
I1
sVfrom
p1618
F39.86
sVfinal
p1619
I00
sa(dp1620
Vto
p1621
F40.1
sVconfidence
p1622
F0.547
sVspeaker
p1623
I1
sVfrom
p1624
F39.99
sVfinal
p1625
I00
sa(dp1626
Vto
p1627
F40.2
sVconfidence
p1628
F0.547
sVspeaker
p1629
I1
sVfrom
p1630
F40.1
sVfinal
p1631
I00
sa(dp1632
Vto
p1633
F40.28
sVconfidence
p1634
F0.547
sVspeaker
p1635
I1
sVfrom
p1636
F40.2
sVfinal
p1637
I00
sa(dp1638
Vto
p1639
F40.79
sVconfidence
p1640
F0.547
sVspeaker
p1641
I1
sVfrom
p1642
F40.28
sVfinal
p1643
I00
sa(dp1644
Vto
p1645
F41.15
sVconfidence
p1646
F0.43
sVspeaker
p1647
I0
sVfrom
p1648
F40.91
sVfinal
p1649
I00
sa(dp1650
Vto
p1651
F41.39
sVconfidence
p1652
F0.43
sVspeaker
p1653
I0
sVfrom
p1654
F41.15
sVfinal
p1655
I00
sa(dp1656
Vto
p1657
F41.56
sVconfidence
p1658
F0.43
sVspeaker
p1659
I0
sVfrom
p1660
F41.39
sVfinal
p1661
I00
sa(dp1662
Vto
p1663
F41.66
sVconfidence
p1664
F0.43
sVspeaker
p1665
I0
sVfrom
p1666
F41.56
sVfinal
p1667
I00
sa(dp1668
Vto
p1669
F41.94
sVconfidence
p1670
F0.43
sVspeaker
p1671
I0
sVfrom
p1672
F41.66
sVfinal
p1673
I00
sa(dp1674
Vto
p1675
F42.2
sVconfidence
p1676
F0.506
sVspeaker
p1677
I0
sVfrom
p1678
F42.06
sVfinal
p1679
I00
sa(dp1680
Vto
p1681
F42.34
sVconfidence
p1682
F0.506
sVspeaker
p1683
I0
sVfrom
p1684
F42.2
sVfinal
p1685
I00
sa(dp1686
Vto
p1687
F42.5
sVconfidence
p1688
F0.573
sVspeaker
p1689
I0
sVfrom
p1690
F42.37
sVfinal
p1691
I00
sa(dp1692
Vto
p1693
F42.64
sVconfidence
p1694
F0.573
sVspeaker
p1695
I0
sVfrom
p1696
F42.5
sVfinal
p1697
I00
sa(dp1698
Vto
p1699
F43.14
sVconfidence
p1700
F0.573
sVspeaker
p1701
I0
sVfrom
p1702
F42.64
sVfinal
p1703
I00
sa(dp1704
Vto
p1705
F43.23
sVconfidence
p1706
F0.573
sVspeaker
p1707
I0
sVfrom
p1708
F43.14
sVfinal
p1709
I00
sa(dp1710
Vto
p1711
F43.8
sVconfidence
p1712
F0.573
sVspeaker
p1713
I0
sVfrom
p1714
F43.23
sVfinal
p1715
I00
sa(dp1716
Vto
p1717
F44.44
sVconfidence
p1718
F0.554
sVspeaker
p1719
I0
sVfrom
p1720
F44.24
sVfinal
p1721
I00
sa(dp1722
Vto
p1723
F44.91
sVconfidence
p1724
F0.554
sVspeaker
p1725
I0
sVfrom
p1726
F44.44
sVfinal
p1727
I00
sa(dp1728
Vto
p1729
F45.1
sVconfidence
p1730
F0.554
sVspeaker
p1731
I0
sVfrom
p1732
F44.91
sVfinal
p1733
I00
sa(dp1734
Vto
p1735
F45.38
sVconfidence
p1736
F0.554
sVspeaker
p1737
I0
sVfrom
p1738
F45.1
sVfinal
p1739
I00
sa(dp1740
Vto
p1741
F45.63
sVconfidence
p1742
F0.554
sVspeaker
p1743
I0
sVfrom
p1744
F45.38
sVfinal
p1745
I00
sa(dp1746
Vto
p1747
F45.95
sVconfidence
p1748
F0.554
sVspeaker
p1749
I0
sVfrom
p1750
F45.63
sVfinal
p1751
I00
sa(dp1752
Vto
p1753
F46.09
sVconfidence
p1754
F0.554
sVspeaker
p1755
I0
sVfrom
p1756
F45.95
sVfinal
p1757
I00
sa(dp1758
Vto
p1759
F46.3
sVconfidence
p1760
F0.554
sVspeaker
p1761
I0
sVfrom
p1762
F46.09
sVfinal
p1763
I00
sa(dp1764
Vto
p1765
F46.53
sVconfidence
p1766
F0.408
sVspeaker
p1767
I1
sVfrom
p1768
F46.33
sVfinal
p1769
I00
sa(dp1770
Vto
p1771
F46.74
sVconfidence
p1772
F0.408
sVspeaker
p1773
I1
sVfrom
p1774
F46.53
sVfinal
p1775
I00
sa(dp1776
Vto
p1777
F47.46
sVconfidence
p1778
F0.51
sVspeaker
p1779
I1
sVfrom
p1780
F47.13
sVfinal
p1781
I00
sa(dp1782
Vto
p1783
F48.06
sVconfidence
p1784
F0.51
sVspeaker
p1785
I1
sVfrom
p1786
F47.46
sVfinal
p1787
I00
sa(dp1788
Vto
p1789
F48.26
sVconfidence
p1790
F0.624
sVspeaker
p1791
I1
sVfrom
p1792
F48.11
sVfinal
p1793
I00
sa(dp1794
Vto
p1795
F48.57
sVconfidence
p1796
F0.624
sVspeaker
p1797
I1
sVfrom
p1798
F48.26
sVfinal
p1799
I00
sa(dp1800
Vto
p1801
F48.76
sVconfidence
p1802
F0.624
sVspeaker
p1803
I1
sVfrom
p1804
F48.57
sVfinal
p1805
I00
sa(dp1806
Vto
p1807
F49.13
sVconfidence
p1808
F0.624
sVspeaker
p1809
I1
sVfrom
p1810
F48.76
sVfinal
p1811
I00
sa(dp1812
Vto
p1813
F49.28
sVconfidence
p1814
F0.64
sVspeaker
p1815
I0
sVfrom
p1816
F49.18
sVfinal
p1817
I00
sa(dp1818
Vto
p1819
F49.54
sVconfidence
p1820
F0.64
sVspeaker
p1821
I0
sVfrom
p1822
F49.28
sVfinal
p1823
I00
sa(dp1824
Vto
p1825
F49.76
sVconfidence
p1826
F0.64
sVspeaker
p1827
I0
sVfrom
p1828
F49.54
sVfinal
p1829
I00
sa(dp1830
Vto
p1831
F49.9
sVconfidence
p1832
F0.64
sVspeaker
p1833
I0
sVfrom
p1834
F49.76
sVfinal
p1835
I00
sa(dp1836
Vto
p1837
F50.75
sVconfidence
p1838
F0.559
sVspeaker
p1839
I0
sVfrom
p1840
F50.16
sVfinal
p1841
I00
sa(dp1842
Vto
p1843
F50.84
sVconfidence
p1844
F0.559
sVspeaker
p1845
I0
sVfrom
p1846
F50.75
sVfinal
p1847
I00
sa(dp1848
Vto
p1849
F50.87
sVconfidence
p1850
F0.559
sVspeaker
p1851
I0
sVfrom
p1852
F50.84
sVfinal
p1853
I00
sa(dp1854
Vto
p1855
F51.1
sVconfidence
p1856
F0.559
sVspeaker
p1857
I0
sVfrom
p1858
F50.87
sVfinal
p1859
I00
sa(dp1860
Vto
p1861
F51.27
sVconfidence
p1862
F0.559
sVspeaker
p1863
I0
sVfrom
p1864
F51.1
sVfinal
p1865
I00
sa(dp1866
Vto
p1867
F51.51
sVconfidence
p1868
F0.559
sVspeaker
p1869
I0
sVfrom
p1870
F51.27
sVfinal
p1871
I00
sa(dp1872
Vto
p1873
F51.73
sVconfidence
p1874
F0.559
sVspeaker
p1875
I0
sVfrom
p1876
F51.51
sVfinal
p1877
I00
sa(dp1878
Vto
p1879
F51.94
sVconfidence
p1880
F0.559
sVspeaker
p1881
I0
sVfrom
p1882
F51.73
sVfinal
p1883
I00
sa(dp1884
Vto
p1885
F52.16
sVconfidence
p1886
F0.559
sVspeaker
p1887
I0
sVfrom
p1888
F51.94
sVfinal
p1889
I00
sa(dp1890
Vto
p1891
F52.29
sVconfidence
p1892
F0.611
sVspeaker
p1893
I0
sVfrom
p1894
F52.19
sVfinal
p1895
I00
sa(dp1896
Vto
p1897
F52.51
sVconfidence
p1898
F0.611
sVspeaker
p1899
I0
sVfrom
p1900
F52.29
sVfinal
p1901
I00
sa(dp1902
Vto
p1903
F52.59
sVconfidence
p1904
F0.611
sVspeaker
p1905
I0
sVfrom
p1906
F52.51
sVfinal
p1907
I00
sa(dp1908
Vto
p1909
F52.68
sVconfidence
p1910
F0.611
sVspeaker
p1911
I0
sVfrom
p1912
F52.59
sVfinal
p1913
I00
sa(dp1914
Vto
p1915
F52.82
sVconfidence
p1916
F0.611
sVspeaker
p1917
I0
sVfrom
p1918
F52.68
sVfinal
p1919
I00
sa(dp1920
Vto
p1921
F52.93
sVconfidence
p1922
F0.611
sVspeaker
p1923
I0
sVfrom
p1924
F52.82
sVfinal
p1925
I00
sa(dp1926
Vto
p1927
F53.06
sVconfidence
p1928
F0.611
sVspeaker
p1929
I0
sVfrom
p1930
F52.93
sVfinal
p1931
I00
sa(dp1932
Vto
p1933
F53.22
sVconfidence
p1934
F0.611
sVspeaker
p1935
I0
sVfrom
p1936
F53.06
sVfinal
p1937
I00
sa(dp1938
Vto
p1939
F53.49
sVconfidence
p1940
F0.611
sVspeaker
p1941
I0
sVfrom
p1942
F53.22
sVfinal
p1943
I00
sa(dp1944
Vto
p1945
F53.55
sVconfidence
p1946
F0.611
sVspeaker
p1947
I0
sVfrom
p1948
F53.49
sVfinal
p1949
I00
sa(dp1950
Vto
p1951
F53.67
sVconfidence
p1952
F0.611
sVspeaker
p1953
I0
sVfrom
p1954
F53.55
sVfinal
p1955
I00
sa(dp1956
Vto
p1957
F53.78
sVconfidence
p1958
F0.611
sVspeaker
p1959
I0
sVfrom
p1960
F53.67
sVfinal
p1961
I00
sa(dp1962
Vto
p1963
F54.14
sVconfidence
p1964
F0.611
sVspeaker
p1965
I0
sVfrom
p1966
F53.78
sVfinal
p1967
I00
sa(dp1968
Vto
p1969
F54.32
sVconfidence
p1970
F0.611
sVspeaker
p1971
I0
sVfrom
p1972
F54.14
sVfinal
p1973
I00
sa(dp1974
Vto
p1975
F54.53
sVconfidence
p1976
F0.611
sVspeaker
p1977
I0
sVfrom
p1978
F54.32
sVfinal
p1979
I00
sa(dp1980
Vto
p1981
F54.72
sVconfidence
p1982
F0.611
sVspeaker
p1983
I0
sVfrom
p1984
F54.53
sVfinal
p1985
I00
sa(dp1986
Vto
p1987
F54.9
sVconfidence
p1988
F0.611
sVspeaker
p1989
I0
sVfrom
p1990
F54.72
sVfinal
p1991
I00
sa(dp1992
Vto
p1993
F55.16
sVconfidence
p1994
F0.611
sVspeaker
p1995
I0
sVfrom
p1996
F54.9
sVfinal
p1997
I00
sa(dp1998
Vto
p1999
F55.43
sVconfidence
p2000
F0.611
sVspeaker
p2001
I0
sVfrom
p2002
F55.16
sVfinal
p2003
I00
sa(dp2004
Vto
p2005
F55.81
sVconfidence
p2006
F0.599
sVspeaker
p2007
I0
sVfrom
p2008
F55.46
sVfinal
p2009
I00
sa(dp2010
Vto
p2011
F56.03
sVconfidence
p2012
F0.599
sVspeaker
p2013
I0
sVfrom
p2014
F55.81
sVfinal
p2015
I00
sa(dp2016
Vto
p2017
F56.5
sVconfidence
p2018
F0.619
sVspeaker
p2019
I0
sVfrom
p2020
F56.33
sVfinal
p2021
I00
sa(dp2022
Vto
p2023
F56.78
sVconfidence
p2024
F0.619
sVspeaker
p2025
I0
sVfrom
p2026
F56.5
sVfinal
p2027
I00
sa(dp2028
Vto
p2029
F57.04
sVconfidence
p2030
F0.619
sVspeaker
p2031
I0
sVfrom
p2032
F56.78
sVfinal
p2033
I00
sa(dp2034
Vto
p2035
F57.12
sVconfidence
p2036
F0.619
sVspeaker
p2037
I0
sVfrom
p2038
F57.04
sVfinal
p2039
I00
sa(dp2040
Vto
p2041
F57.27
sVconfidence
p2042
F0.619
sVspeaker
p2043
I0
sVfrom
p2044
F57.12
sVfinal
p2045
I00
sa(dp2046
Vto
p2047
F57.37
sVconfidence
p2048
F0.619
sVspeaker
p2049
I0
sVfrom
p2050
F57.27
sVfinal
p2051
I00
sa(dp2052
Vto
p2053
F57.61
sVconfidence
p2054
F0.619
sVspeaker
p2055
I0
sVfrom
p2056
F57.37
sVfinal
p2057
I00
sa(dp2058
Vto
p2059
F57.78
sVconfidence
p2060
F0.625
sVspeaker
p2061
I0
sVfrom
p2062
F57.64
sVfinal
p2063
I00
sa(dp2064
Vto
p2065
F57.9
sVconfidence
p2066
F0.625
sVspeaker
p2067
I0
sVfrom
p2068
F57.78
sVfinal
p2069
I00
sa(dp2070
Vto
p2071
F57.98
sVconfidence
p2072
F0.625
sVspeaker
p2073
I0
sVfrom
p2074
F57.9
sVfinal
p2075
I00
sa(dp2076
Vto
p2077
F58.16
sVconfidence
p2078
F0.625
sVspeaker
p2079
I0
sVfrom
p2080
F57.98
sVfinal
p2081
I00
sa(dp2082
Vto
p2083
F58.52
sVconfidence
p2084
F0.625
sVspeaker
p2085
I0
sVfrom
p2086
F58.16
sVfinal
p2087
I00
sa(dp2088
Vto
p2089
F58.63
sVconfidence
p2090
F0.618
sVspeaker
p2091
I0
sVfrom
p2092
F58.55
sVfinal
p2093
I00
sa(dp2094
Vto
p2095
F58.72
sVconfidence
p2096
F0.618
sVspeaker
p2097
I0
sVfrom
p2098
F58.63
sVfinal
p2099
I00
sa(dp2100
Vto
p2101
F58.9
sVconfidence
p2102
F0.618
sVspeaker
p2103
I0
sVfrom
p2104
F58.72
sVfinal
p2105
I00
sa(dp2106
Vto
p2107
F59.13
sVconfidence
p2108
F0.618
sVspeaker
p2109
I0
sVfrom
p2110
F58.9
sVfinal
p2111
I00
sa(dp2112
Vto
p2113
F59.57
sVconfidence
p2114
F0.61
sVspeaker
p2115
I0
sVfrom
p2116
F59.28
sVfinal
p2117
I00
sa(dp2118
Vto
p2119
F60.06
sVconfidence
p2120
F0.635
sVspeaker
p2121
I0
sVfrom
p2122
F59.82
sVfinal
p2123
I00
sa(dp2124
Vto
p2125
F60.44
sVconfidence
p2126
F0.635
sVspeaker
p2127
I0
sVfrom
p2128
F60.06
sVfinal
p2129
I00
sa(dp2130
Vto
p2131
F61.16
sVconfidence
p2132
F0.519
sVspeaker
p2133
I0
sVfrom
p2134
F60.76
sVfinal
p2135
I00
sa(dp2136
Vto
p2137
F62.11
sVconfidence
p2138
F0.472
sVspeaker
p2139
I0
sVfrom
p2140
F61.93
sVfinal
p2141
I00
sa(dp2142
Vto
p2143
F62.22
sVconfidence
p2144
F0.472
sVspeaker
p2145
I0
sVfrom
p2146
F62.11
sVfinal
p2147
I00
sa(dp2148
Vto
p2149
F62.28
sVconfidence
p2150
F0.472
sVspeaker
p2151
I0
sVfrom
p2152
F62.22
sVfinal
p2153
I00
sa(dp2154
Vto
p2155
F62.42
sVconfidence
p2156
F0.472
sVspeaker
p2157
I0
sVfrom
p2158
F62.28
sVfinal
p2159
I00
sa(dp2160
Vto
p2161
F62.55
sVconfidence
p2162
F0.472
sVspeaker
p2163
I0
sVfrom
p2164
F62.42
sVfinal
p2165
I00
sa(dp2166
Vto
p2167
F62.92
sVconfidence
p2168
F0.472
sVspeaker
p2169
I0
sVfrom
p2170
F62.55
sVfinal
p2171
I00
sa(dp2172
Vto
p2173
F62.96
sVconfidence
p2174
F0.472
sVspeaker
p2175
I0
sVfrom
p2176
F62.92
sVfinal
p2177
I00
sa(dp2178
Vto
p2179
F63.24
sVconfidence
p2180
F0.472
sVspeaker
p2181
I0
sVfrom
p2182
F62.96
sVfinal
p2183
I00
sa(dp2184
Vto
p2185
F63.39
sVconfidence
p2186
F0.472
sVspeaker
p2187
I0
sVfrom
p2188
F63.24
sVfinal
p2189
I00
sa(dp2190
Vto
p2191
F63.66
sVconfidence
p2192
F0.472
sVspeaker
p2193
I0
sVfrom
p2194
F63.39
sVfinal
p2195
I00
sa(dp2196
Vto
p2197
F64.15
sVconfidence
p2198
F0.504
sVspeaker
p2199
I0
sVfrom
p2200
F64.02
sVfinal
p2201
I00
sa(dp2202
Vto
p2203
F64.53
sVconfidence
p2204
F0.504
sVspeaker
p2205
I0
sVfrom
p2206
F64.15
sVfinal
p2207
I00
sa(dp2208
Vto
p2209
F64.72
sVconfidence
p2210
F0.504
sVspeaker
p2211
I0
sVfrom
p2212
F64.53
sVfinal
p2213
I00
sa(dp2214
Vto
p2215
F64.88
sVconfidence
p2216
F0.504
sVspeaker
p2217
I0
sVfrom
p2218
F64.72
sVfinal
p2219
I00
sa(dp2220
Vto
p2221
F65.44
sVconfidence
p2222
F0.504
sVspeaker
p2223
I0
sVfrom
p2224
F64.88
sVfinal
p2225
I00
sa(dp2226
Vto
p2227
F65.59
sVconfidence
p2228
F0.535
sVspeaker
p2229
I1
sVfrom
p2230
F65.47
sVfinal
p2231
I00
sa(dp2232
Vto
p2233
F65.75
sVconfidence
p2234
F0.535
sVspeaker
p2235
I1
sVfrom
p2236
F65.59
sVfinal
p2237
I00
sa(dp2238
Vto
p2239
F66.07
sVconfidence
p2240
F0.535
sVspeaker
p2241
I1
sVfrom
p2242
F65.75
sVfinal
p2243
I00
sa(dp2244
Vto
p2245
F66.54
sVconfidence
p2246
F0.535
sVspeaker
p2247
I1
sVfrom
p2248
F66.07
sVfinal
p2249
I00
sa(dp2250
Vto
p2251
F67.11
sVconfidence
p2252
F0.535
sVspeaker
p2253
I1
sVfrom
p2254
F66.54
sVfinal
p2255
I00
sa(dp2256
Vto
p2257
F67.51
sVconfidence
p2258
F0.535
sVspeaker
p2259
I1
sVfrom
p2260
F67.11
sVfinal
p2261
I00
sa(dp2262
Vto
p2263
F67.73
sVconfidence
p2264
F0.535
sVspeaker
p2265
I1
sVfrom
p2266
F67.51
sVfinal
p2267
I00
sa(dp2268
Vto
p2269
F68.14
sVconfidence
p2270
F0.535
sVspeaker
p2271
I1
sVfrom
p2272
F67.73
sVfinal
p2273
I00
sa(dp2274
Vto
p2275
F68.68
sVconfidence
p2276
F0.525
sVspeaker
p2277
I1
sVfrom
p2278
F68.17
sVfinal
p2279
I00
sa(dp2280
Vto
p2281
F68.97
sVconfidence
p2282
F0.525
sVspeaker
p2283
I1
sVfrom
p2284
F68.68
sVfinal
p2285
I00
sa(dp2286
Vto
p2287
F69.38
sVconfidence
p2288
F0.576
sVspeaker
p2289
I1
sVfrom
p2290
F69.0
sVfinal
p2291
I00
sa(dp2292
Vto
p2293
F69.9
sVconfidence
p2294
F0.538
sVspeaker
p2295
I1
sVfrom
p2296
F69.66
sVfinal
p2297
I00
sa(dp2298
Vto
p2299
F70.17
sVconfidence
p2300
F0.372
sVspeaker
p2301
I1
sVfrom
p2302
F69.93
sVfinal
p2303
I00
sa(dp2304
Vto
p2305
F70.83
sVconfidence
p2306
F0.63
sVspeaker
p2307
I1
sVfrom
p2308
F70.5
sVfinal
p2309
I00
sa(dp2310
Vto
p2311
F70.94
sVconfidence
p2312
F0.63
sVspeaker
p2313
I1
sVfrom
p2314
F70.83
sVfinal
p2315
I00
sa(dp2316
Vto
p2317
F71.17
sVconfidence
p2318
F0.63
sVspeaker
p2319
I1
sVfrom
p2320
F70.94
sVfinal
p2321
I00
sa(dp2322
Vto
p2323
F71.47
sVconfidence
p2324
F0.63
sVspeaker
p2325
I1
sVfrom
p2326
F71.17
sVfinal
p2327
I00
sa(dp2328
Vto
p2329
F71.67
sVconfidence
p2330
F0.63
sVspeaker
p2331
I1
sVfrom
p2332
F71.47
sVfinal
p2333
I00
sa(dp2334
Vto
p2335
F71.83
sVconfidence
p2336
F0.59
sVspeaker
p2337
I1
sVfrom
p2338
F71.7
sVfinal
p2339
I00
sa(dp2340
Vto
p2341
F71.94
sVconfidence
p2342
F0.59
sVspeaker
p2343
I1
sVfrom
p2344
F71.83
sVfinal
p2345
I00
sa(dp2346
Vto
p2347
F72.25
sVconfidence
p2348
F0.59
sVspeaker
p2349
I1
sVfrom
p2350
F71.94
sVfinal
p2351
I00
sa(dp2352
Vto
p2353
F72.57
sVconfidence
p2354
F0.59
sVspeaker
p2355
I1
sVfrom
p2356
F72.25
sVfinal
p2357
I00
sa(dp2358
Vto
p2359
F73.14
sVconfidence
p2360
F0.59
sVspeaker
p2361
I1
sVfrom
p2362
F72.57
sVfinal
p2363
I00
sa(dp2364
Vto
p2365
F73.73
sVconfidence
p2366
F0.625
sVspeaker
p2367
I1
sVfrom
p2368
F73.64
sVfinal
p2369
I00
sa(dp2370
Vto
p2371
F73.96
sVconfidence
p2372
F0.625
sVspeaker
p2373
I1
sVfrom
p2374
F73.73
sVfinal
p2375
I00
sa(dp2376
Vto
p2377
F74.38
sVconfidence
p2378
F0.625
sVspeaker
p2379
I1
sVfrom
p2380
F73.96
sVfinal
p2381
I00
sa(dp2382
Vto
p2383
F74.66
sVconfidence
p2384
F0.625
sVspeaker
p2385
I1
sVfrom
p2386
F74.38
sVfinal
p2387
I00
sa(dp2388
Vto
p2389
F74.96
sVconfidence
p2390
F0.625
sVspeaker
p2391
I1
sVfrom
p2392
F74.66
sVfinal
p2393
I00
sa(dp2394
Vto
p2395
F75.09
sVconfidence
p2396
F0.625
sVspeaker
p2397
I1
sVfrom
p2398
F74.96
sVfinal
p2399
I00
sa(dp2400
Vto
p2401
F75.19
sVconfidence
p2402
F0.625
sVspeaker
p2403
I1
sVfrom
p2404
F75.09
sVfinal
p2405
I00
sa(dp2406
Vto
p2407
F75.35
sVconfidence
p2408
F0.625
sVspeaker
p2409
I1
sVfrom
p2410
F75.19
sVfinal
p2411
I00
sa(dp2412
Vto
p2413
F75.76
sVconfidence
p2414
F0.625
sVspeaker
p2415
I1
sVfrom
p2416
F75.35
sVfinal
p2417
I00
sa(dp2418
Vto
p2419
F76.32
sVconfidence
p2420
F0.634
sVspeaker
p2421
I1
sVfrom
p2422
F76.14
sVfinal
p2423
I00
sa(dp2424
Vto
p2425
F76.63
sVconfidence
p2426
F0.634
sVspeaker
p2427
I1
sVfrom
p2428
F76.32
sVfinal
p2429
I00
sa(dp2430
Vto
p2431
F77.0
sVconfidence
p2432
F0.589
sVspeaker
p2433
I1
sVfrom
p2434
F76.84
sVfinal
p2435
I00
sa(dp2436
Vto
p2437
F77.18
sVconfidence
p2438
F0.589
sVspeaker
p2439
I1
sVfrom
p2440
F77.0
sVfinal
p2441
I00
sa(dp2442
Vto
p2443
F77.31
sVconfidence
p2444
F0.589
sVspeaker
p2445
I1
sVfrom
p2446
F77.18
sVfinal
p2447
I00
sa(dp2448
Vto
p2449
F77.47
sVconfidence
p2450
F0.589
sVspeaker
p2451
I1
sVfrom
p2452
F77.31
sVfinal
p2453
I00
sa(dp2454
Vto
p2455
F77.68
sVconfidence
p2456
F0.589
sVspeaker
p2457
I1
sVfrom
p2458
F77.47
sVfinal
p2459
I00
sa(dp2460
Vto
p2461
F78.06
sVconfidence
p2462
F0.407
sVspeaker
p2463
I1
sVfrom
p2464
F77.9
sVfinal
p2465
I00
sa(dp2466
Vto
p2467
F78.19
sVconfidence
p2468
F0.407
sVspeaker
p2469
I1
sVfrom
p2470
F78.06
sVfinal
p2471
I00
sa(dp2472
Vto
p2473
F78.35
sVconfidence
p2474
F0.407
sVspeaker
p2475
I1
sVfrom
p2476
F78.19
sVfinal
p2477
I00
sa(dp2478
Vto
p2479
F78.63
sVconfidence
p2480
F0.407
sVspeaker
p2481
I1
sVfrom
p2482
F78.35
sVfinal
p2483
I00
sa(dp2484
Vto
p2485
F79.07
sVconfidence
p2486
F0.407
sVspeaker
p2487
I1
sVfrom
p2488
F78.63
sVfinal
p2489
I00
sa(dp2490
Vto
p2491
F79.95
sVconfidence
p2492
F0.513
sVspeaker
p2493
I1
sVfrom
p2494
F79.75
sVfinal
p2495
I00
sa(dp2496
Vto
p2497
F80.25
sVconfidence
p2498
F0.626
sVspeaker
p2499
I1
sVfrom
p2500
F79.98
sVfinal
p2501
I00
sa(dp2502
Vto
p2503
F80.31
sVconfidence
p2504
F0.626
sVspeaker
p2505
I1
sVfrom
p2506
F80.25
sVfinal
p2507
I00
sa(dp2508
Vto
p2509
F80.73
sVconfidence
p2510
F0.626
sVspeaker
p2511
I1
sVfrom
p2512
F80.31
sVfinal
p2513
I00
sa(dp2514
Vto
p2515
F81.12
sVconfidence
p2516
F0.626
sVspeaker
p2517
I1
sVfrom
p2518
F80.73
sVfinal
p2519
I00
sa(dp2520
Vto
p2521
F81.34
sVconfidence
p2522
F0.626
sVspeaker
p2523
I1
sVfrom
p2524
F81.12
sVfinal
p2525
I00
sa(dp2526
Vto
p2527
F81.61
sVconfidence
p2528
F0.626
sVspeaker
p2529
I1
sVfrom
p2530
F81.34
sVfinal
p2531
I00
sa(dp2532
Vto
p2533
F81.76
sVconfidence
p2534
F0.626
sVspeaker
p2535
I1
sVfrom
p2536
F81.61
sVfinal
p2537
I00
sa(dp2538
Vto
p2539
F82.05
sVconfidence
p2540
F0.626
sVspeaker
p2541
I1
sVfrom
p2542
F81.76
sVfinal
p2543
I00
sa(dp2544
Vto
p2545
F82.32
sVconfidence
p2546
F0.626
sVspeaker
p2547
I1
sVfrom
p2548
F82.05
sVfinal
p2549
I00
sa(dp2550
Vto
p2551
F82.73
sVconfidence
p2552
F0.626
sVspeaker
p2553
I1
sVfrom
p2554
F82.32
sVfinal
p2555
I00
sa(dp2556
Vto
p2557
F82.9
sVconfidence
p2558
F0.626
sVspeaker
p2559
I1
sVfrom
p2560
F82.73
sVfinal
p2561
I00
sa(dp2562
Vto
p2563
F83.08
sVconfidence
p2564
F0.626
sVspeaker
p2565
I1
sVfrom
p2566
F82.9
sVfinal
p2567
I00
sa(dp2568
Vto
p2569
F83.21
sVconfidence
p2570
F0.626
sVspeaker
p2571
I1
sVfrom
p2572
F83.08
sVfinal
p2573
I00
sa(dp2574
Vto
p2575
F83.62
sVconfidence
p2576
F0.626
sVspeaker
p2577
I1
sVfrom
p2578
F83.21
sVfinal
p2579
I00
sa(dp2580
Vto
p2581
F84.23
sVconfidence
p2582
F0.556
sVspeaker
p2583
I1
sVfrom
p2584
F83.95
sVfinal
p2585
I00
sa(dp2586
Vto
p2587
F84.48
sVconfidence
p2588
F0.556
sVspeaker
p2589
I1
sVfrom
p2590
F84.23
sVfinal
p2591
I00
sa(dp2592
Vto
p2593
F84.8
sVconfidence
p2594
F0.556
sVspeaker
p2595
I1
sVfrom
p2596
F84.48
sVfinal
p2597
I00
sa(dp2598
Vto
p2599
F84.93
sVconfidence
p2600
F0.556
sVspeaker
p2601
I1
sVfrom
p2602
F84.8
sVfinal
p2603
I00
sa(dp2604
Vto
p2605
F85.12
sVconfidence
p2606
F0.556
sVspeaker
p2607
I1
sVfrom
p2608
F84.93
sVfinal
p2609
I00
sa(dp2610
Vto
p2611
F85.32
sVconfidence
p2612
F0.556
sVspeaker
p2613
I1
sVfrom
p2614
F85.12
sVfinal
p2615
I00
sa(dp2616
Vto
p2617
F85.57
sVconfidence
p2618
F0.556
sVspeaker
p2619
I1
sVfrom
p2620
F85.32
sVfinal
p2621
I00
sa(dp2622
Vto
p2623
F85.91
sVconfidence
p2624
F0.567
sVspeaker
p2625
I1
sVfrom
p2626
F85.76
sVfinal
p2627
I00
sa(dp2628
Vto
p2629
F86.11
sVconfidence
p2630
F0.567
sVspeaker
p2631
I1
sVfrom
p2632
F85.91
sVfinal
p2633
I00
sa(dp2634
Vto
p2635
F86.44
sVconfidence
p2636
F0.567
sVspeaker
p2637
I1
sVfrom
p2638
F86.11
sVfinal
p2639
I00
sa(dp2640
Vto
p2641
F86.66
sVconfidence
p2642
F0.567
sVspeaker
p2643
I1
sVfrom
p2644
F86.44
sVfinal
p2645
I00
sa(dp2646
Vto
p2647
F87.16
sVconfidence
p2648
F0.601
sVspeaker
p2649
I1
sVfrom
p2650
F86.72
sVfinal
p2651
I00
sa(dp2652
Vto
p2653
F87.24
sVconfidence
p2654
F0.601
sVspeaker
p2655
I1
sVfrom
p2656
F87.16
sVfinal
p2657
I00
sa(dp2658
Vto
p2659
F87.46
sVconfidence
p2660
F0.601
sVspeaker
p2661
I1
sVfrom
p2662
F87.24
sVfinal
p2663
I00
sa(dp2664
Vto
p2665
F88.36
sVconfidence
p2666
F0.524
sVspeaker
p2667
I1
sVfrom
p2668
F88.23
sVfinal
p2669
I00
sa(dp2670
Vto
p2671
F88.68
sVconfidence
p2672
F0.524
sVspeaker
p2673
I1
sVfrom
p2674
F88.36
sVfinal
p2675
I00
sa(dp2676
Vto
p2677
F89.15
sVconfidence
p2678
F0.524
sVspeaker
p2679
I1
sVfrom
p2680
F88.68
sVfinal
p2681
I00
sa(dp2682
Vto
p2683
F90.63
sVconfidence
p2684
F0.43
sVspeaker
p2685
I1
sVfrom
p2686
F90.51
sVfinal
p2687
I00
sa(dp2688
Vto
p2689
F90.83
sVconfidence
p2690
F0.43
sVspeaker
p2691
I1
sVfrom
p2692
F90.63
sVfinal
p2693
I00
sa(dp2694
Vto
p2695
F91.2
sVconfidence
p2696
F0.201
sVspeaker
p2697
I1
sVfrom
p2698
F91.06
sVfinal
p2699
I00
sa(dp2700
Vto
p2701
F91.32
sVconfidence
p2702
F0.201
sVspeaker
p2703
I1
sVfrom
p2704
F91.2
sVfinal
p2705
I00
sa(dp2706
Vto
p2707
F91.76
sVconfidence
p2708
F0.201
sVspeaker
p2709
I1
sVfrom
p2710
F91.32
sVfinal
p2711
I00
sa(dp2712
Vto
p2713
F92.02
sVconfidence
p2714
F0.201
sVspeaker
p2715
I1
sVfrom
p2716
F91.76
sVfinal
p2717
I00
sa(dp2718
Vto
p2719
F93.43
sVconfidence
p2720
F0.273
sVspeaker
p2721
I1
sVfrom
p2722
F93.4
sVfinal
p2723
I00
sa(dp2724
Vto
p2725
F93.61
sVconfidence
p2726
F0.273
sVspeaker
p2727
I1
sVfrom
p2728
F93.43
sVfinal
p2729
I00
sa(dp2730
Vto
p2731
F93.67
sVconfidence
p2732
F0.273
sVspeaker
p2733
I1
sVfrom
p2734
F93.61
sVfinal
p2735
I00
sa(dp2736
Vto
p2737
F94.25
sVconfidence
p2738
F0.237
sVspeaker
p2739
I1
sVfrom
p2740
F93.99
sVfinal
p2741
I00
sa(dp2742
Vto
p2743
F99.08
sVconfidence
p2744
F0.528
sVspeaker
p2745
I0
sVfrom
p2746
F98.88
sVfinal
p2747
I00
sa(dp2748
Vto
p2749
F99.22
sVconfidence
p2750
F0.528
sVspeaker
p2751
I0
sVfrom
p2752
F99.08
sVfinal
p2753
I00
sa(dp2754
Vto
p2755
F99.41
sVconfidence
p2756
F0.528
sVspeaker
p2757
I0
sVfrom
p2758
F99.22
sVfinal
p2759
I00
sa(dp2760
Vto
p2761
F99.76
sVconfidence
p2762
F0.528
sVspeaker
p2763
I0
sVfrom
p2764
F99.41
sVfinal
p2765
I00
sa(dp2766
Vto
p2767
F100.13
sVconfidence
p2768
F0.566
sVspeaker
p2769
I0
sVfrom
p2770
F99.85
sVfinal
p2771
I00
sa(dp2772
Vto
p2773
F100.31
sVconfidence
p2774
F0.566
sVspeaker
p2775
I0
sVfrom
p2776
F100.13
sVfinal
p2777
I00
sa(dp2778
Vto
p2779
F100.56
sVconfidence
p2780
F0.566
sVspeaker
p2781
I0
sVfrom
p2782
F100.31
sVfinal
p2783
I00
sa(dp2784
Vto
p2785
F100.66
sVconfidence
p2786
F0.566
sVspeaker
p2787
I0
sVfrom
p2788
F100.56
sVfinal
p2789
I00
sa(dp2790
Vto
p2791
F100.92
sVconfidence
p2792
F0.566
sVspeaker
p2793
I0
sVfrom
p2794
F100.66
sVfinal
p2795
I00
sa(dp2796
Vto
p2797
F101.14
sVconfidence
p2798
F0.566
sVspeaker
p2799
I0
sVfrom
p2800
F100.92
sVfinal
p2801
I00
sa(dp2802
Vto
p2803
F101.53
sVconfidence
p2804
F0.566
sVspeaker
p2805
I0
sVfrom
p2806
F101.14
sVfinal
p2807
I00
sa(dp2808
Vto
p2809
F101.67
sVconfidence
p2810
F0.566
sVspeaker
p2811
I0
sVfrom
p2812
F101.53
sVfinal
p2813
I00
sa(dp2814
Vto
p2815
F101.72
sVconfidence
p2816
F0.566
sVspeaker
p2817
I0
sVfrom
p2818
F101.67
sVfinal
p2819
I00
sa(dp2820
Vto
p2821
F102.0
sVconfidence
p2822
F0.566
sVspeaker
p2823
I0
sVfrom
p2824
F101.72
sVfinal
p2825
I00
sa(dp2826
Vto
p2827
F102.7
sVconfidence
p2828
F0.639
sVspeaker
p2829
I0
sVfrom
p2830
F102.31
sVfinal
p2831
I00
sa(dp2832
Vto
p2833
F102.85
sVconfidence
p2834
F0.639
sVspeaker
p2835
I0
sVfrom
p2836
F102.7
sVfinal
p2837
I00
sa(dp2838
Vto
p2839
F103.05
sVconfidence
p2840
F0.639
sVspeaker
p2841
I0
sVfrom
p2842
F102.85
sVfinal
p2843
I00
sa(dp2844
Vto
p2845
F103.39
sVconfidence
p2846
F0.547
sVspeaker
p2847
I0
sVfrom
p2848
F103.08
sVfinal
p2849
I00
sa(dp2850
Vto
p2851
F103.48
sVconfidence
p2852
F0.547
sVspeaker
p2853
I0
sVfrom
p2854
F103.39
sVfinal
p2855
I00
sa(dp2856
Vto
p2857
F103.65
sVconfidence
p2858
F0.547
sVspeaker
p2859
I0
sVfrom
p2860
F103.48
sVfinal
p2861
I00
sa(dp2862
Vto
p2863
F104.0
sVconfidence
p2864
F0.652
sVspeaker
p2865
I0
sVfrom
p2866
F103.81
sVfinal
p2867
I00
sa(dp2868
Vto
p2869
F104.25
sVconfidence
p2870
F0.617
sVspeaker
p2871
I0
sVfrom
p2872
F104.03
sVfinal
p2873
I00
sa(dp2874
Vto
p2875
F104.58
sVconfidence
p2876
F0.563
sVspeaker
p2877
I0
sVfrom
p2878
F104.28
sVfinal
p2879
I00
sa(dp2880
Vto
p2881
F105.03
sVconfidence
p2882
F0.563
sVspeaker
p2883
I0
sVfrom
p2884
F104.58
sVfinal
p2885
I00
sa(dp2886
Vto
p2887
F105.15
sVconfidence
p2888
F0.563
sVspeaker
p2889
I0
sVfrom
p2890
F105.03
sVfinal
p2891
I00
sa(dp2892
Vto
p2893
F105.37
sVconfidence
p2894
F0.563
sVspeaker
p2895
I0
sVfrom
p2896
F105.15
sVfinal
p2897
I00
sa(dp2898
Vto
p2899
F105.46
sVconfidence
p2900
F0.563
sVspeaker
p2901
I0
sVfrom
p2902
F105.37
sVfinal
p2903
I00
sa(dp2904
Vto
p2905
F105.85
sVconfidence
p2906
F0.563
sVspeaker
p2907
I0
sVfrom
p2908
F105.46
sVfinal
p2909
I00
sa(dp2910
Vto
p2911
F106.0
sVconfidence
p2912
F0.563
sVspeaker
p2913
I0
sVfrom
p2914
F105.85
sVfinal
p2915
I00
sa(dp2916
Vto
p2917
F106.23
sVconfidence
p2918
F0.656
sVspeaker
p2919
I0
sVfrom
p2920
F106.06
sVfinal
p2921
I00
sa(dp2922
Vto
p2923
F106.56
sVconfidence
p2924
F0.656
sVspeaker
p2925
I0
sVfrom
p2926
F106.23
sVfinal
p2927
I00
sa(dp2928
Vto
p2929
F107.03
sVconfidence
p2930
F0.556
sVspeaker
p2931
I0
sVfrom
p2932
F106.84
sVfinal
p2933
I00
sa(dp2934
Vto
p2935
F107.14
sVconfidence
p2936
F0.556
sVspeaker
p2937
I0
sVfrom
p2938
F107.03
sVfinal
p2939
I00
sa(dp2940
Vto
p2941
F107.46
sVconfidence
p2942
F0.556
sVspeaker
p2943
I0
sVfrom
p2944
F107.14
sVfinal
p2945
I00
sa(dp2946
Vto
p2947
F107.77
sVconfidence
p2948
F0.556
sVspeaker
p2949
I0
sVfrom
p2950
F107.46
sVfinal
p2951
I00
sa(dp2952
Vto
p2953
F108.06
sVconfidence
p2954
F0.556
sVspeaker
p2955
I0
sVfrom
p2956
F107.77
sVfinal
p2957
I00
sa(dp2958
Vto
p2959
F108.7
sVconfidence
p2960
F0.613
sVspeaker
p2961
I0
sVfrom
p2962
F108.3
sVfinal
p2963
I00
sa(dp2964
Vto
p2965
F108.87
sVconfidence
p2966
F0.613
sVspeaker
p2967
I0
sVfrom
p2968
F108.7
sVfinal
p2969
I00
sa(dp2970
Vto
p2971
F109.02
sVconfidence
p2972
F0.613
sVspeaker
p2973
I0
sVfrom
p2974
F108.87
sVfinal
p2975
I00
sa(dp2976
Vto
p2977
F109.08
sVconfidence
p2978
F0.613
sVspeaker
p2979
I0
sVfrom
p2980
F109.02
sVfinal
p2981
I00
sa(dp2982
Vto
p2983
F109.24
sVconfidence
p2984
F0.613
sVspeaker
p2985
I0
sVfrom
p2986
F109.08
sVfinal
p2987
I00
sa(dp2988
Vto
p2989
F109.57
sVconfidence
p2990
F0.613
sVspeaker
p2991
I0
sVfrom
p2992
F109.24
sVfinal
p2993
I00
sa(dp2994
Vto
p2995
F109.95
sVconfidence
p2996
F0.532
sVspeaker
p2997
I0
sVfrom
p2998
F109.72
sVfinal
p2999
I00
sa(dp3000
Vto
p3001
F110.35
sVconfidence
p3002
F0.532
sVspeaker
p3003
I0
sVfrom
p3004
F109.95
sVfinal
p3005
I00
sa(dp3006
Vto
p3007
F110.47
sVconfidence
p3008
F0.532
sVspeaker
p3009
I0
sVfrom
p3010
F110.35
sVfinal
p3011
I00
sa(dp3012
Vto
p3013
F110.64
sVconfidence
p3014
F0.532
sVspeaker
p3015
I0
sVfrom
p3016
F110.47
sVfinal
p3017
I00
sa(dp3018
Vto
p3019
F110.82
sVconfidence
p3020
F0.532
sVspeaker
p3021
I0
sVfrom
p3022
F110.64
sVfinal
p3023
I00
sa(dp3024
Vto
p3025
F110.89
sVconfidence
p3026
F0.532
sVspeaker
p3027
I0
sVfrom
p3028
F110.82
sVfinal
p3029
I00
sa(dp3030
Vto
p3031
F110.95
sVconfidence
p3032
F0.532
sVspeaker
p3033
I0
sVfrom
p3034
F110.89
sVfinal
p3035
I00
sa(dp3036
Vto
p3037
F111.18
sVconfidence
p3038
F0.532
sVspeaker
p3039
I0
sVfrom
p3040
F110.95
sVfinal
p3041
I00
sa(dp3042
Vto
p3043
F111.63
sVconfidence
p3044
F0.606
sVspeaker
p3045
I1
sVfrom
p3046
F111.21
sVfinal
p3047
I00
sa(dp3048
Vto
p3049
F111.98
sVconfidence
p3050
F0.448
sVspeaker
p3051
I1
sVfrom
p3052
F111.77
sVfinal
p3053
I00
sa(dp3054
Vto
p3055
F112.64
sVconfidence
p3056
F0.551
sVspeaker
p3057
I1
sVfrom
p3058
F112.12
sVfinal
p3059
I00
sa(dp3060
Vto
p3061
F112.76
sVconfidence
p3062
F0.551
sVspeaker
p3063
I1
sVfrom
p3064
F112.64
sVfinal
p3065
I00
sa(dp3066
Vto
p3067
F112.84
sVconfidence
p3068
F0.551
sVspeaker
p3069
I1
sVfrom
p3070
F112.76
sVfinal
p3071
I00
sa(dp3072
Vto
p3073
F113.1
sVconfidence
p3074
F0.551
sVspeaker
p3075
I1
sVfrom
p3076
F112.84
sVfinal
p3077
I00
sa(dp3078
Vto
p3079
F113.54
sVconfidence
p3080
F0.551
sVspeaker
p3081
I1
sVfrom
p3082
F113.1
sVfinal
p3083
I00
sa(dp3084
Vto
p3085
F114.18
sVconfidence
p3086
F0.552
sVspeaker
p3087
I1
sVfrom
p3088
F113.71
sVfinal
p3089
I00
sa(dp3090
Vto
p3091
F114.77
sVconfidence
p3092
F0.574
sVspeaker
p3093
I0
sVfrom
p3094
F114.24
sVfinal
p3095
I00
sa(dp3096
Vto
p3097
F115.19
sVconfidence
p3098
F0.611
sVspeaker
p3099
I1
sVfrom
p3100
F114.9
sVfinal
p3101
I00
sa(dp3102
Vto
p3103
F115.44
sVconfidence
p3104
F0.611
sVspeaker
p3105
I1
sVfrom
p3106
F115.19
sVfinal
p3107
I00
sa(dp3108
Vto
p3109
F115.53
sVconfidence
p3110
F0.611
sVspeaker
p3111
I1
sVfrom
p3112
F115.44
sVfinal
p3113
I00
sa(dp3114
Vto
p3115
F115.85
sVconfidence
p3116
F0.611
sVspeaker
p3117
I1
sVfrom
p3118
F115.53
sVfinal
p3119
I00
sa(dp3120
Vto
p3121
F115.92
sVconfidence
p3122
F0.611
sVspeaker
p3123
I1
sVfrom
p3124
F115.85
sVfinal
p3125
I00
sa(dp3126
Vto
p3127
F116.06
sVconfidence
p3128
F0.611
sVspeaker
p3129
I1
sVfrom
p3130
F115.92
sVfinal
p3131
I00
sa(dp3132
Vto
p3133
F116.14
sVconfidence
p3134
F0.611
sVspeaker
p3135
I1
sVfrom
p3136
F116.06
sVfinal
p3137
I00
sa(dp3138
Vto
p3139
F116.35
sVconfidence
p3140
F0.611
sVspeaker
p3141
I1
sVfrom
p3142
F116.14
sVfinal
p3143
I00
sa(dp3144
Vto
p3145
F116.72
sVconfidence
p3146
F0.611
sVspeaker
p3147
I1
sVfrom
p3148
F116.35
sVfinal
p3149
I00
sa(dp3150
Vto
p3151
F116.92
sVconfidence
p3152
F0.611
sVspeaker
p3153
I1
sVfrom
p3154
F116.72
sVfinal
p3155
I00
sa(dp3156
Vto
p3157
F117.14
sVconfidence
p3158
F0.611
sVspeaker
p3159
I1
sVfrom
p3160
F116.92
sVfinal
p3161
I00
sa(dp3162
Vto
p3163
F117.3
sVconfidence
p3164
F0.467
sVspeaker
p3165
I1
sVfrom
p3166
F117.17
sVfinal
p3167
I00
sa(dp3168
Vto
p3169
F117.39
sVconfidence
p3170
F0.467
sVspeaker
p3171
I1
sVfrom
p3172
F117.3
sVfinal
p3173
I00
sa(dp3174
Vto
p3175
F117.79
sVconfidence
p3176
F0.467
sVspeaker
p3177
I1
sVfrom
p3178
F117.39
sVfinal
p3179
I00
sa(dp3180
Vto
p3181
F118.27
sVconfidence
p3182
F0.515
sVspeaker
p3183
I1
sVfrom
p3184
F117.82
sVfinal
p3185
I00
sa(dp3186
Vto
p3187
F118.79
sVconfidence
p3188
F0.434
sVspeaker
p3189
I1
sVfrom
p3190
F118.52
sVfinal
p3191
I00
sa(dp3192
Vto
p3193
F119.14
sVconfidence
p3194
F0.434
sVspeaker
p3195
I1
sVfrom
p3196
F118.79
sVfinal
p3197
I00
sa(dp3198
Vto
p3199
F119.72
sVconfidence
p3200
F0.564
sVspeaker
p3201
I1
sVfrom
p3202
F119.21
sVfinal
p3203
I00
sa(dp3204
Vto
p3205
F119.88
sVconfidence
p3206
F0.564
sVspeaker
p3207
I1
sVfrom
p3208
F119.72
sVfinal
p3209
I00
sa(dp3210
Vto
p3211
F120.0
sVconfidence
p3212
F0.564
sVspeaker
p3213
I1
sVfrom
p3214
F119.88
sVfinal
p3215
I00
sa(dp3216
Vto
p3217
F120.38
sVconfidence
p3218
F0.564
sVspeaker
p3219
I1
sVfrom
p3220
F120.0
sVfinal
p3221
I00
sa(dp3222
Vto
p3223
F120.95
sVconfidence
p3224
F0.647
sVspeaker
p3225
I1
sVfrom
p3226
F120.72
sVfinal
p3227
I00
sa(dp3228
Vto
p3229
F121.05
sVconfidence
p3230
F0.647
sVspeaker
p3231
I1
sVfrom
p3232
F120.95
sVfinal
p3233
I00
sa(dp3234
Vto
p3235
F121.61
sVconfidence
p3236
F0.647
sVspeaker
p3237
I1
sVfrom
p3238
F121.05
sVfinal
p3239
I00
sa(dp3240
Vto
p3241
F122.61
sVconfidence
p3242
F0.657
sVspeaker
p3243
I1
sVfrom
p3244
F122.0
sVfinal
p3245
I00
sa(dp3246
Vto
p3247
F123.75
sVconfidence
p3248
F0.656
sVspeaker
p3249
I1
sVfrom
p3250
F123.06
sVfinal
p3251
I00
sa(dp3252
Vto
p3253
F123.8
sVconfidence
p3254
F0.656
sVspeaker
p3255
I1
sVfrom
p3256
F123.75
sVfinal
p3257
I00
sa(dp3258
Vto
p3259
F124.05
sVconfidence
p3260
F0.656
sVspeaker
p3261
I1
sVfrom
p3262
F123.8
sVfinal
p3263
I00
sa(dp3264
Vto
p3265
F124.11
sVconfidence
p3266
F0.656
sVspeaker
p3267
I1
sVfrom
p3268
F124.05
sVfinal
p3269
I00
sa(dp3270
Vto
p3271
F124.26
sVconfidence
p3272
F0.656
sVspeaker
p3273
I1
sVfrom
p3274
F124.11
sVfinal
p3275
I00
sa(dp3276
Vto
p3277
F124.35
sVconfidence
p3278
F0.656
sVspeaker
p3279
I1
sVfrom
p3280
F124.26
sVfinal
p3281
I00
sa(dp3282
Vto
p3283
F124.82
sVconfidence
p3284
F0.656
sVspeaker
p3285
I1
sVfrom
p3286
F124.35
sVfinal
p3287
I00
sa(dp3288
Vto
p3289
F125.99
sVconfidence
p3290
F0.632
sVspeaker
p3291
I1
sVfrom
p3292
F125.29
sVfinal
p3293
I00
sa(dp3294
Vto
p3295
F126.93
sVconfidence
p3296
F0.505
sVspeaker
p3297
I1
sVfrom
p3298
F126.02
sVfinal
p3299
I00
sa(dp3300
Vto
p3301
F127.64
sVconfidence
p3302
F0.61
sVspeaker
p3303
I1
sVfrom
p3304
F126.96
sVfinal
p3305
I00
sa(dp3306
Vto
p3307
F127.84
sVconfidence
p3308
F0.628
sVspeaker
p3309
I1
sVfrom
p3310
F127.67
sVfinal
p3311
I00
sa(dp3312
Vto
p3313
F128.19
sVconfidence
p3314
F0.628
sVspeaker
p3315
I1
sVfrom
p3316
F127.84
sVfinal
p3317
I00
sa(dp3318
Vto
p3319
F128.99
sVconfidence
p3320
F0.4
sVspeaker
p3321
I0
sVfrom
p3322
F128.55
sVfinal
p3323
I00
sa(dp3324
Vto
p3325
F129.33
sVconfidence
p3326
F0.567
sVspeaker
p3327
I1
sVfrom
p3328
F129.02
sVfinal
p3329
I00
sa(dp3330
Vto
p3331
F129.42
sVconfidence
p3332
F0.567
sVspeaker
p3333
I1
sVfrom
p3334
F129.33
sVfinal
p3335
I00
sa(dp3336
Vto
p3337
F129.75
sVconfidence
p3338
F0.567
sVspeaker
p3339
I1
sVfrom
p3340
F129.42
sVfinal
p3341
I00
sa(dp3342
Vto
p3343
F130.05
sVconfidence
p3344
F0.613
sVspeaker
p3345
I1
sVfrom
p3346
F129.78
sVfinal
p3347
I00
sa(dp3348
Vto
p3349
F130.22
sVconfidence
p3350
F0.613
sVspeaker
p3351
I1
sVfrom
p3352
F130.05
sVfinal
p3353
I00
sa(dp3354
Vto
p3355
F130.28
sVconfidence
p3356
F0.613
sVspeaker
p3357
I1
sVfrom
p3358
F130.22
sVfinal
p3359
I00
sa(dp3360
Vto
p3361
F130.77
sVconfidence
p3362
F0.613
sVspeaker
p3363
I1
sVfrom
p3364
F130.28
sVfinal
p3365
I00
sa(dp3366
Vto
p3367
F131.11
sVconfidence
p3368
F0.613
sVspeaker
p3369
I1
sVfrom
p3370
F130.77
sVfinal
p3371
I00
sa(dp3372
Vto
p3373
F131.3
sVconfidence
p3374
F0.613
sVspeaker
p3375
I1
sVfrom
p3376
F131.11
sVfinal
p3377
I00
sa(dp3378
Vto
p3379
F131.51
sVconfidence
p3380
F0.613
sVspeaker
p3381
I1
sVfrom
p3382
F131.3
sVfinal
p3383
I00
sa(dp3384
Vto
p3385
F131.74
sVconfidence
p3386
F0.613
sVspeaker
p3387
I1
sVfrom
p3388
F131.51
sVfinal
p3389
I00
sa(dp3390
Vto
p3391
F132.13
sVconfidence
p3392
F0.572
sVspeaker
p3393
I1
sVfrom
p3394
F131.8
sVfinal
p3395
I00
sa(dp3396
Vto
p3397
F132.23
sVconfidence
p3398
F0.572
sVspeaker
p3399
I1
sVfrom
p3400
F132.13
sVfinal
p3401
I00
sa(dp3402
Vto
p3403
F132.35
sVconfidence
p3404
F0.572
sVspeaker
p3405
I1
sVfrom
p3406
F132.23
sVfinal
p3407
I00
sa(dp3408
Vto
p3409
F132.6
sVconfidence
p3410
F0.572
sVspeaker
p3411
I1
sVfrom
p3412
F132.35
sVfinal
p3413
I00
sa(dp3414
Vto
p3415
F132.73
sVconfidence
p3416
F0.572
sVspeaker
p3417
I1
sVfrom
p3418
F132.6
sVfinal
p3419
I00
sa(dp3420
Vto
p3421
F132.98
sVconfidence
p3422
F0.572
sVspeaker
p3423
I1
sVfrom
p3424
F132.73
sVfinal
p3425
I00
sa(dp3426
Vto
p3427
F133.14
sVconfidence
p3428
F0.572
sVspeaker
p3429
I1
sVfrom
p3430
F132.98
sVfinal
p3431
I00
sa(dp3432
Vto
p3433
F133.69
sVconfidence
p3434
F0.572
sVspeaker
p3435
I1
sVfrom
p3436
F133.14
sVfinal
p3437
I00
sa(dp3438
Vto
p3439
F134.2
sVconfidence
p3440
F0.492
sVspeaker
p3441
I1
sVfrom
p3442
F134.01
sVfinal
p3443
I00
sa(dp3444
Vto
p3445
F134.69
sVconfidence
p3446
F0.492
sVspeaker
p3447
I1
sVfrom
p3448
F134.2
sVfinal
p3449
I00
sa(dp3450
Vto
p3451
F135.21
sVconfidence
p3452
F0.439
sVspeaker
p3453
I0
sVfrom
p3454
F134.86
sVfinal
p3455
I00
sa(dp3456
Vto
p3457
F135.5
sVconfidence
p3458
F0.439
sVspeaker
p3459
I0
sVfrom
p3460
F135.21
sVfinal
p3461
I00
sa(dp3462
Vto
p3463
F135.77
sVconfidence
p3464
F0.591
sVspeaker
p3465
I1
sVfrom
p3466
F135.53
sVfinal
p3467
I00
sa(dp3468
Vto
p3469
F135.81
sVconfidence
p3470
F0.591
sVspeaker
p3471
I1
sVfrom
p3472
F135.77
sVfinal
p3473
I00
sa(dp3474
Vto
p3475
F136.11
sVconfidence
p3476
F0.591
sVspeaker
p3477
I1
sVfrom
p3478
F135.81
sVfinal
p3479
I00
sa(dp3480
Vto
p3481
F136.19
sVconfidence
p3482
F0.591
sVspeaker
p3483
I1
sVfrom
p3484
F136.11
sVfinal
p3485
I00
sa(dp3486
Vto
p3487
F136.4
sVconfidence
p3488
F0.591
sVspeaker
p3489
I1
sVfrom
p3490
F136.19
sVfinal
p3491
I00
sa(dp3492
Vto
p3493
F136.71
sVconfidence
p3494
F0.591
sVspeaker
p3495
I1
sVfrom
p3496
F136.4
sVfinal
p3497
I00
sa(dp3498
Vto
p3499
F137.63
sVconfidence
p3500
F0.615
sVspeaker
p3501
I0
sVfrom
p3502
F137.25
sVfinal
p3503
I00
sa(dp3504
Vto
p3505
F137.77
sVconfidence
p3506
F0.615
sVspeaker
p3507
I0
sVfrom
p3508
F137.63
sVfinal
p3509
I00
sa(dp3510
Vto
p3511
F138.09
sVconfidence
p3512
F0.615
sVspeaker
p3513
I0
sVfrom
p3514
F137.77
sVfinal
p3515
I00
sa(dp3516
Vto
p3517
F138.23
sVconfidence
p3518
F0.615
sVspeaker
p3519
I0
sVfrom
p3520
F138.09
sVfinal
p3521
I00
sa(dp3522
Vto
p3523
F138.53
sVconfidence
p3524
F0.615
sVspeaker
p3525
I0
sVfrom
p3526
F138.23
sVfinal
p3527
I00
sa(dp3528
Vto
p3529
F139.17
sVconfidence
p3530
F0.615
sVspeaker
p3531
I0
sVfrom
p3532
F138.53
sVfinal
p3533
I00
sa(dp3534
Vto
p3535
F139.41
sVconfidence
p3536
F0.615
sVspeaker
p3537
I0
sVfrom
p3538
F139.17
sVfinal
p3539
I00
sa(dp3540
Vto
p3541
F139.61
sVconfidence
p3542
F0.615
sVspeaker
p3543
I0
sVfrom
p3544
F139.41
sVfinal
p3545
I00
sa(dp3546
Vto
p3547
F139.86
sVconfidence
p3548
F0.615
sVspeaker
p3549
I0
sVfrom
p3550
F139.61
sVfinal
p3551
I00
sa(dp3552
Vto
p3553
F140.07
sVconfidence
p3554
F0.615
sVspeaker
p3555
I0
sVfrom
p3556
F139.86
sVfinal
p3557
I00
sa(dp3558
Vto
p3559
F140.33
sVconfidence
p3560
F0.583
sVspeaker
p3561
I0
sVfrom
p3562
F140.1
sVfinal
p3563
I00
sa(dp3564
Vto
p3565
F141.04
sVconfidence
p3566
F0.583
sVspeaker
p3567
I0
sVfrom
p3568
F140.33
sVfinal
p3569
I00
sa(dp3570
Vto
p3571
F141.81
sVconfidence
p3572
F0.555
sVspeaker
p3573
I0
sVfrom
p3574
F141.28
sVfinal
p3575
I00
sa(dp3576
Vto
p3577
F141.98
sVconfidence
p3578
F0.592
sVspeaker
p3579
I0
sVfrom
p3580
F141.84
sVfinal
p3581
I00
sa(dp3582
Vto
p3583
F142.06
sVconfidence
p3584
F0.592
sVspeaker
p3585
I0
sVfrom
p3586
F141.98
sVfinal
p3587
I00
sa(dp3588
Vto
p3589
F142.26
sVconfidence
p3590
F0.592
sVspeaker
p3591
I0
sVfrom
p3592
F142.06
sVfinal
p3593
I00
sa(dp3594
Vto
p3595
F142.45
sVconfidence
p3596
F0.592
sVspeaker
p3597
I0
sVfrom
p3598
F142.26
sVfinal
p3599
I00
sa(dp3600
Vto
p3601
F142.59
sVconfidence
p3602
F0.592
sVspeaker
p3603
I0
sVfrom
p3604
F142.45
sVfinal
p3605
I00
sa(dp3606
Vto
p3607
F142.95
sVconfidence
p3608
F0.592
sVspeaker
p3609
I0
sVfrom
p3610
F142.59
sVfinal
p3611
I00
sa(dp3612
Vto
p3613
F143.1
sVconfidence
p3614
F0.592
sVspeaker
p3615
I0
sVfrom
p3616
F142.95
sVfinal
p3617
I00
sa(dp3618
Vto
p3619
F143.57
sVconfidence
p3620
F0.592
sVspeaker
p3621
I0
sVfrom
p3622
F143.1
sVfinal
p3623
I00
sa(dp3624
Vto
p3625
F144.1
sVconfidence
p3626
F0.617
sVspeaker
p3627
I0
sVfrom
p3628
F143.98
sVfinal
p3629
I00
sa(dp3630
Vto
p3631
F144.19
sVconfidence
p3632
F0.617
sVspeaker
p3633
I0
sVfrom
p3634
F144.1
sVfinal
p3635
I00
sa(dp3636
Vto
p3637
F144.92
sVconfidence
p3638
F0.617
sVspeaker
p3639
I0
sVfrom
p3640
F144.19
sVfinal
p3641
I00
sa(dp3642
Vto
p3643
F145.48
sVconfidence
p3644
F0.617
sVspeaker
p3645
I0
sVfrom
p3646
F144.92
sVfinal
p3647
I00
sa(dp3648
Vto
p3649
F145.67
sVconfidence
p3650
F0.594
sVspeaker
p3651
I0
sVfrom
p3652
F145.51
sVfinal
p3653
I00
sa(dp3654
Vto
p3655
F145.87
sVconfidence
p3656
F0.594
sVspeaker
p3657
I0
sVfrom
p3658
F145.67
sVfinal
p3659
I00
sa(dp3660
Vto
p3661
F146.41
sVconfidence
p3662
F0.594
sVspeaker
p3663
I0
sVfrom
p3664
F145.87
sVfinal
p3665
I00
sa(dp3666
Vto
p3667
F146.59
sVconfidence
p3668
F0.594
sVspeaker
p3669
I0
sVfrom
p3670
F146.41
sVfinal
p3671
I00
sa(dp3672
Vto
p3673
F146.87
sVconfidence
p3674
F0.594
sVspeaker
p3675
I0
sVfrom
p3676
F146.59
sVfinal
p3677
I00
sa(dp3678
Vto
p3679
F147.06
sVconfidence
p3680
F0.594
sVspeaker
p3681
I0
sVfrom
p3682
F146.87
sVfinal
p3683
I00
sa(dp3684
Vto
p3685
F147.32
sVconfidence
p3686
F0.594
sVspeaker
p3687
I0
sVfrom
p3688
F147.06
sVfinal
p3689
I00
sa(dp3690
Vto
p3691
F147.96
sVconfidence
p3692
F0.594
sVspeaker
p3693
I0
sVfrom
p3694
F147.32
sVfinal
p3695
I00
sa(dp3696
Vto
p3697
F148.71
sVconfidence
p3698
F0.567
sVspeaker
p3699
I0
sVfrom
p3700
F148.3
sVfinal
p3701
I00
sa(dp3702
Vto
p3703
F148.99
sVconfidence
p3704
F0.567
sVspeaker
p3705
I0
sVfrom
p3706
F148.71
sVfinal
p3707
I00
sa(dp3708
Vto
p3709
F149.61
sVconfidence
p3710
F0.567
sVspeaker
p3711
I0
sVfrom
p3712
F148.99
sVfinal
p3713
I00
sa(dp3714
Vto
p3715
F150.08
sVconfidence
p3716
F0.631
sVspeaker
p3717
I0
sVfrom
p3718
F149.64
sVfinal
p3719
I00
sa(dp3720
Vto
p3721
F150.85
sVconfidence
p3722
F0.605
sVspeaker
p3723
I0
sVfrom
p3724
F150.51
sVfinal
p3725
I00
sa(dp3726
Vto
p3727
F151.03
sVconfidence
p3728
F0.605
sVspeaker
p3729
I0
sVfrom
p3730
F150.85
sVfinal
p3731
I00
sa(dp3732
Vto
p3733
F151.41
sVconfidence
p3734
F0.498
sVspeaker
p3735
I1
sVfrom
p3736
F151.29
sVfinal
p3737
I00
sa(dp3738
Vto
p3739
F151.6
sVconfidence
p3740
F0.498
sVspeaker
p3741
I1
sVfrom
p3742
F151.41
sVfinal
p3743
I00
sa(dp3744
Vto
p3745
F151.74
sVconfidence
p3746
F0.498
sVspeaker
p3747
I1
sVfrom
p3748
F151.6
sVfinal
p3749
I00
sa(dp3750
Vto
p3751
F152.0
sVconfidence
p3752
F0.498
sVspeaker
p3753
I1
sVfrom
p3754
F151.74
sVfinal
p3755
I00
sa(dp3756
Vto
p3757
F152.21
sVconfidence
p3758
F0.498
sVspeaker
p3759
I1
sVfrom
p3760
F152.0
sVfinal
p3761
I00
sa(dp3762
Vto
p3763
F152.29
sVconfidence
p3764
F0.498
sVspeaker
p3765
I1
sVfrom
p3766
F152.21
sVfinal
p3767
I00
sa(dp3768
Vto
p3769
F152.71
sVconfidence
p3770
F0.498
sVspeaker
p3771
I1
sVfrom
p3772
F152.29
sVfinal
p3773
I00
sa(dp3774
Vto
p3775
F153.16
sVconfidence
p3776
F0.498
sVspeaker
p3777
I1
sVfrom
p3778
F152.71
sVfinal
p3779
I00
sa(dp3780
Vto
p3781
F153.54
sVconfidence
p3782
F0.53
sVspeaker
p3783
I1
sVfrom
p3784
F153.21
sVfinal
p3785
I00
sa(dp3786
Vto
p3787
F153.74
sVconfidence
p3788
F0.405
sVspeaker
p3789
I1
sVfrom
p3790
F153.57
sVfinal
p3791
I00
sa(dp3792
Vto
p3793
F154.49
sVconfidence
p3794
F0.517
sVspeaker
p3795
I1
sVfrom
p3796
F153.78
sVfinal
p3797
I00
sa(dp3798
Vto
p3799
F155.63
sVconfidence
p3800
F0.531
sVspeaker
p3801
I1
sVfrom
p3802
F154.68
sVfinal
p3803
I00
sa(dp3804
Vto
p3805
F156.0
sVconfidence
p3806
F0.531
sVspeaker
p3807
I1
sVfrom
p3808
F155.63
sVfinal
p3809
I00
sa(dp3810
Vto
p3811
F157.55
sVconfidence
p3812
F0.49
sVspeaker
p3813
I1
sVfrom
p3814
F157.38
sVfinal
p3815
I00
sa(dp3816
Vto
p3817
F158.0
sVconfidence
p3818
F0.501
sVspeaker
p3819
I0
sVfrom
p3820
F157.73
sVfinal
p3821
I00
sa(dp3822
Vto
p3823
F158.5
sVconfidence
p3824
F0.513
sVspeaker
p3825
I1
sVfrom
p3826
F158.33
sVfinal
p3827
I00
sa(dp3828
Vto
p3829
F158.68
sVconfidence
p3830
F0.513
sVspeaker
p3831
I1
sVfrom
p3832
F158.5
sVfinal
p3833
I00
sa(dp3834
Vto
p3835
F159.0
sVconfidence
p3836
F0.513
sVspeaker
p3837
I1
sVfrom
p3838
F158.68
sVfinal
p3839
I00
sa(dp3840
Vto
p3841
F159.16
sVconfidence
p3842
F0.513
sVspeaker
p3843
I1
sVfrom
p3844
F159.0
sVfinal
p3845
I00
sa(dp3846
Vto
p3847
F159.34
sVconfidence
p3848
F0.513
sVspeaker
p3849
I1
sVfrom
p3850
F159.16
sVfinal
p3851
I00
sa(dp3852
Vto
p3853
F159.77
sVconfidence
p3854
F0.513
sVspeaker
p3855
I1
sVfrom
p3856
F159.34
sVfinal
p3857
I00
sa(dp3858
Vto
p3859
F160.05
sVconfidence
p3860
F0.569
sVspeaker
p3861
I1
sVfrom
p3862
F159.82
sVfinal
p3863
I00
sa(dp3864
Vto
p3865
F160.23
sVconfidence
p3866
F0.569
sVspeaker
p3867
I1
sVfrom
p3868
F160.05
sVfinal
p3869
I00
sa(dp3870
Vto
p3871
F160.5
sVconfidence
p3872
F0.569
sVspeaker
p3873
I1
sVfrom
p3874
F160.23
sVfinal
p3875
I00
sa(dp3876
Vto
p3877
F160.77
sVconfidence
p3878
F0.569
sVspeaker
p3879
I1
sVfrom
p3880
F160.5
sVfinal
p3881
I00
sa(dp3882
Vto
p3883
F160.89
sVconfidence
p3884
F0.569
sVspeaker
p3885
I1
sVfrom
p3886
F160.77
sVfinal
p3887
I00
sa(dp3888
Vto
p3889
F161.42
sVconfidence
p3890
F0.569
sVspeaker
p3891
I1
sVfrom
p3892
F160.89
sVfinal
p3893
I00
sa(dp3894
Vto
p3895
F162.18
sVconfidence
p3896
F0.632
sVspeaker
p3897
I1
sVfrom
p3898
F161.81
sVfinal
p3899
I00
sa(dp3900
Vto
p3901
F162.43
sVconfidence
p3902
F0.632
sVspeaker
p3903
I1
sVfrom
p3904
F162.18
sVfinal
p3905
I00
sa(dp3906
Vto
p3907
F162.55
sVconfidence
p3908
F0.632
sVspeaker
p3909
I1
sVfrom
p3910
F162.43
sVfinal
p3911
I00
sa(dp3912
Vto
p3913
F162.68
sVconfidence
p3914
F0.632
sVspeaker
p3915
I1
sVfrom
p3916
F162.55
sVfinal
p3917
I00
sa(dp3918
Vto
p3919
F162.96
sVconfidence
p3920
F0.632
sVspeaker
p3921
I1
sVfrom
p3922
F162.68
sVfinal
p3923
I00
sa(dp3924
Vto
p3925
F163.17
sVconfidence
p3926
F0.632
sVspeaker
p3927
I1
sVfrom
p3928
F162.96
sVfinal
p3929
I00
sa(dp3930
Vto
p3931
F164.48
sVconfidence
p3932
F0.473
sVspeaker
p3933
I1
sVfrom
p3934
F164.28
sVfinal
p3935
I00
sa(dp3936
Vto
p3937
F165.09
sVconfidence
p3938
F0.307
sVspeaker
p3939
I1
sVfrom
p3940
F164.73
sVfinal
p3941
I00
sa(dp3942
Vto
p3943
F165.27
sVconfidence
p3944
F0.562
sVspeaker
p3945
I1
sVfrom
p3946
F165.12
sVfinal
p3947
I00
sa(dp3948
Vto
p3949
F165.55
sVconfidence
p3950
F0.562
sVspeaker
p3951
I1
sVfrom
p3952
F165.27
sVfinal
p3953
I00
sa(dp3954
Vto
p3955
F165.95
sVconfidence
p3956
F0.562
sVspeaker
p3957
I1
sVfrom
p3958
F165.55
sVfinal
p3959
I00
sa(dp3960
Vto
p3961
F166.38
sVconfidence
p3962
F0.633
sVspeaker
p3963
I1
sVfrom
p3964
F166.21
sVfinal
p3965
I00
sa(dp3966
Vto
p3967
F166.55
sVconfidence
p3968
F0.633
sVspeaker
p3969
I1
sVfrom
p3970
F166.38
sVfinal
p3971
I00
sa(dp3972
Vto
p3973
F166.62
sVconfidence
p3974
F0.633
sVspeaker
p3975
I1
sVfrom
p3976
F166.55
sVfinal
p3977
I00
sa(dp3978
Vto
p3979
F166.87
sVconfidence
p3980
F0.633
sVspeaker
p3981
I1
sVfrom
p3982
F166.62
sVfinal
p3983
I00
sa(dp3984
Vto
p3985
F167.39
sVconfidence
p3986
F0.633
sVspeaker
p3987
I1
sVfrom
p3988
F166.87
sVfinal
p3989
I00
sa(dp3990
Vto
p3991
F167.58
sVconfidence
p3992
F0.633
sVspeaker
p3993
I1
sVfrom
p3994
F167.39
sVfinal
p3995
I00
sa(dp3996
Vto
p3997
F167.98
sVconfidence
p3998
F0.633
sVspeaker
p3999
I1
sVfrom
p4000
F167.58
sVfinal
p4001
I00
sa(dp4002
Vto
p4003
F168.71
sVconfidence
p4004
F0.58
sVspeaker
p4005
I1
sVfrom
p4006
F168.08
sVfinal
p4007
I01
sas.