(dp0
Vresults
p1
(lp2
(dp3
Valternatives
p4
(lp5
(dp6
Vtimestamps
p7
(lp8
(lp9
Vthis
p10
aF2.11
aF2.25
aa(lp11
Vis
p12
aF3.59
aF3.78
aa(lp13
Vthe
p14
aF3.92
aF4.04
aa(lp15
Vway
p16
aF4.04
aF4.44
aa(lp17
Vit
p18
aF4.96
aF5.06
aa(lp19
Vis
p20
aF5.06
aF5.31
aa(lp21
Vright
p22
aF5.79
aF6.04
aa(lp23
Vup
p24
aF6.16
aF6.3
aa(lp25
Vto
p26
aF6.33
aF6.48
aa(lp27
Vthis
p28
aF6.48
aF6.68
aa(lp29
Vposition
p30
aF6.99
aF7.53
aa(lp31
Vis
p32
aF7.53
aF7.76
aa(lp33
Vfull
p34
aF7.76
aF8.03
aa(lp35
Vof
p36
aF8.03
aF8.18
aa(lp37
Vthe
p38
aF8.18
aF8.38
aa(lp39
Vinjured
p40
aF8.38
aF8.78
aasVconfidence
p41
F0.655
sVtranscript
p42
Vthis is the way it is right up to this position is full of the injured 
p43
sasVfinal
p44
I01
sa(dp45
Valternatives
p46
(lp47
(dp48
Vtimestamps
p49
(lp50
(lp51
Vwe
p52
aF9.9
aF10.04
aa(lp53
Vknow
p54
aF10.04
aF10.15
aa(lp55
Vthat
p56
aF10.15
aF10.3
aa(lp57
Vit's
p58
aF10.3
aF10.44
aa(lp59
Vbeing
p60
aF10.44
aF10.67
aa(lp61
Vsold
p62
aF10.94
aF11.21
aa(lp63
Vby
p64
aF11.21
aF11.38
aa(lp65
Vthe
p66
aF11.38
aF11.51
aa(lp67
Vall
p68
aF11.51
aF11.65
aa(lp69
Vblacks
p70
aF11.65
aF11.93
aa(lp71
Vcoming
p72
aF11.93
aF12.22
aa(lp73
Vthrough
p74
aF12.22
aF12.49
aasVconfidence
p75
F0.574
sVtranscript
p76
Vwe know that it's being sold by the all blacks coming through 
p77
sasVfinal
p78
I01
sa(dp79
Valternatives
p80
(lp81
(dp82
Vtimestamps
p83
(lp84
(lp85
Vhere
p86
aF13.97
aF14.19
aa(lp87
Vin
p88
aF14.19
aF14.28
aa(lp89
Vour
p90
aF14.28
aF14.6
aasVconfidence
p91
F0.372
sVtranscript
p92
Vhere in our 
p93
sasVfinal
p94
I01
sa(dp95
Valternatives
p96
(lp97
(dp98
Vtimestamps
p99
(lp100
(lp101
Vyeah
p102
aF15.38
aF15.55
aa(lp103
Vmoody
p104
aF15.55
aF16.05
aasVconfidence
p105
F0.499
sVtranscript
p106
Vyeah moody 
p107
sasVfinal
p108
I01
sa(dp109
Valternatives
p110
(lp111
(dp112
Vtimestamps
p113
(lp114
(lp115
Vand
p116
aF16.81
aF17.05
aa(lp117
Vyou'll
p118
aF17.05
aF17.25
aa(lp119
Vbe
p120
aF17.25
aF17.34
aa(lp121
Vlooking
p122
aF17.46
aF17.71
aa(lp123
Vto
p124
aF17.71
aF17.84
aa(lp125
Vcreate
p126
aF17.84
aF18.18
aa(lp127
Va
p128
aF18.18
aF18.24
aa(lp129
Vbusiness
p130
aF18.24
aF18.49
aa(lp131
Vby
p132
aF18.49
aF18.72
aa(lp133
Vstars
p134
aF19.18
aF19.49
aa(lp135
Vin
p136
aF19.49
aF19.58
aa(lp137
Vevery
p138
aF19.58
aF19.86
aa(lp139
Vtrial
p140
aF19.86
aF20.14
aa(lp141
Vis
p142
aF20.73
aF21.15
aa(lp143
Vretail
p144
aF21.24
aF21.68
aa(lp145
Vusing
p146
aF21.68
aF22.06
aa(lp147
Vhis
p148
aF22.06
aF22.32
aasVconfidence
p149
F0.522
sVtranscript
p150
Vand you'll be looking to create a business by stars in every trial is retail using his 
p151
sasVfinal
p152
I01
sa(dp153
Valternatives
p154
(lp155
(dp156
Vtimestamps
p157
(lp158
(lp159
Vwhich
p160
aF29.82
aF30.12
aa(lp161
Vof
p162
aF30.12
aF30.21
aa(lp163
Vthe
p164
aF30.21
aF30.28
aa(lp165
Vgirls
p166
aF30.28
aF30.64
aa(lp167
Vbut
p168
aF31.8
aF32.06
aa(lp169
Vhe's
p170
aF32.3
aF32.69
aa(lp171
Vcool
p172
aF32.87
aF33.25
aasVconfidence
p173
F0.674
sVtranscript
p174
Vwhich of the girls but he's cool 
p175
sasVfinal
p176
I01
sa(dp177
Valternatives
p178
(lp179
(dp180
Vtimestamps
p181
(lp182
(lp183
Vreally
p184
aF38.9
aF39.16
aasVconfidence
p185
F0.476
sVtranscript
p186
Vreally 
p187
sasVfinal
p188
I01
sa(dp189
Valternatives
p190
(lp191
(dp192
Vtimestamps
p193
(lp194
(lp195
Vhe
p196
aF55.07
aF55.25
aa(lp197
Vhe
p198
aF55.48
aF55.76
aa(lp199
Vhe
p200
aF56.08
aF56.24
aasVconfidence
p201
F0.419
sVtranscript
p202
Vhe he he 
p203
sasVfinal
p204
I01
sa(dp205
Valternatives
p206
(lp207
(dp208
Vtimestamps
p209
(lp210
(lp211
Vthrough
p212
aF60.96
aF61.16
aa(lp213
Vthe
p214
aF61.16
aF61.28
aa(lp215
Vdrugs
p216
aF61.28
aF61.56
aa(lp217
Vin
p218
aF61.56
aF61.75
aa(lp219
Vthe
p220
aF61.99
aF62.16
aa(lp221
Vregion
p222
aF62.16
aF62.48
aasVconfidence
p223
F0.399
sVtranscript
p224
Vthrough the drugs in the region 
p225
sasVfinal
p226
I01
sa(dp227
Valternatives
p228
(lp229
(dp230
Vtimestamps
p231
(lp232
(lp233
Vuhhuh
p234
aF69.62
aF70.82
aa(lp235
Vlooking
p236
aF72.46
aF72.82
aa(lp237
Vto
p238
aF73.11
aF73.38
aa(lp239
Vgo
p240
aF75.47
aF75.65
aa(lp241
Valong
p242
aF75.65
aF75.92
aa(lp243
Vwith
p244
aF80.92
aF81.04
aasVconfidence
p245
F0.661
sVtranscript
p246
Vuhhuh looking to go along with 
p247
sasVfinal
p248
I01
sa(dp249
Valternatives
p250
(lp251
(dp252
Vtimestamps
p253
(lp254
(lp255
Vand
p256
aF82.04
aF82.19
aa(lp257
Vthe
p258
aF82.19
aF82.29
aa(lp259
Vother
p260
aF83.6
aF83.83
aa(lp261
Vone
p262
aF84.23
aF84.44
aa(lp263
Vis
p264
aF84.96
aF85.08
aa(lp265
Vthe
p266
aF85.08
aF85.41
aasVconfidence
p267
F0.272
sVtranscript
p268
Vand the other one is the 
p269
sasVfinal
p270
I01
sa(dp271
Valternatives
p272
(lp273
(dp274
Vtimestamps
p275
(lp276
(lp277
Vreal
p278
aF86.55
aF86.81
aa(lp279
Vprotection
p280
aF86.81
aF87.36
aasVconfidence
p281
F0.711
sVtranscript
p282
Vreal protection 
p283
sasVfinal
p284
I01
sa(dp285
Valternatives
p286
(lp287
(dp288
Vtimestamps
p289
(lp290
(lp291
Vwhat
p292
aF90.48
aF90.77
aa(lp293
Vdo
p294
aF90.77
aF91.01
aasVconfidence
p295
F0.21
sVtranscript
p296
Vwhat do 
p297
sasVfinal
p298
I01
sasVresult_index
p299
I0
sVspeaker_labels
p300
(lp301
(dp302
Vto
p303
F2.25
sVconfidence
p304
F0.469
sVspeaker
p305
I0
sVfrom
p306
F2.11
sVfinal
p307
I00
sa(dp308
Vto
p309
F3.78
sVconfidence
p310
F0.463
sVspeaker
p311
I0
sVfrom
p312
F3.59
sVfinal
p313
I00
sa(dp314
Vto
p315
F4.04
sVconfidence
p316
F0.451
sVspeaker
p317
I0
sVfrom
p318
F3.92
sVfinal
p319
I00
sa(dp320
Vto
p321
F4.44
sVconfidence
p322
F0.451
sVspeaker
p323
I0
sVfrom
p324
F4.04
sVfinal
p325
I00
sa(dp326
Vto
p327
F5.06
sVconfidence
p328
F0.506
sVspeaker
p329
I0
sVfrom
p330
F4.96
sVfinal
p331
I00
sa(dp332
Vto
p333
F5.31
sVconfidence
p334
F0.506
sVspeaker
p335
I0
sVfrom
p336
F5.06
sVfinal
p337
I00
sa(dp338
Vto
p339
F6.04
sVconfidence
p340
F0.396
sVspeaker
p341
I0
sVfrom
p342
F5.79
sVfinal
p343
I00
sa(dp344
Vto
p345
F6.3
sVconfidence
p346
F0.34
sVspeaker
p347
I0
sVfrom
p348
F6.16
sVfinal
p349
I00
sa(dp350
Vto
p351
F6.48
sVconfidence
p352
F0.376
sVspeaker
p353
I0
sVfrom
p354
F6.33
sVfinal
p355
I00
sa(dp356
Vto
p357
F6.68
sVconfidence
p358
F0.376
sVspeaker
p359
I0
sVfrom
p360
F6.48
sVfinal
p361
I00
sa(dp362
Vto
p363
F7.53
sVconfidence
p364
F0.4
sVspeaker
p365
I1
sVfrom
p366
F6.99
sVfinal
p367
I00
sa(dp368
Vto
p369
F7.76
sVconfidence
p370
F0.4
sVspeaker
p371
I1
sVfrom
p372
F7.53
sVfinal
p373
I00
sa(dp374
Vto
p375
F8.03
sVconfidence
p376
F0.4
sVspeaker
p377
I1
sVfrom
p378
F7.76
sVfinal
p379
I00
sa(dp380
Vto
p381
F8.18
sVconfidence
p382
F0.4
sVspeaker
p383
I1
sVfrom
p384
F8.03
sVfinal
p385
I00
sa(dp386
Vto
p387
F8.38
sVconfidence
p388
F0.4
sVspeaker
p389
I1
sVfrom
p390
F8.18
sVfinal
p391
I00
sa(dp392
Vto
p393
F8.78
sVconfidence
p394
F0.4
sVspeaker
p395
I1
sVfrom
p396
F8.38
sVfinal
p397
I00
sa(dp398
Vto
p399
F10.04
sVconfidence
p400
F0.399
sVspeaker
p401
I1
sVfrom
p402
F9.9
sVfinal
p403
I00
sa(dp404
Vto
p405
F10.15
sVconfidence
p406
F0.399
sVspeaker
p407
I1
sVfrom
p408
F10.04
sVfinal
p409
I00
sa(dp410
Vto
p411
F10.3
sVconfidence
p412
F0.399
sVspeaker
p413
I1
sVfrom
p414
F10.15
sVfinal
p415
I00
sa(dp416
Vto
p417
F10.44
sVconfidence
p418
F0.399
sVspeaker
p419
I1
sVfrom
p420
F10.3
sVfinal
p421
I00
sa(dp422
Vto
p423
F10.67
sVconfidence
p424
F0.399
sVspeaker
p425
I1
sVfrom
p426
F10.44
sVfinal
p427
I00
sa(dp428
Vto
p429
F11.21
sVconfidence
p430
F0.473
sVspeaker
p431
I1
sVfrom
p432
F10.94
sVfinal
p433
I00
sa(dp434
Vto
p435
F11.38
sVconfidence
p436
F0.473
sVspeaker
p437
I1
sVfrom
p438
F11.21
sVfinal
p439
I00
sa(dp440
Vto
p441
F11.51
sVconfidence
p442
F0.473
sVspeaker
p443
I1
sVfrom
p444
F11.38
sVfinal
p445
I00
sa(dp446
Vto
p447
F11.65
sVconfidence
p448
F0.473
sVspeaker
p449
I1
sVfrom
p450
F11.51
sVfinal
p451
I00
sa(dp452
Vto
p453
F11.93
sVconfidence
p454
F0.473
sVspeaker
p455
I1
sVfrom
p456
F11.65
sVfinal
p457
I00
sa(dp458
Vto
p459
F12.22
sVconfidence
p460
F0.473
sVspeaker
p461
I1
sVfrom
p462
F11.93
sVfinal
p463
I00
sa(dp464
Vto
p465
F12.49
sVconfidence
p466
F0.473
sVspeaker
p467
I1
sVfrom
p468
F12.22
sVfinal
p469
I00
sa(dp470
Vto
p471
F14.19
sVconfidence
p472
F0.291
sVspeaker
p473
I0
sVfrom
p474
F13.97
sVfinal
p475
I00
sa(dp476
Vto
p477
F14.28
sVconfidence
p478
F0.291
sVspeaker
p479
I0
sVfrom
p480
F14.19
sVfinal
p481
I00
sa(dp482
Vto
p483
F14.6
sVconfidence
p484
F0.291
sVspeaker
p485
I0
sVfrom
p486
F14.28
sVfinal
p487
I00
sa(dp488
Vto
p489
F15.55
sVconfidence
p490
F0.44
sVspeaker
p491
I1
sVfrom
p492
F15.38
sVfinal
p493
I00
sa(dp494
Vto
p495
F16.05
sVconfidence
p496
F0.44
sVspeaker
p497
I1
sVfrom
p498
F15.55
sVfinal
p499
I00
sa(dp500
Vto
p501
F17.05
sVconfidence
p502
F0.423
sVspeaker
p503
I1
sVfrom
p504
F16.81
sVfinal
p505
I00
sa(dp506
Vto
p507
F17.25
sVconfidence
p508
F0.423
sVspeaker
p509
I1
sVfrom
p510
F17.05
sVfinal
p511
I00
sa(dp512
Vto
p513
F17.34
sVconfidence
p514
F0.423
sVspeaker
p515
I1
sVfrom
p516
F17.25
sVfinal
p517
I00
sa(dp518
Vto
p519
F17.71
sVconfidence
p520
F0.445
sVspeaker
p521
I1
sVfrom
p522
F17.46
sVfinal
p523
I00
sa(dp524
Vto
p525
F17.84
sVconfidence
p526
F0.445
sVspeaker
p527
I1
sVfrom
p528
F17.71
sVfinal
p529
I00
sa(dp530
Vto
p531
F18.18
sVconfidence
p532
F0.445
sVspeaker
p533
I1
sVfrom
p534
F17.84
sVfinal
p535
I00
sa(dp536
Vto
p537
F18.24
sVconfidence
p538
F0.445
sVspeaker
p539
I1
sVfrom
p540
F18.18
sVfinal
p541
I00
sa(dp542
Vto
p543
F18.49
sVconfidence
p544
F0.445
sVspeaker
p545
I1
sVfrom
p546
F18.24
sVfinal
p547
I00
sa(dp548
Vto
p549
F18.72
sVconfidence
p550
F0.445
sVspeaker
p551
I1
sVfrom
p552
F18.49
sVfinal
p553
I00
sa(dp554
Vto
p555
F19.49
sVconfidence
p556
F0.228
sVspeaker
p557
I0
sVfrom
p558
F19.18
sVfinal
p559
I00
sa(dp560
Vto
p561
F19.58
sVconfidence
p562
F0.228
sVspeaker
p563
I0
sVfrom
p564
F19.49
sVfinal
p565
I00
sa(dp566
Vto
p567
F19.86
sVconfidence
p568
F0.228
sVspeaker
p569
I0
sVfrom
p570
F19.58
sVfinal
p571
I00
sa(dp572
Vto
p573
F20.14
sVconfidence
p574
F0.228
sVspeaker
p575
I0
sVfrom
p576
F19.86
sVfinal
p577
I00
sa(dp578
Vto
p579
F21.15
sVconfidence
p580
F0.278
sVspeaker
p581
I1
sVfrom
p582
F20.73
sVfinal
p583
I00
sa(dp584
Vto
p585
F21.68
sVconfidence
p586
F0.472
sVspeaker
p587
I0
sVfrom
p588
F21.24
sVfinal
p589
I00
sa(dp590
Vto
p591
F22.06
sVconfidence
p592
F0.472
sVspeaker
p593
I0
sVfrom
p594
F21.68
sVfinal
p595
I00
sa(dp596
Vto
p597
F22.32
sVconfidence
p598
F0.472
sVspeaker
p599
I0
sVfrom
p600
F22.06
sVfinal
p601
I00
sa(dp602
Vto
p603
F30.12
sVconfidence
p604
F0.604
sVspeaker
p605
I1
sVfrom
p606
F29.82
sVfinal
p607
I00
sa(dp608
Vto
p609
F30.21
sVconfidence
p610
F0.604
sVspeaker
p611
I1
sVfrom
p612
F30.12
sVfinal
p613
I00
sa(dp614
Vto
p615
F30.28
sVconfidence
p616
F0.604
sVspeaker
p617
I1
sVfrom
p618
F30.21
sVfinal
p619
I00
sa(dp620
Vto
p621
F30.64
sVconfidence
p622
F0.604
sVspeaker
p623
I1
sVfrom
p624
F30.28
sVfinal
p625
I00
sa(dp626
Vto
p627
F32.06
sVconfidence
p628
F0.433
sVspeaker
p629
I1
sVfrom
p630
F31.8
sVfinal
p631
I00
sa(dp632
Vto
p633
F32.69
sVconfidence
p634
F0.528
sVspeaker
p635
I1
sVfrom
p636
F32.3
sVfinal
p637
I00
sa(dp638
Vto
p639
F33.25
sVconfidence
p640
F0.421
sVspeaker
p641
I0
sVfrom
p642
F32.87
sVfinal
p643
I00
sa(dp644
Vto
p645
F39.16
sVconfidence
p646
F0.616
sVspeaker
p647
I0
sVfrom
p648
F38.9
sVfinal
p649
I00
sa(dp650
Vto
p651
F55.25
sVconfidence
p652
F0.625
sVspeaker
p653
I0
sVfrom
p654
F55.07
sVfinal
p655
I00
sa(dp656
Vto
p657
F55.76
sVconfidence
p658
F0.568
sVspeaker
p659
I0
sVfrom
p660
F55.48
sVfinal
p661
I00
sa(dp662
Vto
p663
F56.24
sVconfidence
p664
F0.511
sVspeaker
p665
I0
sVfrom
p666
F56.08
sVfinal
p667
I00
sa(dp668
Vto
p669
F61.16
sVconfidence
p670
F0.461
sVspeaker
p671
I0
sVfrom
p672
F60.96
sVfinal
p673
I00
sa(dp674
Vto
p675
F61.28
sVconfidence
p676
F0.461
sVspeaker
p677
I0
sVfrom
p678
F61.16
sVfinal
p679
I00
sa(dp680
Vto
p681
F61.56
sVconfidence
p682
F0.461
sVspeaker
p683
I0
sVfrom
p684
F61.28
sVfinal
p685
I00
sa(dp686
Vto
p687
F61.75
sVconfidence
p688
F0.461
sVspeaker
p689
I0
sVfrom
p690
F61.56
sVfinal
p691
I00
sa(dp692
Vto
p693
F62.16
sVconfidence
p694
F0.538
sVspeaker
p695
I1
sVfrom
p696
F61.99
sVfinal
p697
I00
sa(dp698
Vto
p699
F62.48
sVconfidence
p700
F0.538
sVspeaker
p701
I1
sVfrom
p702
F62.16
sVfinal
p703
I00
sa(dp704
Vto
p705
F70.82
sVconfidence
p706
F0.539
sVspeaker
p707
I1
sVfrom
p708
F69.62
sVfinal
p709
I00
sa(dp710
Vto
p711
F72.82
sVconfidence
p712
F0.614
sVspeaker
p713
I1
sVfrom
p714
F72.46
sVfinal
p715
I00
sa(dp716
Vto
p717
F73.38
sVconfidence
p718
F0.395
sVspeaker
p719
I1
sVfrom
p720
F73.11
sVfinal
p721
I00
sa(dp722
Vto
p723
F75.65
sVconfidence
p724
F0.516
sVspeaker
p725
I0
sVfrom
p726
F75.47
sVfinal
p727
I00
sa(dp728
Vto
p729
F75.92
sVconfidence
p730
F0.516
sVspeaker
p731
I0
sVfrom
p732
F75.65
sVfinal
p733
I00
sa(dp734
Vto
p735
F81.04
sVconfidence
p736
F0.499
sVspeaker
p737
I1
sVfrom
p738
F80.92
sVfinal
p739
I00
sa(dp740
Vto
p741
F82.19
sVconfidence
p742
F0.374
sVspeaker
p743
I1
sVfrom
p744
F82.04
sVfinal
p745
I00
sa(dp746
Vto
p747
F82.29
sVconfidence
p748
F0.374
sVspeaker
p749
I1
sVfrom
p750
F82.19
sVfinal
p751
I00
sa(dp752
Vto
p753
F83.83
sVconfidence
p754
F0.627
sVspeaker
p755
I1
sVfrom
p756
F83.6
sVfinal
p757
I00
sa(dp758
Vto
p759
F84.44
sVconfidence
p760
F0.571
sVspeaker
p761
I1
sVfrom
p762
F84.23
sVfinal
p763
I00
sa(dp764
Vto
p765
F85.08
sVconfidence
p766
F0.503
sVspeaker
p767
I1
sVfrom
p768
F84.96
sVfinal
p769
I00
sa(dp770
Vto
p771
F85.41
sVconfidence
p772
F0.503
sVspeaker
p773
I1
sVfrom
p774
F85.08
sVfinal
p775
I00
sa(dp776
Vto
p777
F86.81
sVconfidence
p778
F0.478
sVspeaker
p779
I1
sVfrom
p780
F86.55
sVfinal
p781
I00
sa(dp782
Vto
p783
F87.36
sVconfidence
p784
F0.478
sVspeaker
p785
I1
sVfrom
p786
F86.81
sVfinal
p787
I00
sa(dp788
Vto
p789
F90.77
sVconfidence
p790
F0.364
sVspeaker
p791
I0
sVfrom
p792
F90.48
sVfinal
p793
I00
sa(dp794
Vto
p795
F91.01
sVconfidence
p796
F0.364
sVspeaker
p797
I0
sVfrom
p798
F90.77
sVfinal
p799
I01
sas.