(dp0
Vresults
p1
(lp2
(dp3
Valternatives
p4
(lp5
(dp6
Vtimestamps
p7
(lp8
(lp9
Vwhat
p10
aF5.26
aF5.42
aa(lp11
VI
p12
aF5.42
aF5.49
aa(lp13
Vfound
p14
aF6.27
aF6.52
aasVconfidence
p15
F0.645
sVtranscript
p16
Vwhat I found 
p17
sasVfinal
p18
I01
sa(dp19
Valternatives
p20
(lp21
(dp22
Vtimestamps
p23
(lp24
(lp25
Vand
p26
aF7.33
aF7.48
aa(lp27
Vif
p28
aF7.48
aF7.56
aa(lp29
g12
aF8.7
aF8.74
aa(lp30
Vhad
p31
aF8.74
aF8.91
aa(lp32
Va
p33
aF8.91
aF8.96
aa(lp34
Vson
p35
aF8.96
aF9.33
aa(lp36
Vand
p37
aF10.75
aF10.93
aa(lp38
Vmy
p39
aF10.93
aF11.03
aa(lp40
Vmom
p41
aF11.03
aF11.28
aa(lp42
Vwas
p43
aF11.28
aF11.4
aa(lp44
Vcutting
p45
aF11.45
aF11.74
aa(lp46
Vin
p47
aF11.82
aF11.93
aa(lp48
Vline
p49
aF11.93
aF12.13
aa(lp50
Vand
p51
aF12.44
aF12.96
aa(lp52
Vthe
p53
aF13.04
aF13.14
aa(lp54
Vnext
p55
aF13.14
aF13.4
aa(lp56
Vthing
p57
aF13.55
aF13.71
aa(lp58
Vyou
p59
aF13.71
aF13.8
aa(lp60
Vknow
p61
aF13.8
aF13.98
aa(lp62
Vand
p63
aF14.28
aF14.48
aa(lp64
Vso
p65
aF14.48
aF14.78
aa(lp66
g12
aF14.78
aF15.06
aa(lp67
Vthought
p68
aF15.39
aF15.57
aa(lp69
Vwell
p70
aF15.57
aF15.7
aa(lp71
Vhe's
p72
aF15.7
aF15.96
aa(lp73
g33
aF15.96
aF16.03
aa(lp74
Vproblem
p75
aF16.03
aF16.42
aa(lp76
Vand
p77
aF16.53
aF16.76
aa(lp78
g12
aF16.76
aF16.91
aa(lp79
Vwill
p80
aF17.2
aF17.32
aa(lp81
Vpersonally
p82
aF17.32
aF17.73
aasVconfidence
p83
F0.718
sVtranscript
p84
Vand if I had a son and my mom was cutting in line and the next thing you know and so I thought well he's a problem and I will personally 
p85
sasVfinal
p86
I01
sa(dp87
Valternatives
p88
(lp89
(dp90
Vtimestamps
p91
(lp92
(lp93
g12
aF18.3
aF18.41
aa(lp94
Vlooked
p95
aF18.41
aF18.66
aa(lp96
Vup
p97
aF18.78
aF18.91
aa(lp98
Vand
p99
aF19.63
aF19.78
aa(lp100
Vthere
p101
aF19.78
aF19.87
aa(lp102
Vwas
p103
aF19.87
aF20.03
aa(lp104
Vnothing
p105
aF20.03
aF20.39
aa(lp106
Von
p107
aF20.39
aF20.61
aa(lp108
Vit
p109
aF20.61
aF20.79
aasVconfidence
p110
F0.773
sVtranscript
p111
VI looked up and there was nothing on it 
p112
sasVfinal
p113
I01
sa(dp114
Valternatives
p115
(lp116
(dp117
Vtimestamps
p118
(lp119
(lp120
Vis
p121
aF21.3
aF21.48
aa(lp122
Vthere
p123
aF21.48
aF21.65
aa(lp124
g33
aF21.65
aF21.78
aa(lp125
Vlot
p126
aF21.78
aF22.06
aa(lp127
Vlonger
p128
aF22.09
aF22.41
aa(lp129
Vthan
p130
aF22.53
aF22.69
aa(lp131
Vit
p132
aF22.69
aF22.77
aa(lp133
Vis
p134
aF22.77
aF22.92
aa(lp135
Vin
p136
aF22.92
aF23.04
aa(lp137
Vmy
p138
aF23.04
aF23.23
aa(lp139
Vmy
p140
aF23.26
aF23.42
aa(lp141
Vbrother
p142
aF23.42
aF23.72
aa(lp143
Vand
p144
aF24.63
aF24.9
aa(lp145
Vthen
p146
aF25.12
aF25.32
aa(lp147
g12
aF25.32
aF25.54
aa(lp148
Vwent
p149
aF25.6
aF25.88
aa(lp150
Varound
p151
aF25.88
aF26.18
aa(lp152
Vthe
p153
aF26.18
aF26.36
aa(lp154
Vneck
p155
aF26.36
aF26.59
aa(lp156
Vand
p157
aF26.73
aF26.9
aa(lp158
Vthen
p159
aF26.9
aF27.03
aa(lp160
g12
aF27.03
aF27.12
aa(lp161
Vthought
p162
aF27.12
aF27.32
aa(lp163
Vwell
p164
aF27.36
aF27.77
aa(lp165
Vif
p166
aF27.97
aF28.12
aa(lp167
Vyou
p168
aF28.12
aF28.22
aa(lp169
Vdid
p170
aF28.22
aF28.41
aa(lp171
Vit
p172
aF28.41
aF28.49
aa(lp173
Vupside
p174
aF28.49
aF28.88
aa(lp175
Vdown
p176
aF28.88
aF29.09
aa(lp177
Vand
p178
aF29.09
aF29.21
aa(lp179
Vhas
p180
aF29.21
aF29.37
aa(lp181
Vsomething
p182
aF29.37
aF29.71
aa(lp183
Vhitting
p184
aF29.71
aF29.98
aa(lp185
Von
p186
aF29.98
aF30.27
aa(lp187
Vit
p188
aF30.9
aF31.09
aasVconfidence
p189
F0.583
sVtranscript
p190
Vis there a lot longer than it is in my my brother and then I went around the neck and then I thought well if you did it upside down and has something hitting on it 
p191
sasVfinal
p192
I01
sa(dp193
Valternatives
p194
(lp195
(dp196
Vtimestamps
p197
(lp198
(lp199
Vand
p200
aF32.15
aF32.35
aa(lp201
Vthen
p202
aF32.35
aF32.51
aa(lp203
g12
aF32.51
aF32.61
aa(lp204
Vcame
p205
aF32.61
aF32.86
aa(lp206
Vup
p207
aF32.86
aF32.99
aa(lp208
Vwith
p209
aF32.99
aF33.08
aa(lp210
Vthe
p211
aF33.12
aF33.28
aa(lp212
Videa
p213
aF33.28
aF33.56
aa(lp214
Vof
p215
aF33.56
aF33.64
aa(lp216
Van
p217
aF33.72
aF33.92
aa(lp218
Vact
p219
aF33.92
aF34.18
aa(lp220
Vright
p221
aF34.41
aF34.58
aa(lp222
Vnow
p223
aF34.58
aF34.88
aasVconfidence
p224
F0.569
sVtranscript
p225
Vand then I came up with the idea of an act right now 
p226
sasVfinal
p227
I01
sa(dp228
Valternatives
p229
(lp230
(dp231
Vtimestamps
p232
(lp233
(lp234
Vand
p235
aF35.42
aF35.53
aa(lp236
Vthen
p237
aF35.53
aF35.66
aa(lp238
g12
aF35.66
aF35.76
aa(lp239
Vwill
p240
aF35.76
aF35.87
aa(lp241
Vrun
p242
aF36.09
aF36.41
aa(lp243
Vthe
p244
aF36.41
aF36.51
aa(lp245
Vplace
p246
aF36.51
aF36.92
aa(lp247
Vwhere
p248
aF37.11
aF37.26
aa(lp249
Vyou
p250
aF37.38
aF37.54
aa(lp251
Vcan
p252
aF37.54
aF37.68
aa(lp253
Vsay
p254
aF37.88
aF38.11
aa(lp255
Vwell
p256
aF38.11
aF38.37
aa(lp257
Vso
p258
aF38.43
aF38.57
aa(lp259
Vthen
p260
aF38.57
aF38.72
aa(lp261
Vit
p262
aF38.72
aF38.82
aa(lp263
Vwould
p264
aF38.82
aF39.03
aa(lp265
Vrun
p266
aF39.09
aF39.29
aa(lp267
Varound
p268
aF39.32
aF39.75
aasVconfidence
p269
F0.535
sVtranscript
p270
Vand then I will run the place where you can say well so then it would run around 
p271
sasVfinal
p272
I01
sa(dp273
Valternatives
p274
(lp275
(dp276
Vtimestamps
p277
(lp278
(lp279
Vand
p280
aF40.45
aF40.65
aa(lp281
Vthen
p282
aF40.65
aF40.98
aa(lp283
g12
aF41.01
aF41.14
aa(lp284
Vput
p285
aF41.14
aF41.53
aasVconfidence
p286
F0.778
sVtranscript
p287
Vand then I put 
p288
sasVfinal
p289
I01
sa(dp290
Valternatives
p291
(lp292
(dp293
Vtimestamps
p294
(lp295
(lp296
V%HESITATION
p297
aF42.22
aF42.77
aa(lp298
Vthe
p299
aF42.99
aF43.34
aasVconfidence
p300
F0.892
sVtranscript
p301
V%HESITATION the 
p302
sasVfinal
p303
I01
sa(dp304
Valternatives
p305
(lp306
(dp307
Vtimestamps
p308
(lp309
(lp310
VHey
p311
aF43.95
aF44.15
aa(lp312
VLori
p313
aF44.15
aF44.5
aa(lp314
Vbring
p315
aF44.5
aF44.76
aa(lp316
Von
p317
aF44.76
aF44.9
aa(lp318
Vtop
p319
aF44.9
aF45.2
aa(lp320
Vof
p321
aF45.6
aF45.95
aa(lp322
Vyour
p323
aF46.28
aF46.45
aa(lp324
Vhead
p325
aF46.45
aF46.68
aa(lp326
Vand
p327
aF46.68
aF46.87
aasVconfidence
p328
F0.503
sVtranscript
p329
VHey Lori bring on top of your head and 
p330
sasVfinal
p331
I01
sa(dp332
Valternatives
p333
(lp334
(dp335
Vtimestamps
p336
(lp337
(lp338
Vone
p339
aF47.31
aF47.63
aa(lp340
Vone
p341
aF48.03
aF48.24
aa(lp342
Vand
p343
aF48.44
aF48.69
aa(lp344
Vthe
p345
aF48.8
aF49.2
aasVconfidence
p346
F0.666
sVtranscript
p347
Vone one and the 
p348
sasVfinal
p349
I01
sa(dp350
Valternatives
p351
(lp352
(dp353
Vtimestamps
p354
(lp355
(lp356
Vladies
p357
aF49.82
aF50.3
aa(lp358
Vor
p359
aF50.46
aF50.8
aa(lp360
Vform
p361
aF51.37
aF51.7
aa(lp362
Vof
p363
aF51.7
aF51.81
aa(lp364
Vmy
p365
aF51.81
aF52.11
aasVconfidence
p366
F0.475
sVtranscript
p367
Vladies or form of my 
p368
sasVfinal
p369
I01
sa(dp370
Valternatives
p371
(lp372
(dp373
Vtimestamps
p374
(lp375
(lp376
Vyeah
p377
aF54.89
aF55.14
aa(lp378
Vyeah
p379
aF55.14
aF55.33
aa(lp380
Vvery
p381
aF55.33
aF55.57
aa(lp382
Vproud
p383
aF55.57
aF55.85
aa(lp384
Vof
p385
aF55.85
aF55.94
aa(lp386
g12
aF55.94
aF56.09
aa(lp387
Vlisten
p388
aF56.09
aF56.35
aa(lp389
Vvery
p390
aF56.52
aF56.85
aa(lp391
Vwell
p392
aF56.85
aF57.06
aa(lp393
Vwe
p394
aF57.06
aF57.21
aa(lp395
Vlive
p396
aF57.21
aF57.45
aa(lp397
Vwith
p398
aF57.45
aF57.59
aa(lp399
Vit
p400
aF57.59
aF57.66
aa(lp401
Vand
p402
aF58.02
aF58.23
aa(lp403
V%HESITATION
p404
aF58.23
aF58.56
aasVconfidence
p405
F0.714
sVtranscript
p406
Vyeah yeah very proud of I listen very well we live with it and %HESITATION 
p407
sasVfinal
p408
I01
sa(dp409
Valternatives
p410
(lp411
(dp412
Vtimestamps
p413
(lp414
(lp415
Vhe's
p416
aF59.2
aF59.48
aa(lp417
V%HESITATION
p418
aF59.48
aF59.98
aa(lp419
Vwhen
p420
aF60.09
aF60.25
aa(lp421
Vwater
p422
aF60.25
aF60.55
aa(lp423
Vwars
p424
aF60.55
aF60.89
aa(lp425
Vover
p426
aF60.89
aF61.05
aa(lp427
Vthe
p428
aF61.05
aF61.15
aa(lp429
Vyears
p430
aF61.15
aF61.46
aa(lp431
Vand
p432
aF61.46
aF61.73
aa(lp433
V%HESITATION
p434
aF61.73
aF62.03
aa(lp435
Vit's
p436
aF62.25
aF62.58
aa(lp437
Vquite
p438
aF62.58
aF62.83
aa(lp439
Vamazing
p440
aF62.83
aF63.3
aa(lp441
Vwhich
p442
aF63.3
aF63.61
aa(lp443
Vwhen
p444
aF63.64
aF63.8
aa(lp445
Vshe's
p446
aF63.8
aF64.01
aa(lp447
Vcreated
p448
aF64.01
aF64.5
aasVconfidence
p449
F0.658
sVtranscript
p450
Vhe's %HESITATION when water wars over the years and %HESITATION it's quite amazing which when she's created 
p451
sasVfinal
p452
I01
sa(dp453
Valternatives
p454
(lp455
(dp456
Vtimestamps
p457
(lp458
(lp459
Vand
p460
aF65.04
aF65.41
aa(lp461
V%HESITATION
p462
aF65.41
aF65.98
aa(lp463
Vwhen
p464
aF66.31
aF66.51
aa(lp465
Vthe
p466
aF66.51
aF66.63
aa(lp467
Vyoung
p468
aF66.63
aF66.79
aa(lp469
Vinventor
p470
aF66.79
aF67.13
aa(lp471
Vof
p472
aF67.13
aF67.2
aa(lp473
Vthe
p474
aF67.2
aF67.31
aa(lp475
Vyear
p476
aF67.31
aF67.47
aa(lp477
Vlast
p478
aF67.47
aF67.81
aa(lp479
Vyear
p480
aF67.81
aF67.97
aa(lp481
Vat
p482
aF67.97
aF68.15
aa(lp483
Vthe
p484
aF68.18
aF68.57
aa(lp485
Vfields
p486
aF68.6
aF68.88
aa(lp487
g12
aF68.88
aF69.06
aasVconfidence
p488
F0.701
sVtranscript
p489
Vand %HESITATION when the young inventor of the year last year at the fields I 
p490
sasVfinal
p491
I01
sa(dp492
Valternatives
p493
(lp494
(dp495
Vtimestamps
p496
(lp497
(lp498
Vshe's
p499
aF69.68
aF69.94
aa(lp500
Vwon
p501
aF69.94
aF70.25
aa(lp502
Vthe
p503
aF70.25
aF70.78
aa(lp504
V%HESITATION
p505
aF70.78
aF71.05
aa(lp506
Vmost
p507
aF71.05
aF71.34
aa(lp508
Vis
p509
aF71.34
aF71.43
aa(lp510
Vfor
p511
aF71.43
aF71.69
aa(lp512
Vindividuals
p513
aF71.69
aF72.3
aa(lp514
Vand
p515
aF72.51
aF72.66
aa(lp516
Vthe
p517
aF72.66
aF72.75
aa(lp518
Vinnovative
p519
aF72.75
aF73.23
aa(lp520
Vor
p521
aF73.23
aF73.37
aa(lp522
Vwar
p523
aF73.37
aF73.67
aa(lp524
Vhead
p525
aF74.04
aF74.38
aa(lp526
g33
aF74.38
aF74.42
aa(lp527
Vbetter
p528
aF74.42
aF74.67
aa(lp529
Vworld
p530
aF74.67
aF74.97
aa(lp531
Vlast
p532
aF75.0
aF75.34
aa(lp533
Vyear
p534
aF75.34
aF75.54
aasVconfidence
p535
F0.628
sVtranscript
p536
Vshe's won the %HESITATION most is for individuals and the innovative or war head a better world last year 
p537
sasVfinal
p538
I01
sa(dp539
Valternatives
p540
(lp541
(dp542
Vtimestamps
p543
(lp544
(lp545
Vand
p546
aF76.12
aF76.7
aa(lp547
V%HESITATION
p548
aF76.7
aF77.41
aasVconfidence
p549
F1.0
sVtranscript
p550
Vand %HESITATION 
p551
sasVfinal
p552
I01
sa(dp553
Valternatives
p554
(lp555
(dp556
Vtimestamps
p557
(lp558
(lp559
Vthe
p560
aF77.96
aF78.33
aa(lp561
Vwhole
p562
aF78.36
aF78.56
aa(lp563
Vusing
p564
aF78.56
aF78.99
aa(lp565
Vmy
p566
aF78.99
aF79.28
aa(lp567
Vrose
p568
aF79.31
aF79.61
aa(lp569
Vinside
p570
aF79.61
aF80.25
aa(lp571
Vthis
p572
aF80.46
aF80.66
aa(lp573
Vcourt
p574
aF80.66
aF80.87
aa(lp575
Vif
p576
aF80.87
aF80.95
aa(lp577
Vyou
p578
aF80.95
aF81.04
aa(lp579
Vwill
p580
aF81.04
aF81.21
aa(lp581
V%HESITATION
p582
aF81.21
aF81.68
aa(lp583
Vones
p584
aF81.75
aF82.18
aa(lp585
Vwould
p586
aF82.27
aF82.43
aa(lp587
Vsay
p588
aF82.43
aF82.68
aa(lp589
Vto
p590
aF82.68
aF82.84
aa(lp591
g33
aF82.84
aF82.91
aa(lp592
Vfictional
p593
aF82.91
aF83.37
aa(lp594
Vbudgets
p595
aF83.43
aF83.71
aa(lp596
Vmay
p597
aF83.71
aF83.83
aa(lp598
Vneed
p599
aF83.83
aF84.04
aa(lp600
V%HESITATION
p601
aF84.04
aF84.35
aa(lp602
Vcame
p603
aF84.35
aF84.67
aa(lp604
Vfor
p605
aF84.79
aF85.15
aa(lp606
Vbut
p607
aF85.53
aF85.71
aa(lp608
V%HESITATION
p609
aF85.71
aF85.88
aa(lp610
Vhe's
p611
aF85.88
aF86.18
aa(lp612
Vhe's
p613
aF86.18
aF86.37
aa(lp614
Vdone
p615
aF86.37
aF86.53
aa(lp616
Vvery
p617
aF86.53
aF86.84
aa(lp618
Vwell
p619
aF86.84
aF87.17
aa(lp620
Vand
p621
aF87.17
aF87.32
aa(lp622
Vvery
p623
aF87.32
aF87.54
aa(lp624
Vproud
p625
aF87.54
aF87.84
aa(lp626
Vof
p627
aF87.84
aF87.92
aa(lp628
Vus
p629
aF87.92
aF88.09
aasVconfidence
p630
F0.614
sVtranscript
p631
Vthe whole using my rose inside this court if you will %HESITATION ones would say to a fictional budgets may need %HESITATION came for but %HESITATION he's he's done very well and very proud of us 
p632
sasVfinal
p633
I01
sasVresult_index
p634
I0
sVspeaker_labels
p635
(lp636
(dp637
Vto
p638
F5.42
sVconfidence
p639
F0.425
sVspeaker
p640
I0
sVfrom
p641
F5.26
sVfinal
p642
I00
sa(dp643
Vto
p644
F5.49
sVconfidence
p645
F0.425
sVspeaker
p646
I0
sVfrom
p647
F5.42
sVfinal
p648
I00
sa(dp649
Vto
p650
F6.52
sVconfidence
p651
F0.389
sVspeaker
p652
I1
sVfrom
p653
F6.27
sVfinal
p654
I00
sa(dp655
Vto
p656
F7.48
sVconfidence
p657
F0.583
sVspeaker
p658
I1
sVfrom
p659
F7.33
sVfinal
p660
I00
sa(dp661
Vto
p662
F7.56
sVconfidence
p663
F0.583
sVspeaker
p664
I1
sVfrom
p665
F7.48
sVfinal
p666
I00
sa(dp667
Vto
p668
F8.74
sVconfidence
p669
F0.516
sVspeaker
p670
I1
sVfrom
p671
F8.7
sVfinal
p672
I00
sa(dp673
Vto
p674
F8.91
sVconfidence
p675
F0.516
sVspeaker
p676
I1
sVfrom
p677
F8.74
sVfinal
p678
I00
sa(dp679
Vto
p680
F8.96
sVconfidence
p681
F0.516
sVspeaker
p682
I1
sVfrom
p683
F8.91
sVfinal
p684
I00
sa(dp685
Vto
p686
F9.33
sVconfidence
p687
F0.516
sVspeaker
p688
I1
sVfrom
p689
F8.96
sVfinal
p690
I00
sa(dp691
Vto
p692
F10.93
sVconfidence
p693
F0.634
sVspeaker
p694
I0
sVfrom
p695
F10.75
sVfinal
p696
I00
sa(dp697
Vto
p698
F11.03
sVconfidence
p699
F0.634
sVspeaker
p700
I0
sVfrom
p701
F10.93
sVfinal
p702
I00
sa(dp703
Vto
p704
F11.28
sVconfidence
p705
F0.634
sVspeaker
p706
I0
sVfrom
p707
F11.03
sVfinal
p708
I00
sa(dp709
Vto
p710
F11.4
sVconfidence
p711
F0.634
sVspeaker
p712
I0
sVfrom
p713
F11.28
sVfinal
p714
I00
sa(dp715
Vto
p716
F11.74
sVconfidence
p717
F0.551
sVspeaker
p718
I1
sVfrom
p719
F11.45
sVfinal
p720
I00
sa(dp721
Vto
p722
F11.93
sVconfidence
p723
F0.22
sVspeaker
p724
I1
sVfrom
p725
F11.82
sVfinal
p726
I00
sa(dp727
Vto
p728
F12.13
sVconfidence
p729
F0.22
sVspeaker
p730
I1
sVfrom
p731
F11.93
sVfinal
p732
I00
sa(dp733
Vto
p734
F12.96
sVconfidence
p735
F0.261
sVspeaker
p736
I1
sVfrom
p737
F12.44
sVfinal
p738
I00
sa(dp739
Vto
p740
F13.14
sVconfidence
p741
F0.426
sVspeaker
p742
I1
sVfrom
p743
F13.04
sVfinal
p744
I00
sa(dp745
Vto
p746
F13.4
sVconfidence
p747
F0.426
sVspeaker
p748
I1
sVfrom
p749
F13.14
sVfinal
p750
I00
sa(dp751
Vto
p752
F13.71
sVconfidence
p753
F0.475
sVspeaker
p754
I1
sVfrom
p755
F13.55
sVfinal
p756
I00
sa(dp757
Vto
p758
F13.8
sVconfidence
p759
F0.475
sVspeaker
p760
I1
sVfrom
p761
F13.71
sVfinal
p762
I00
sa(dp763
Vto
p764
F13.98
sVconfidence
p765
F0.475
sVspeaker
p766
I1
sVfrom
p767
F13.8
sVfinal
p768
I00
sa(dp769
Vto
p770
F14.48
sVconfidence
p771
F0.569
sVspeaker
p772
I1
sVfrom
p773
F14.28
sVfinal
p774
I00
sa(dp775
Vto
p776
F14.78
sVconfidence
p777
F0.569
sVspeaker
p778
I1
sVfrom
p779
F14.48
sVfinal
p780
I00
sa(dp781
Vto
p782
F15.06
sVconfidence
p783
F0.569
sVspeaker
p784
I1
sVfrom
p785
F14.78
sVfinal
p786
I00
sa(dp787
Vto
p788
F15.57
sVconfidence
p789
F0.617
sVspeaker
p790
I1
sVfrom
p791
F15.39
sVfinal
p792
I00
sa(dp793
Vto
p794
F15.7
sVconfidence
p795
F0.617
sVspeaker
p796
I1
sVfrom
p797
F15.57
sVfinal
p798
I00
sa(dp799
Vto
p800
F15.96
sVconfidence
p801
F0.617
sVspeaker
p802
I1
sVfrom
p803
F15.7
sVfinal
p804
I00
sa(dp805
Vto
p806
F16.03
sVconfidence
p807
F0.617
sVspeaker
p808
I1
sVfrom
p809
F15.96
sVfinal
p810
I00
sa(dp811
Vto
p812
F16.42
sVconfidence
p813
F0.617
sVspeaker
p814
I1
sVfrom
p815
F16.03
sVfinal
p816
I00
sa(dp817
Vto
p818
F16.76
sVconfidence
p819
F0.421
sVspeaker
p820
I1
sVfrom
p821
F16.53
sVfinal
p822
I00
sa(dp823
Vto
p824
F16.91
sVconfidence
p825
F0.421
sVspeaker
p826
I1
sVfrom
p827
F16.76
sVfinal
p828
I00
sa(dp829
Vto
p830
F17.32
sVconfidence
p831
F0.556
sVspeaker
p832
I1
sVfrom
p833
F17.2
sVfinal
p834
I00
sa(dp835
Vto
p836
F17.73
sVconfidence
p837
F0.556
sVspeaker
p838
I1
sVfrom
p839
F17.32
sVfinal
p840
I00
sa(dp841
Vto
p842
F18.41
sVconfidence
p843
F0.469
sVspeaker
p844
I1
sVfrom
p845
F18.3
sVfinal
p846
I00
sa(dp847
Vto
p848
F18.66
sVconfidence
p849
F0.469
sVspeaker
p850
I1
sVfrom
p851
F18.41
sVfinal
p852
I00
sa(dp853
Vto
p854
F18.91
sVconfidence
p855
F0.51
sVspeaker
p856
I1
sVfrom
p857
F18.78
sVfinal
p858
I00
sa(dp859
Vto
p860
F19.78
sVconfidence
p861
F0.52
sVspeaker
p862
I1
sVfrom
p863
F19.63
sVfinal
p864
I00
sa(dp865
Vto
p866
F19.87
sVconfidence
p867
F0.52
sVspeaker
p868
I1
sVfrom
p869
F19.78
sVfinal
p870
I00
sa(dp871
Vto
p872
F20.03
sVconfidence
p873
F0.52
sVspeaker
p874
I1
sVfrom
p875
F19.87
sVfinal
p876
I00
sa(dp877
Vto
p878
F20.39
sVconfidence
p879
F0.52
sVspeaker
p880
I1
sVfrom
p881
F20.03
sVfinal
p882
I00
sa(dp883
Vto
p884
F20.61
sVconfidence
p885
F0.52
sVspeaker
p886
I1
sVfrom
p887
F20.39
sVfinal
p888
I00
sa(dp889
Vto
p890
F20.79
sVconfidence
p891
F0.52
sVspeaker
p892
I1
sVfrom
p893
F20.61
sVfinal
p894
I00
sa(dp895
Vto
p896
F21.48
sVconfidence
p897
F0.436
sVspeaker
p898
I1
sVfrom
p899
F21.3
sVfinal
p900
I00
sa(dp901
Vto
p902
F21.65
sVconfidence
p903
F0.436
sVspeaker
p904
I1
sVfrom
p905
F21.48
sVfinal
p906
I00
sa(dp907
Vto
p908
F21.78
sVconfidence
p909
F0.436
sVspeaker
p910
I1
sVfrom
p911
F21.65
sVfinal
p912
I00
sa(dp913
Vto
p914
F22.06
sVconfidence
p915
F0.436
sVspeaker
p916
I1
sVfrom
p917
F21.78
sVfinal
p918
I00
sa(dp919
Vto
p920
F22.41
sVconfidence
p921
F0.353
sVspeaker
p922
I1
sVfrom
p923
F22.09
sVfinal
p924
I00
sa(dp925
Vto
p926
F22.69
sVconfidence
p927
F0.39
sVspeaker
p928
I1
sVfrom
p929
F22.53
sVfinal
p930
I00
sa(dp931
Vto
p932
F22.77
sVconfidence
p933
F0.39
sVspeaker
p934
I1
sVfrom
p935
F22.69
sVfinal
p936
I00
sa(dp937
Vto
p938
F22.92
sVconfidence
p939
F0.39
sVspeaker
p940
I1
sVfrom
p941
F22.77
sVfinal
p942
I00
sa(dp943
Vto
p944
F23.04
sVconfidence
p945
F0.39
sVspeaker
p946
I1
sVfrom
p947
F22.92
sVfinal
p948
I00
sa(dp949
Vto
p950
F23.23
sVconfidence
p951
F0.39
sVspeaker
p952
I1
sVfrom
p953
F23.04
sVfinal
p954
I00
sa(dp955
Vto
p956
F23.42
sVconfidence
p957
F0.352
sVspeaker
p958
I1
sVfrom
p959
F23.26
sVfinal
p960
I00
sa(dp961
Vto
p962
F23.72
sVconfidence
p963
F0.352
sVspeaker
p964
I1
sVfrom
p965
F23.42
sVfinal
p966
I00
sa(dp967
Vto
p968
F24.9
sVconfidence
p969
F0.556
sVspeaker
p970
I1
sVfrom
p971
F24.63
sVfinal
p972
I00
sa(dp973
Vto
p974
F25.32
sVconfidence
p975
F0.347
sVspeaker
p976
I1
sVfrom
p977
F25.12
sVfinal
p978
I00
sa(dp979
Vto
p980
F25.54
sVconfidence
p981
F0.347
sVspeaker
p982
I1
sVfrom
p983
F25.32
sVfinal
p984
I00
sa(dp985
Vto
p986
F25.88
sVconfidence
p987
F0.523
sVspeaker
p988
I1
sVfrom
p989
F25.6
sVfinal
p990
I00
sa(dp991
Vto
p992
F26.18
sVconfidence
p993
F0.523
sVspeaker
p994
I1
sVfrom
p995
F25.88
sVfinal
p996
I00
sa(dp997
Vto
p998
F26.36
sVconfidence
p999
F0.523
sVspeaker
p1000
I1
sVfrom
p1001
F26.18
sVfinal
p1002
I00
sa(dp1003
Vto
p1004
F26.59
sVconfidence
p1005
F0.523
sVspeaker
p1006
I1
sVfrom
p1007
F26.36
sVfinal
p1008
I00
sa(dp1009
Vto
p1010
F26.9
sVconfidence
p1011
F0.457
sVspeaker
p1012
I1
sVfrom
p1013
F26.73
sVfinal
p1014
I00
sa(dp1015
Vto
p1016
F27.03
sVconfidence
p1017
F0.457
sVspeaker
p1018
I1
sVfrom
p1019
F26.9
sVfinal
p1020
I00
sa(dp1021
Vto
p1022
F27.12
sVconfidence
p1023
F0.457
sVspeaker
p1024
I1
sVfrom
p1025
F27.03
sVfinal
p1026
I00
sa(dp1027
Vto
p1028
F27.32
sVconfidence
p1029
F0.457
sVspeaker
p1030
I1
sVfrom
p1031
F27.12
sVfinal
p1032
I00
sa(dp1033
Vto
p1034
F27.77
sVconfidence
p1035
F0.371
sVspeaker
p1036
I1
sVfrom
p1037
F27.36
sVfinal
p1038
I00
sa(dp1039
Vto
p1040
F28.12
sVconfidence
p1041
F0.527
sVspeaker
p1042
I1
sVfrom
p1043
F27.97
sVfinal
p1044
I00
sa(dp1045
Vto
p1046
F28.22
sVconfidence
p1047
F0.527
sVspeaker
p1048
I1
sVfrom
p1049
F28.12
sVfinal
p1050
I00
sa(dp1051
Vto
p1052
F28.41
sVconfidence
p1053
F0.527
sVspeaker
p1054
I1
sVfrom
p1055
F28.22
sVfinal
p1056
I00
sa(dp1057
Vto
p1058
F28.49
sVconfidence
p1059
F0.527
sVspeaker
p1060
I1
sVfrom
p1061
F28.41
sVfinal
p1062
I00
sa(dp1063
Vto
p1064
F28.88
sVconfidence
p1065
F0.527
sVspeaker
p1066
I1
sVfrom
p1067
F28.49
sVfinal
p1068
I00
sa(dp1069
Vto
p1070
F29.09
sVconfidence
p1071
F0.527
sVspeaker
p1072
I1
sVfrom
p1073
F28.88
sVfinal
p1074
I00
sa(dp1075
Vto
p1076
F29.21
sVconfidence
p1077
F0.527
sVspeaker
p1078
I1
sVfrom
p1079
F29.09
sVfinal
p1080
I00
sa(dp1081
Vto
p1082
F29.37
sVconfidence
p1083
F0.527
sVspeaker
p1084
I1
sVfrom
p1085
F29.21
sVfinal
p1086
I00
sa(dp1087
Vto
p1088
F29.71
sVconfidence
p1089
F0.527
sVspeaker
p1090
I1
sVfrom
p1091
F29.37
sVfinal
p1092
I00
sa(dp1093
Vto
p1094
F29.98
sVconfidence
p1095
F0.527
sVspeaker
p1096
I1
sVfrom
p1097
F29.71
sVfinal
p1098
I00
sa(dp1099
Vto
p1100
F30.27
sVconfidence
p1101
F0.527
sVspeaker
p1102
I1
sVfrom
p1103
F29.98
sVfinal
p1104
I00
sa(dp1105
Vto
p1106
F31.09
sVconfidence
p1107
F0.513
sVspeaker
p1108
I1
sVfrom
p1109
F30.9
sVfinal
p1110
I00
sa(dp1111
Vto
p1112
F32.35
sVconfidence
p1113
F0.561
sVspeaker
p1114
I1
sVfrom
p1115
F32.15
sVfinal
p1116
I00
sa(dp1117
Vto
p1118
F32.51
sVconfidence
p1119
F0.561
sVspeaker
p1120
I1
sVfrom
p1121
F32.35
sVfinal
p1122
I00
sa(dp1123
Vto
p1124
F32.61
sVconfidence
p1125
F0.561
sVspeaker
p1126
I1
sVfrom
p1127
F32.51
sVfinal
p1128
I00
sa(dp1129
Vto
p1130
F32.86
sVconfidence
p1131
F0.561
sVspeaker
p1132
I1
sVfrom
p1133
F32.61
sVfinal
p1134
I00
sa(dp1135
Vto
p1136
F32.99
sVconfidence
p1137
F0.561
sVspeaker
p1138
I1
sVfrom
p1139
F32.86
sVfinal
p1140
I00
sa(dp1141
Vto
p1142
F33.08
sVconfidence
p1143
F0.561
sVspeaker
p1144
I1
sVfrom
p1145
F32.99
sVfinal
p1146
I00
sa(dp1147
Vto
p1148
F33.28
sVconfidence
p1149
F0.369
sVspeaker
p1150
I1
sVfrom
p1151
F33.12
sVfinal
p1152
I00
sa(dp1153
Vto
p1154
F33.56
sVconfidence
p1155
F0.369
sVspeaker
p1156
I1
sVfrom
p1157
F33.28
sVfinal
p1158
I00
sa(dp1159
Vto
p1160
F33.64
sVconfidence
p1161
F0.369
sVspeaker
p1162
I1
sVfrom
p1163
F33.56
sVfinal
p1164
I00
sa(dp1165
Vto
p1166
F33.92
sVconfidence
p1167
F0.561
sVspeaker
p1168
I1
sVfrom
p1169
F33.72
sVfinal
p1170
I00
sa(dp1171
Vto
p1172
F34.18
sVconfidence
p1173
F0.561
sVspeaker
p1174
I1
sVfrom
p1175
F33.92
sVfinal
p1176
I00
sa(dp1177
Vto
p1178
F34.58
sVconfidence
p1179
F0.303
sVspeaker
p1180
I1
sVfrom
p1181
F34.41
sVfinal
p1182
I00
sa(dp1183
Vto
p1184
F34.88
sVconfidence
p1185
F0.303
sVspeaker
p1186
I1
sVfrom
p1187
F34.58
sVfinal
p1188
I00
sa(dp1189
Vto
p1190
F35.53
sVconfidence
p1191
F0.484
sVspeaker
p1192
I1
sVfrom
p1193
F35.42
sVfinal
p1194
I00
sa(dp1195
Vto
p1196
F35.66
sVconfidence
p1197
F0.484
sVspeaker
p1198
I1
sVfrom
p1199
F35.53
sVfinal
p1200
I00
sa(dp1201
Vto
p1202
F35.76
sVconfidence
p1203
F0.484
sVspeaker
p1204
I1
sVfrom
p1205
F35.66
sVfinal
p1206
I00
sa(dp1207
Vto
p1208
F35.87
sVconfidence
p1209
F0.484
sVspeaker
p1210
I1
sVfrom
p1211
F35.76
sVfinal
p1212
I00
sa(dp1213
Vto
p1214
F36.41
sVconfidence
p1215
F0.335
sVspeaker
p1216
I1
sVfrom
p1217
F36.09
sVfinal
p1218
I00
sa(dp1219
Vto
p1220
F36.51
sVconfidence
p1221
F0.335
sVspeaker
p1222
I1
sVfrom
p1223
F36.41
sVfinal
p1224
I00
sa(dp1225
Vto
p1226
F36.92
sVconfidence
p1227
F0.335
sVspeaker
p1228
I1
sVfrom
p1229
F36.51
sVfinal
p1230
I00
sa(dp1231
Vto
p1232
F37.26
sVconfidence
p1233
F0.457
sVspeaker
p1234
I1
sVfrom
p1235
F37.11
sVfinal
p1236
I00
sa(dp1237
Vto
p1238
F37.54
sVconfidence
p1239
F0.433
sVspeaker
p1240
I1
sVfrom
p1241
F37.38
sVfinal
p1242
I00
sa(dp1243
Vto
p1244
F37.68
sVconfidence
p1245
F0.433
sVspeaker
p1246
I1
sVfrom
p1247
F37.54
sVfinal
p1248
I00
sa(dp1249
Vto
p1250
F38.11
sVconfidence
p1251
F0.377
sVspeaker
p1252
I1
sVfrom
p1253
F37.88
sVfinal
p1254
I00
sa(dp1255
Vto
p1256
F38.37
sVconfidence
p1257
F0.377
sVspeaker
p1258
I1
sVfrom
p1259
F38.11
sVfinal
p1260
I00
sa(dp1261
Vto
p1262
F38.57
sVconfidence
p1263
F0.407
sVspeaker
p1264
I1
sVfrom
p1265
F38.43
sVfinal
p1266
I00
sa(dp1267
Vto
p1268
F38.72
sVconfidence
p1269
F0.407
sVspeaker
p1270
I1
sVfrom
p1271
F38.57
sVfinal
p1272
I00
sa(dp1273
Vto
p1274
F38.82
sVconfidence
p1275
F0.407
sVspeaker
p1276
I1
sVfrom
p1277
F38.72
sVfinal
p1278
I00
sa(dp1279
Vto
p1280
F39.03
sVconfidence
p1281
F0.407
sVspeaker
p1282
I1
sVfrom
p1283
F38.82
sVfinal
p1284
I00
sa(dp1285
Vto
p1286
F39.29
sVconfidence
p1287
F0.352
sVspeaker
p1288
I1
sVfrom
p1289
F39.09
sVfinal
p1290
I00
sa(dp1291
Vto
p1292
F39.75
sVconfidence
p1293
F0.387
sVspeaker
p1294
I1
sVfrom
p1295
F39.32
sVfinal
p1296
I00
sa(dp1297
Vto
p1298
F40.65
sVconfidence
p1299
F0.355
sVspeaker
p1300
I1
sVfrom
p1301
F40.45
sVfinal
p1302
I00
sa(dp1303
Vto
p1304
F40.98
sVconfidence
p1305
F0.355
sVspeaker
p1306
I1
sVfrom
p1307
F40.65
sVfinal
p1308
I00
sa(dp1309
Vto
p1310
F41.14
sVconfidence
p1311
F0.404
sVspeaker
p1312
I1
sVfrom
p1313
F41.01
sVfinal
p1314
I00
sa(dp1315
Vto
p1316
F41.53
sVconfidence
p1317
F0.404
sVspeaker
p1318
I1
sVfrom
p1319
F41.14
sVfinal
p1320
I00
sa(dp1321
Vto
p1322
F42.77
sVconfidence
p1323
F0.371
sVspeaker
p1324
I1
sVfrom
p1325
F42.22
sVfinal
p1326
I00
sa(dp1327
Vto
p1328
F43.34
sVconfidence
p1329
F0.417
sVspeaker
p1330
I1
sVfrom
p1331
F42.99
sVfinal
p1332
I00
sa(dp1333
Vto
p1334
F44.15
sVconfidence
p1335
F0.435
sVspeaker
p1336
I1
sVfrom
p1337
F43.95
sVfinal
p1338
I00
sa(dp1339
Vto
p1340
F44.5
sVconfidence
p1341
F0.435
sVspeaker
p1342
I1
sVfrom
p1343
F44.15
sVfinal
p1344
I00
sa(dp1345
Vto
p1346
F44.76
sVconfidence
p1347
F0.435
sVspeaker
p1348
I1
sVfrom
p1349
F44.5
sVfinal
p1350
I00
sa(dp1351
Vto
p1352
F44.9
sVconfidence
p1353
F0.435
sVspeaker
p1354
I1
sVfrom
p1355
F44.76
sVfinal
p1356
I00
sa(dp1357
Vto
p1358
F45.2
sVconfidence
p1359
F0.435
sVspeaker
p1360
I1
sVfrom
p1361
F44.9
sVfinal
p1362
I00
sa(dp1363
Vto
p1364
F45.95
sVconfidence
p1365
F0.543
sVspeaker
p1366
I1
sVfrom
p1367
F45.6
sVfinal
p1368
I00
sa(dp1369
Vto
p1370
F46.45
sVconfidence
p1371
F0.389
sVspeaker
p1372
I1
sVfrom
p1373
F46.28
sVfinal
p1374
I00
sa(dp1375
Vto
p1376
F46.68
sVconfidence
p1377
F0.389
sVspeaker
p1378
I1
sVfrom
p1379
F46.45
sVfinal
p1380
I00
sa(dp1381
Vto
p1382
F46.87
sVconfidence
p1383
F0.389
sVspeaker
p1384
I1
sVfrom
p1385
F46.68
sVfinal
p1386
I00
sa(dp1387
Vto
p1388
F47.63
sVconfidence
p1389
F0.644
sVspeaker
p1390
I1
sVfrom
p1391
F47.31
sVfinal
p1392
I00
sa(dp1393
Vto
p1394
F48.24
sVconfidence
p1395
F0.617
sVspeaker
p1396
I1
sVfrom
p1397
F48.03
sVfinal
p1398
I00
sa(dp1399
Vto
p1400
F48.69
sVconfidence
p1401
F0.47
sVspeaker
p1402
I1
sVfrom
p1403
F48.44
sVfinal
p1404
I00
sa(dp1405
Vto
p1406
F49.2
sVconfidence
p1407
F0.443
sVspeaker
p1408
I1
sVfrom
p1409
F48.8
sVfinal
p1410
I00
sa(dp1411
Vto
p1412
F50.3
sVconfidence
p1413
F0.434
sVspeaker
p1414
I1
sVfrom
p1415
F49.82
sVfinal
p1416
I00
sa(dp1417
Vto
p1418
F50.8
sVconfidence
p1419
F0.422
sVspeaker
p1420
I1
sVfrom
p1421
F50.46
sVfinal
p1422
I00
sa(dp1423
Vto
p1424
F51.7
sVconfidence
p1425
F0.487
sVspeaker
p1426
I1
sVfrom
p1427
F51.37
sVfinal
p1428
I00
sa(dp1429
Vto
p1430
F51.81
sVconfidence
p1431
F0.487
sVspeaker
p1432
I1
sVfrom
p1433
F51.7
sVfinal
p1434
I00
sa(dp1435
Vto
p1436
F52.11
sVconfidence
p1437
F0.487
sVspeaker
p1438
I1
sVfrom
p1439
F51.81
sVfinal
p1440
I00
sa(dp1441
Vto
p1442
F55.14
sVconfidence
p1443
F0.656
sVspeaker
p1444
I0
sVfrom
p1445
F54.89
sVfinal
p1446
I00
sa(dp1447
Vto
p1448
F55.33
sVconfidence
p1449
F0.656
sVspeaker
p1450
I0
sVfrom
p1451
F55.14
sVfinal
p1452
I00
sa(dp1453
Vto
p1454
F55.57
sVconfidence
p1455
F0.656
sVspeaker
p1456
I0
sVfrom
p1457
F55.33
sVfinal
p1458
I00
sa(dp1459
Vto
p1460
F55.85
sVconfidence
p1461
F0.656
sVspeaker
p1462
I0
sVfrom
p1463
F55.57
sVfinal
p1464
I00
sa(dp1465
Vto
p1466
F55.94
sVconfidence
p1467
F0.656
sVspeaker
p1468
I0
sVfrom
p1469
F55.85
sVfinal
p1470
I00
sa(dp1471
Vto
p1472
F56.09
sVconfidence
p1473
F0.656
sVspeaker
p1474
I0
sVfrom
p1475
F55.94
sVfinal
p1476
I00
sa(dp1477
Vto
p1478
F56.35
sVconfidence
p1479
F0.656
sVspeaker
p1480
I0
sVfrom
p1481
F56.09
sVfinal
p1482
I00
sa(dp1483
Vto
p1484
F56.85
sVconfidence
p1485
F0.658
sVspeaker
p1486
I0
sVfrom
p1487
F56.52
sVfinal
p1488
I00
sa(dp1489
Vto
p1490
F57.06
sVconfidence
p1491
F0.658
sVspeaker
p1492
I0
sVfrom
p1493
F56.85
sVfinal
p1494
I00
sa(dp1495
Vto
p1496
F57.21
sVconfidence
p1497
F0.658
sVspeaker
p1498
I0
sVfrom
p1499
F57.06
sVfinal
p1500
I00
sa(dp1501
Vto
p1502
F57.45
sVconfidence
p1503
F0.658
sVspeaker
p1504
I0
sVfrom
p1505
F57.21
sVfinal
p1506
I00
sa(dp1507
Vto
p1508
F57.59
sVconfidence
p1509
F0.658
sVspeaker
p1510
I0
sVfrom
p1511
F57.45
sVfinal
p1512
I00
sa(dp1513
Vto
p1514
F57.66
sVconfidence
p1515
F0.658
sVspeaker
p1516
I0
sVfrom
p1517
F57.59
sVfinal
p1518
I00
sa(dp1519
Vto
p1520
F58.23
sVconfidence
p1521
F0.658
sVspeaker
p1522
I0
sVfrom
p1523
F58.02
sVfinal
p1524
I00
sa(dp1525
Vto
p1526
F58.56
sVconfidence
p1527
F0.658
sVspeaker
p1528
I0
sVfrom
p1529
F58.23
sVfinal
p1530
I00
sa(dp1531
Vto
p1532
F59.48
sVconfidence
p1533
F0.652
sVspeaker
p1534
I0
sVfrom
p1535
F59.2
sVfinal
p1536
I00
sa(dp1537
Vto
p1538
F59.98
sVconfidence
p1539
F0.652
sVspeaker
p1540
I0
sVfrom
p1541
F59.48
sVfinal
p1542
I00
sa(dp1543
Vto
p1544
F60.25
sVconfidence
p1545
F0.653
sVspeaker
p1546
I0
sVfrom
p1547
F60.09
sVfinal
p1548
I00
sa(dp1549
Vto
p1550
F60.55
sVconfidence
p1551
F0.653
sVspeaker
p1552
I0
sVfrom
p1553
F60.25
sVfinal
p1554
I00
sa(dp1555
Vto
p1556
F60.89
sVconfidence
p1557
F0.653
sVspeaker
p1558
I0
sVfrom
p1559
F60.55
sVfinal
p1560
I00
sa(dp1561
Vto
p1562
F61.05
sVconfidence
p1563
F0.653
sVspeaker
p1564
I0
sVfrom
p1565
F60.89
sVfinal
p1566
I00
sa(dp1567
Vto
p1568
F61.15
sVconfidence
p1569
F0.653
sVspeaker
p1570
I0
sVfrom
p1571
F61.05
sVfinal
p1572
I00
sa(dp1573
Vto
p1574
F61.46
sVconfidence
p1575
F0.653
sVspeaker
p1576
I0
sVfrom
p1577
F61.15
sVfinal
p1578
I00
sa(dp1579
Vto
p1580
F61.73
sVconfidence
p1581
F0.653
sVspeaker
p1582
I0
sVfrom
p1583
F61.46
sVfinal
p1584
I00
sa(dp1585
Vto
p1586
F62.03
sVconfidence
p1587
F0.653
sVspeaker
p1588
I0
sVfrom
p1589
F61.73
sVfinal
p1590
I00
sa(dp1591
Vto
p1592
F62.58
sVconfidence
p1593
F0.66
sVspeaker
p1594
I0
sVfrom
p1595
F62.25
sVfinal
p1596
I00
sa(dp1597
Vto
p1598
F62.83
sVconfidence
p1599
F0.66
sVspeaker
p1600
I0
sVfrom
p1601
F62.58
sVfinal
p1602
I00
sa(dp1603
Vto
p1604
F63.3
sVconfidence
p1605
F0.66
sVspeaker
p1606
I0
sVfrom
p1607
F62.83
sVfinal
p1608
I00
sa(dp1609
Vto
p1610
F63.61
sVconfidence
p1611
F0.66
sVspeaker
p1612
I0
sVfrom
p1613
F63.3
sVfinal
p1614
I00
sa(dp1615
Vto
p1616
F63.8
sVconfidence
p1617
F0.645
sVspeaker
p1618
I0
sVfrom
p1619
F63.64
sVfinal
p1620
I00
sa(dp1621
Vto
p1622
F64.01
sVconfidence
p1623
F0.645
sVspeaker
p1624
I0
sVfrom
p1625
F63.8
sVfinal
p1626
I00
sa(dp1627
Vto
p1628
F64.5
sVconfidence
p1629
F0.645
sVspeaker
p1630
I0
sVfrom
p1631
F64.01
sVfinal
p1632
I00
sa(dp1633
Vto
p1634
F65.41
sVconfidence
p1635
F0.659
sVspeaker
p1636
I0
sVfrom
p1637
F65.04
sVfinal
p1638
I00
sa(dp1639
Vto
p1640
F65.98
sVconfidence
p1641
F0.659
sVspeaker
p1642
I0
sVfrom
p1643
F65.41
sVfinal
p1644
I00
sa(dp1645
Vto
p1646
F66.51
sVconfidence
p1647
F0.663
sVspeaker
p1648
I0
sVfrom
p1649
F66.31
sVfinal
p1650
I00
sa(dp1651
Vto
p1652
F66.63
sVconfidence
p1653
F0.663
sVspeaker
p1654
I0
sVfrom
p1655
F66.51
sVfinal
p1656
I00
sa(dp1657
Vto
p1658
F66.79
sVconfidence
p1659
F0.663
sVspeaker
p1660
I0
sVfrom
p1661
F66.63
sVfinal
p1662
I00
sa(dp1663
Vto
p1664
F67.13
sVconfidence
p1665
F0.663
sVspeaker
p1666
I0
sVfrom
p1667
F66.79
sVfinal
p1668
I00
sa(dp1669
Vto
p1670
F67.2
sVconfidence
p1671
F0.663
sVspeaker
p1672
I0
sVfrom
p1673
F67.13
sVfinal
p1674
I00
sa(dp1675
Vto
p1676
F67.31
sVconfidence
p1677
F0.663
sVspeaker
p1678
I0
sVfrom
p1679
F67.2
sVfinal
p1680
I00
sa(dp1681
Vto
p1682
F67.47
sVconfidence
p1683
F0.663
sVspeaker
p1684
I0
sVfrom
p1685
F67.31
sVfinal
p1686
I00
sa(dp1687
Vto
p1688
F67.81
sVconfidence
p1689
F0.663
sVspeaker
p1690
I0
sVfrom
p1691
F67.47
sVfinal
p1692
I00
sa(dp1693
Vto
p1694
F67.97
sVconfidence
p1695
F0.663
sVspeaker
p1696
I0
sVfrom
p1697
F67.81
sVfinal
p1698
I00
sa(dp1699
Vto
p1700
F68.15
sVconfidence
p1701
F0.663
sVspeaker
p1702
I0
sVfrom
p1703
F67.97
sVfinal
p1704
I00
sa(dp1705
Vto
p1706
F68.57
sVconfidence
p1707
F0.524
sVspeaker
p1708
I0
sVfrom
p1709
F68.18
sVfinal
p1710
I00
sa(dp1711
Vto
p1712
F68.88
sVconfidence
p1713
F0.632
sVspeaker
p1714
I0
sVfrom
p1715
F68.6
sVfinal
p1716
I00
sa(dp1717
Vto
p1718
F69.06
sVconfidence
p1719
F0.632
sVspeaker
p1720
I0
sVfrom
p1721
F68.88
sVfinal
p1722
I00
sa(dp1723
Vto
p1724
F69.94
sVconfidence
p1725
F0.66
sVspeaker
p1726
I0
sVfrom
p1727
F69.68
sVfinal
p1728
I00
sa(dp1729
Vto
p1730
F70.25
sVconfidence
p1731
F0.66
sVspeaker
p1732
I0
sVfrom
p1733
F69.94
sVfinal
p1734
I00
sa(dp1735
Vto
p1736
F70.78
sVconfidence
p1737
F0.66
sVspeaker
p1738
I0
sVfrom
p1739
F70.25
sVfinal
p1740
I00
sa(dp1741
Vto
p1742
F71.05
sVconfidence
p1743
F0.66
sVspeaker
p1744
I0
sVfrom
p1745
F70.78
sVfinal
p1746
I00
sa(dp1747
Vto
p1748
F71.34
sVconfidence
p1749
F0.66
sVspeaker
p1750
I0
sVfrom
p1751
F71.05
sVfinal
p1752
I00
sa(dp1753
Vto
p1754
F71.43
sVconfidence
p1755
F0.66
sVspeaker
p1756
I0
sVfrom
p1757
F71.34
sVfinal
p1758
I00
sa(dp1759
Vto
p1760
F71.69
sVconfidence
p1761
F0.66
sVspeaker
p1762
I0
sVfrom
p1763
F71.43
sVfinal
p1764
I00
sa(dp1765
Vto
p1766
F72.3
sVconfidence
p1767
F0.66
sVspeaker
p1768
I0
sVfrom
p1769
F71.69
sVfinal
p1770
I00
sa(dp1771
Vto
p1772
F72.66
sVconfidence
p1773
F0.661
sVspeaker
p1774
I0
sVfrom
p1775
F72.51
sVfinal
p1776
I00
sa(dp1777
Vto
p1778
F72.75
sVconfidence
p1779
F0.661
sVspeaker
p1780
I0
sVfrom
p1781
F72.66
sVfinal
p1782
I00
sa(dp1783
Vto
p1784
F73.23
sVconfidence
p1785
F0.661
sVspeaker
p1786
I0
sVfrom
p1787
F72.75
sVfinal
p1788
I00
sa(dp1789
Vto
p1790
F73.37
sVconfidence
p1791
F0.661
sVspeaker
p1792
I0
sVfrom
p1793
F73.23
sVfinal
p1794
I00
sa(dp1795
Vto
p1796
F73.67
sVconfidence
p1797
F0.661
sVspeaker
p1798
I0
sVfrom
p1799
F73.37
sVfinal
p1800
I00
sa(dp1801
Vto
p1802
F74.38
sVconfidence
p1803
F0.641
sVspeaker
p1804
I0
sVfrom
p1805
F74.04
sVfinal
p1806
I00
sa(dp1807
Vto
p1808
F74.42
sVconfidence
p1809
F0.641
sVspeaker
p1810
I0
sVfrom
p1811
F74.38
sVfinal
p1812
I00
sa(dp1813
Vto
p1814
F74.67
sVconfidence
p1815
F0.641
sVspeaker
p1816
I0
sVfrom
p1817
F74.42
sVfinal
p1818
I00
sa(dp1819
Vto
p1820
F74.97
sVconfidence
p1821
F0.641
sVspeaker
p1822
I0
sVfrom
p1823
F74.67
sVfinal
p1824
I00
sa(dp1825
Vto
p1826
F75.34
sVconfidence
p1827
F0.613
sVspeaker
p1828
I0
sVfrom
p1829
F75.0
sVfinal
p1830
I00
sa(dp1831
Vto
p1832
F75.54
sVconfidence
p1833
F0.613
sVspeaker
p1834
I0
sVfrom
p1835
F75.34
sVfinal
p1836
I00
sa(dp1837
Vto
p1838
F76.7
sVconfidence
p1839
F0.649
sVspeaker
p1840
I0
sVfrom
p1841
F76.12
sVfinal
p1842
I00
sa(dp1843
Vto
p1844
F77.41
sVconfidence
p1845
F0.649
sVspeaker
p1846
I0
sVfrom
p1847
F76.7
sVfinal
p1848
I00
sa(dp1849
Vto
p1850
F78.33
sVconfidence
p1851
F0.522
sVspeaker
p1852
I0
sVfrom
p1853
F77.96
sVfinal
p1854
I00
sa(dp1855
Vto
p1856
F78.56
sVconfidence
p1857
F0.654
sVspeaker
p1858
I0
sVfrom
p1859
F78.36
sVfinal
p1860
I00
sa(dp1861
Vto
p1862
F78.99
sVconfidence
p1863
F0.654
sVspeaker
p1864
I0
sVfrom
p1865
F78.56
sVfinal
p1866
I00
sa(dp1867
Vto
p1868
F79.28
sVconfidence
p1869
F0.654
sVspeaker
p1870
I0
sVfrom
p1871
F78.99
sVfinal
p1872
I00
sa(dp1873
Vto
p1874
F79.61
sVconfidence
p1875
F0.631
sVspeaker
p1876
I0
sVfrom
p1877
F79.31
sVfinal
p1878
I00
sa(dp1879
Vto
p1880
F80.25
sVconfidence
p1881
F0.631
sVspeaker
p1882
I0
sVfrom
p1883
F79.61
sVfinal
p1884
I00
sa(dp1885
Vto
p1886
F80.66
sVconfidence
p1887
F0.653
sVspeaker
p1888
I0
sVfrom
p1889
F80.46
sVfinal
p1890
I00
sa(dp1891
Vto
p1892
F80.87
sVconfidence
p1893
F0.653
sVspeaker
p1894
I0
sVfrom
p1895
F80.66
sVfinal
p1896
I00
sa(dp1897
Vto
p1898
F80.95
sVconfidence
p1899
F0.653
sVspeaker
p1900
I0
sVfrom
p1901
F80.87
sVfinal
p1902
I00
sa(dp1903
Vto
p1904
F81.04
sVconfidence
p1905
F0.653
sVspeaker
p1906
I0
sVfrom
p1907
F80.95
sVfinal
p1908
I00
sa(dp1909
Vto
p1910
F81.21
sVconfidence
p1911
F0.653
sVspeaker
p1912
I0
sVfrom
p1913
F81.04
sVfinal
p1914
I00
sa(dp1915
Vto
p1916
F81.68
sVconfidence
p1917
F0.653
sVspeaker
p1918
I0
sVfrom
p1919
F81.21
sVfinal
p1920
I00
sa(dp1921
Vto
p1922
F82.18
sVconfidence
p1923
F0.593
sVspeaker
p1924
I0
sVfrom
p1925
F81.75
sVfinal
p1926
I00
sa(dp1927
Vto
p1928
F82.43
sVconfidence
p1929
F0.648
sVspeaker
p1930
I0
sVfrom
p1931
F82.27
sVfinal
p1932
I00
sa(dp1933
Vto
p1934
F82.68
sVconfidence
p1935
F0.648
sVspeaker
p1936
I0
sVfrom
p1937
F82.43
sVfinal
p1938
I00
sa(dp1939
Vto
p1940
F82.84
sVconfidence
p1941
F0.648
sVspeaker
p1942
I0
sVfrom
p1943
F82.68
sVfinal
p1944
I00
sa(dp1945
Vto
p1946
F82.91
sVconfidence
p1947
F0.648
sVspeaker
p1948
I0
sVfrom
p1949
F82.84
sVfinal
p1950
I00
sa(dp1951
Vto
p1952
F83.37
sVconfidence
p1953
F0.648
sVspeaker
p1954
I0
sVfrom
p1955
F82.91
sVfinal
p1956
I00
sa(dp1957
Vto
p1958
F83.71
sVconfidence
p1959
F0.651
sVspeaker
p1960
I0
sVfrom
p1961
F83.43
sVfinal
p1962
I00
sa(dp1963
Vto
p1964
F83.83
sVconfidence
p1965
F0.651
sVspeaker
p1966
I0
sVfrom
p1967
F83.71
sVfinal
p1968
I00
sa(dp1969
Vto
p1970
F84.04
sVconfidence
p1971
F0.651
sVspeaker
p1972
I0
sVfrom
p1973
F83.83
sVfinal
p1974
I00
sa(dp1975
Vto
p1976
F84.35
sVconfidence
p1977
F0.651
sVspeaker
p1978
I0
sVfrom
p1979
F84.04
sVfinal
p1980
I00
sa(dp1981
Vto
p1982
F84.67
sVconfidence
p1983
F0.651
sVspeaker
p1984
I0
sVfrom
p1985
F84.35
sVfinal
p1986
I00
sa(dp1987
Vto
p1988
F85.15
sVconfidence
p1989
F0.413
sVspeaker
p1990
I0
sVfrom
p1991
F84.79
sVfinal
p1992
I00
sa(dp1993
Vto
p1994
F85.71
sVconfidence
p1995
F0.638
sVspeaker
p1996
I0
sVfrom
p1997
F85.53
sVfinal
p1998
I00
sa(dp1999
Vto
p2000
F85.88
sVconfidence
p2001
F0.638
sVspeaker
p2002
I0
sVfrom
p2003
F85.71
sVfinal
p2004
I00
sa(dp2005
Vto
p2006
F86.18
sVconfidence
p2007
F0.638
sVspeaker
p2008
I0
sVfrom
p2009
F85.88
sVfinal
p2010
I00
sa(dp2011
Vto
p2012
F86.37
sVconfidence
p2013
F0.638
sVspeaker
p2014
I0
sVfrom
p2015
F86.18
sVfinal
p2016
I00
sa(dp2017
Vto
p2018
F86.53
sVconfidence
p2019
F0.638
sVspeaker
p2020
I0
sVfrom
p2021
F86.37
sVfinal
p2022
I00
sa(dp2023
Vto
p2024
F86.84
sVconfidence
p2025
F0.638
sVspeaker
p2026
I0
sVfrom
p2027
F86.53
sVfinal
p2028
I00
sa(dp2029
Vto
p2030
F87.17
sVconfidence
p2031
F0.638
sVspeaker
p2032
I0
sVfrom
p2033
F86.84
sVfinal
p2034
I00
sa(dp2035
Vto
p2036
F87.32
sVconfidence
p2037
F0.638
sVspeaker
p2038
I0
sVfrom
p2039
F87.17
sVfinal
p2040
I00
sa(dp2041
Vto
p2042
F87.54
sVconfidence
p2043
F0.638
sVspeaker
p2044
I0
sVfrom
p2045
F87.32
sVfinal
p2046
I00
sa(dp2047
Vto
p2048
F87.84
sVconfidence
p2049
F0.638
sVspeaker
p2050
I0
sVfrom
p2051
F87.54
sVfinal
p2052
I00
sa(dp2053
Vto
p2054
F87.92
sVconfidence
p2055
F0.638
sVspeaker
p2056
I0
sVfrom
p2057
F87.84
sVfinal
p2058
I00
sa(dp2059
Vto
p2060
F88.09
sVconfidence
p2061
F0.638
sVspeaker
p2062
I0
sVfrom
p2063
F87.92
sVfinal
p2064
I01
sas.