(dp0
Vresults
p1
(lp2
(dp3
Valternatives
p4
(lp5
(dp6
Vtimestamps
p7
(lp8
(lp9
Vthe
p10
aF3.3
aF3.4
aa(lp11
Vgame
p12
aF3.4
aF3.64
aasVconfidence
p13
F0.671
sVtranscript
p14
Vthe game 
p15
sasVfinal
p16
I01
sa(dp17
Valternatives
p18
(lp19
(dp20
Vtimestamps
p21
(lp22
(lp23
Vdoing
p24
aF4.93
aF5.28
aa(lp25
Vit
p26
aF5.28
aF5.37
aa(lp27
Vin
p28
aF5.37
aF5.5
aa(lp29
Va
p30
aF5.5
aF5.57
aa(lp31
Vweek
p32
aF5.57
aF5.84
aasVconfidence
p33
F0.481
sVtranscript
p34
Vdoing it in a week 
p35
sasVfinal
p36
I01
sa(dp37
Valternatives
p38
(lp39
(dp40
Vtimestamps
p41
(lp42
(lp43
Vvery
p44
aF8.97
aF9.29
aa(lp45
Vclever
p46
aF9.29
aF9.76
aasVconfidence
p47
F0.915
sVtranscript
p48
Vvery clever 
p49
sasVfinal
p50
I01
sa(dp51
Valternatives
p52
(lp53
(dp54
Vtimestamps
p55
(lp56
(lp57
Vstill
p58
aF13.83
aF14.12
aa(lp59
Vwaiting
p60
aF14.12
aF14.45
aa(lp61
Vfor
p62
aF14.45
aF14.6
aasVconfidence
p63
F0.43
sVtranscript
p64
Vstill waiting for 
p65
sasVfinal
p66
I01
sa(dp67
Valternatives
p68
(lp69
(dp70
Vtimestamps
p71
(lp72
(lp73
Vyou
p74
aF18.22
aF18.3
aa(lp75
Vreally
p76
aF18.3
aF18.48
aa(lp77
Vshould
p78
aF18.48
aF18.69
aa(lp79
Vhave
p80
aF18.69
aF18.79
aa(lp81
Vbeen
p82
aF18.79
aF18.91
aasVconfidence
p83
F0.704
sVtranscript
p84
Vyou really should have been 
p85
sasVfinal
p86
I01
sa(dp87
Valternatives
p88
(lp89
(dp90
Vtimestamps
p91
(lp92
(lp93
VI
p94
aF20.2
aF20.29
aa(lp95
Vdon't
p96
aF20.29
aF20.44
aa(lp97
Vwant
p98
aF20.44
aF20.6
aa(lp99
Vto
p100
aF20.83
aF20.92
aa(lp101
Vput
p102
aF20.92
aF21.15
aa(lp103
Vit
p104
aF21.15
aF21.26
aa(lp105
Vthrough
p106
aF21.26
aF21.42
aa(lp107
Vthe
p108
aF21.42
aF21.53
aa(lp109
Vfirst
p110
aF22.09
aF22.42
aasVconfidence
p111
F0.387
sVtranscript
p112
VI don't want to put it through the first 
p113
sasVfinal
p114
I01
sa(dp115
Valternatives
p116
(lp117
(dp118
Vtimestamps
p119
(lp120
(lp121
Vthey
p122
aF23.15
aF23.31
aa(lp123
Vdon't
p124
aF23.31
aF23.56
aa(lp125
Vbelieve
p126
aF24.21
aF24.46
aasVconfidence
p127
F0.437
sVtranscript
p128
Vthey don't believe 
p129
sasVfinal
p130
I01
sa(dp131
Valternatives
p132
(lp133
(dp134
Vtimestamps
p135
(lp136
(lp137
Vwe
p138
aF29.2
aF29.38
aasVconfidence
p139
F0.292
sVtranscript
p140
Vwe 
p141
sasVfinal
p142
I01
sa(dp143
Valternatives
p144
(lp145
(dp146
Vtimestamps
p147
(lp148
(lp149
Vso
p150
aF35.72
aF35.88
aa(lp151
g94
aF35.88
aF35.95
aa(lp152
Vmean
p153
aF35.95
aF36.12
aasVconfidence
p154
F0.927
sVtranscript
p155
Vso I mean 
p156
sasVfinal
p157
I01
sa(dp158
Valternatives
p159
(lp160
(dp161
Vtimestamps
p162
(lp163
(lp164
Vyou
p165
aF44.34
aF44.47
aa(lp166
Vknow
p167
aF44.47
aF44.62
aa(lp168
g94
aF44.62
aF44.69
aa(lp169
Vdid
p170
aF44.69
aF44.91
aa(lp171
Vlittle
p172
aF45.64
aF46.03
aa(lp173
Vto
p174
aF46.03
aF46.22
aasVconfidence
p175
F0.757
sVtranscript
p176
Vyou know I did little to 
p177
sasVfinal
p178
I01
sa(dp179
Valternatives
p180
(lp181
(dp182
Vtimestamps
p183
(lp184
(lp185
Vit's
p186
aF55.83
aF55.92
aa(lp187
Vgoing
p188
aF55.92
aF56.22
aa(lp189
Vto
p190
aF56.22
aF56.28
aa(lp191
Vmake
p192
aF57.43
aF57.62
aa(lp193
Vme
p194
aF59.78
aF59.98
aasVconfidence
p195
F0.717
sVtranscript
p196
Vit's going to make me 
p197
sasVfinal
p198
I01
sa(dp199
Valternatives
p200
(lp201
(dp202
Vtimestamps
p203
(lp204
(lp205
Vanother
p206
aF69.02
aF69.31
aa(lp207
Vdelivery
p208
aF69.51
aF70.11
aasVconfidence
p209
F0.705
sVtranscript
p210
Vanother delivery 
p211
sasVfinal
p212
I01
sa(dp213
Valternatives
p214
(lp215
(dp216
Vtimestamps
p217
(lp218
(lp219
g94
aF85.3
aF85.33
aa(lp220
Vdon't
p221
aF85.33
aF85.53
aa(lp222
Vthink
p223
aF85.53
aF85.74
aa(lp224
Vyou
p225
aF88.04
aF88.22
aa(lp226
Vshould
p227
aF88.27
aF88.47
aa(lp228
Vdo
p229
aF88.47
aF88.62
aasVconfidence
p230
F0.525
sVtranscript
p231
VI don't think you should do 
p232
sasVfinal
p233
I01
sa(dp234
Valternatives
p235
(lp236
(dp237
Vtimestamps
p238
(lp239
(lp240
Vthree
p241
aF90.86
aF91.07
aa(lp242
Vdo
p243
aF91.07
aF91.19
aa(lp244
Vyou
p245
aF91.19
aF91.36
aasVconfidence
p246
F0.563
sVtranscript
p247
Vthree do you 
p248
sasVfinal
p249
I01
sasVresult_index
p250
I0
sVspeaker_labels
p251
(lp252
(dp253
Vto
p254
F3.4
sVconfidence
p255
F0.5
sVspeaker
p256
I0
sVfrom
p257
F3.3
sVfinal
p258
I00
sa(dp259
Vto
p260
F3.64
sVconfidence
p261
F0.5
sVspeaker
p262
I0
sVfrom
p263
F3.4
sVfinal
p264
I00
sa(dp265
Vto
p266
F5.28
sVconfidence
p267
F0.667
sVspeaker
p268
I1
sVfrom
p269
F4.93
sVfinal
p270
I00
sa(dp271
Vto
p272
F5.37
sVconfidence
p273
F0.667
sVspeaker
p274
I1
sVfrom
p275
F5.28
sVfinal
p276
I00
sa(dp277
Vto
p278
F5.5
sVconfidence
p279
F0.667
sVspeaker
p280
I1
sVfrom
p281
F5.37
sVfinal
p282
I00
sa(dp283
Vto
p284
F5.57
sVconfidence
p285
F0.667
sVspeaker
p286
I1
sVfrom
p287
F5.5
sVfinal
p288
I00
sa(dp289
Vto
p290
F5.84
sVconfidence
p291
F0.667
sVspeaker
p292
I1
sVfrom
p293
F5.57
sVfinal
p294
I00
sa(dp295
Vto
p296
F9.29
sVconfidence
p297
F0.385
sVspeaker
p298
I1
sVfrom
p299
F8.97
sVfinal
p300
I00
sa(dp301
Vto
p302
F9.76
sVconfidence
p303
F0.385
sVspeaker
p304
I1
sVfrom
p305
F9.29
sVfinal
p306
I00
sa(dp307
Vto
p308
F14.12
sVconfidence
p309
F0.393
sVspeaker
p310
I0
sVfrom
p311
F13.83
sVfinal
p312
I00
sa(dp313
Vto
p314
F14.45
sVconfidence
p315
F0.393
sVspeaker
p316
I0
sVfrom
p317
F14.12
sVfinal
p318
I00
sa(dp319
Vto
p320
F14.6
sVconfidence
p321
F0.393
sVspeaker
p322
I0
sVfrom
p323
F14.45
sVfinal
p324
I00
sa(dp325
Vto
p326
F18.3
sVconfidence
p327
F0.441
sVspeaker
p328
I1
sVfrom
p329
F18.22
sVfinal
p330
I00
sa(dp331
Vto
p332
F18.48
sVconfidence
p333
F0.441
sVspeaker
p334
I1
sVfrom
p335
F18.3
sVfinal
p336
I00
sa(dp337
Vto
p338
F18.69
sVconfidence
p339
F0.441
sVspeaker
p340
I1
sVfrom
p341
F18.48
sVfinal
p342
I00
sa(dp343
Vto
p344
F18.79
sVconfidence
p345
F0.441
sVspeaker
p346
I1
sVfrom
p347
F18.69
sVfinal
p348
I00
sa(dp349
Vto
p350
F18.91
sVconfidence
p351
F0.441
sVspeaker
p352
I1
sVfrom
p353
F18.79
sVfinal
p354
I00
sa(dp355
Vto
p356
F20.29
sVconfidence
p357
F0.56
sVspeaker
p358
I1
sVfrom
p359
F20.2
sVfinal
p360
I00
sa(dp361
Vto
p362
F20.44
sVconfidence
p363
F0.56
sVspeaker
p364
I1
sVfrom
p365
F20.29
sVfinal
p366
I00
sa(dp367
Vto
p368
F20.6
sVconfidence
p369
F0.56
sVspeaker
p370
I1
sVfrom
p371
F20.44
sVfinal
p372
I00
sa(dp373
Vto
p374
F20.92
sVconfidence
p375
F0.508
sVspeaker
p376
I1
sVfrom
p377
F20.83
sVfinal
p378
I00
sa(dp379
Vto
p380
F21.15
sVconfidence
p381
F0.508
sVspeaker
p382
I1
sVfrom
p383
F20.92
sVfinal
p384
I00
sa(dp385
Vto
p386
F21.26
sVconfidence
p387
F0.508
sVspeaker
p388
I1
sVfrom
p389
F21.15
sVfinal
p390
I00
sa(dp391
Vto
p392
F21.42
sVconfidence
p393
F0.508
sVspeaker
p394
I1
sVfrom
p395
F21.26
sVfinal
p396
I00
sa(dp397
Vto
p398
F21.53
sVconfidence
p399
F0.508
sVspeaker
p400
I1
sVfrom
p401
F21.42
sVfinal
p402
I00
sa(dp403
Vto
p404
F22.42
sVconfidence
p405
F0.42
sVspeaker
p406
I1
sVfrom
p407
F22.09
sVfinal
p408
I00
sa(dp409
Vto
p410
F23.31
sVconfidence
p411
F0.415
sVspeaker
p412
I1
sVfrom
p413
F23.15
sVfinal
p414
I00
sa(dp415
Vto
p416
F23.56
sVconfidence
p417
F0.415
sVspeaker
p418
I1
sVfrom
p419
F23.31
sVfinal
p420
I00
sa(dp421
Vto
p422
F24.46
sVconfidence
p423
F0.52
sVspeaker
p424
I1
sVfrom
p425
F24.21
sVfinal
p426
I00
sa(dp427
Vto
p428
F29.38
sVconfidence
p429
F0.472
sVspeaker
p430
I0
sVfrom
p431
F29.2
sVfinal
p432
I00
sa(dp433
Vto
p434
F35.88
sVconfidence
p435
F0.498
sVspeaker
p436
I1
sVfrom
p437
F35.72
sVfinal
p438
I00
sa(dp439
Vto
p440
F35.95
sVconfidence
p441
F0.498
sVspeaker
p442
I1
sVfrom
p443
F35.88
sVfinal
p444
I00
sa(dp445
Vto
p446
F36.12
sVconfidence
p447
F0.498
sVspeaker
p448
I1
sVfrom
p449
F35.95
sVfinal
p450
I00
sa(dp451
Vto
p452
F44.47
sVconfidence
p453
F0.399
sVspeaker
p454
I1
sVfrom
p455
F44.34
sVfinal
p456
I00
sa(dp457
Vto
p458
F44.62
sVconfidence
p459
F0.399
sVspeaker
p460
I1
sVfrom
p461
F44.47
sVfinal
p462
I00
sa(dp463
Vto
p464
F44.69
sVconfidence
p465
F0.399
sVspeaker
p466
I1
sVfrom
p467
F44.62
sVfinal
p468
I00
sa(dp469
Vto
p470
F44.91
sVconfidence
p471
F0.399
sVspeaker
p472
I1
sVfrom
p473
F44.69
sVfinal
p474
I00
sa(dp475
Vto
p476
F46.03
sVconfidence
p477
F0.446
sVspeaker
p478
I1
sVfrom
p479
F45.64
sVfinal
p480
I00
sa(dp481
Vto
p482
F46.22
sVconfidence
p483
F0.446
sVspeaker
p484
I1
sVfrom
p485
F46.03
sVfinal
p486
I00
sa(dp487
Vto
p488
F55.92
sVconfidence
p489
F0.291
sVspeaker
p490
I1
sVfrom
p491
F55.83
sVfinal
p492
I00
sa(dp493
Vto
p494
F56.22
sVconfidence
p495
F0.291
sVspeaker
p496
I1
sVfrom
p497
F55.92
sVfinal
p498
I00
sa(dp499
Vto
p500
F56.28
sVconfidence
p501
F0.291
sVspeaker
p502
I1
sVfrom
p503
F56.22
sVfinal
p504
I00
sa(dp505
Vto
p506
F57.62
sVconfidence
p507
F0.548
sVspeaker
p508
I1
sVfrom
p509
F57.43
sVfinal
p510
I00
sa(dp511
Vto
p512
F59.98
sVconfidence
p513
F0.647
sVspeaker
p514
I0
sVfrom
p515
F59.78
sVfinal
p516
I00
sa(dp517
Vto
p518
F69.31
sVconfidence
p519
F0.492
sVspeaker
p520
I1
sVfrom
p521
F69.02
sVfinal
p522
I00
sa(dp523
Vto
p524
F70.11
sVconfidence
p525
F0.416
sVspeaker
p526
I1
sVfrom
p527
F69.51
sVfinal
p528
I00
sa(dp529
Vto
p530
F85.33
sVconfidence
p531
F0.329
sVspeaker
p532
I1
sVfrom
p533
F85.3
sVfinal
p534
I00
sa(dp535
Vto
p536
F85.53
sVconfidence
p537
F0.329
sVspeaker
p538
I1
sVfrom
p539
F85.33
sVfinal
p540
I00
sa(dp541
Vto
p542
F85.74
sVconfidence
p543
F0.329
sVspeaker
p544
I1
sVfrom
p545
F85.53
sVfinal
p546
I00
sa(dp547
Vto
p548
F88.22
sVconfidence
p549
F0.59
sVspeaker
p550
I0
sVfrom
p551
F88.04
sVfinal
p552
I00
sa(dp553
Vto
p554
F88.47
sVconfidence
p555
F0.56
sVspeaker
p556
I0
sVfrom
p557
F88.27
sVfinal
p558
I00
sa(dp559
Vto
p560
F88.62
sVconfidence
p561
F0.56
sVspeaker
p562
I0
sVfrom
p563
F88.47
sVfinal
p564
I00
sa(dp565
Vto
p566
F91.07
sVconfidence
p567
F0.558
sVspeaker
p568
I0
sVfrom
p569
F90.86
sVfinal
p570
I00
sa(dp571
Vto
p572
F91.19
sVconfidence
p573
F0.558
sVspeaker
p574
I0
sVfrom
p575
F91.07
sVfinal
p576
I00
sa(dp577
Vto
p578
F91.36
sVconfidence
p579
F0.558
sVspeaker
p580
I0
sVfrom
p581
F91.19
sVfinal
p582
I01
sas.