(dp0
Vresults
p1
(lp2
(dp3
Valternatives
p4
(lp5
(dp6
Vtimestamps
p7
(lp8
(lp9
V%HESITATION
p10
aF0.92
aF1.21
aasVconfidence
p11
F0.573
sVtranscript
p12
V%HESITATION 
p13
sasVfinal
p14
I01
sa(dp15
Valternatives
p16
(lp17
(dp18
Vtimestamps
p19
(lp20
(lp21
VI've
p22
aF3.01
aF3.23
aa(lp23
Vbeen
p24
aF3.23
aF3.37
aa(lp25
Va
p26
aF3.37
aF3.53
aa(lp27
Vcity
p28
aF3.53
aF3.89
aa(lp29
Vthat
p30
aF3.89
aF4.25
aa(lp31
Vrun
p32
aF4.25
aF4.49
aa(lp33
Vthrough
p34
aF4.49
aF4.73
aa(lp35
Vsome
p36
aF4.73
aF4.95
aa(lp37
Vof
p38
aF4.95
aF5.06
aa(lp39
Vthe
p40
aF5.06
aF5.13
aa(lp41
Vmore
p42
aF5.13
aF5.29
aa(lp43
Vclinical
p44
aF5.29
aF5.79
aa(lp45
Vaspects
p46
aF5.79
aF6.51
aa(lp47
V%HESITATION
p48
aF6.51
aF6.86
aa(lp49
Vthat
p50
aF6.86
aF7.02
aa(lp51
Vwe
p52
aF7.02
aF7.14
aa(lp53
Vface
p54
aF7.14
aF7.71
aa(lp55
V%HESITATION
p56
aF7.74
aF7.96
aa(lp57
Vwith
p58
aF7.96
aF8.11
aa(lp59
Vthe
p60
aF8.11
aF8.2
aa(lp61
Vpotential
p62
aF8.2
aF8.76
aa(lp63
Vfor
p64
aF8.76
aF9.26
aa(lp65
g26
aF9.29
aF9.4
aa(lp66
Vball
p67
aF9.4
aF9.72
aa(lp68
V%HESITATION
p69
aF9.72
aF9.94
aa(lp70
V%HESITATION
p71
aF9.97
aF10.37
aa(lp72
Vto
p73
aF10.4
aF10.53
aa(lp74
Vcontinue
p75
aF10.53
aF10.96
aa(lp76
Vsailing
p77
aF10.96
aF11.3
aa(lp78
Vthinking
p79
aF11.63
aF11.91
aa(lp80
Vdoubts
p81
aF11.91
aF12.22
aa(lp82
Vthat
p83
aF12.22
aF12.31
aa(lp84
Vwe
p85
aF12.31
aF12.39
aa(lp86
Vneed
p87
aF12.39
aF12.53
aa(lp88
Vto
p89
aF12.53
aF12.61
aa(lp90
Vsay
p91
aF12.61
aF12.84
aa(lp92
Vthat
p93
aF12.84
aF12.99
aa(lp94
Vthat
p95
aF12.99
aF13.2
aa(lp96
Vpotential
p97
aF13.2
aF13.64
aa(lp98
Vis
p99
aF13.64
aF13.75
aa(lp100
Vquite
p101
aF13.75
aF14.05
aa(lp102
g26
aF14.05
aF14.13
aa(lp103
Vload
p104
aF14.13
aF14.5
aa(lp105
V%HESITATION
p106
aF14.82
aF15.26
aa(lp107
Vgiven
p108
aF15.29
aF15.82
aa(lp109
Vthe
p110
aF16.21
aF16.53
aa(lp111
Vdistance
p112
aF16.53
aF17.0
aa(lp113
Vwe
p114
aF17.0
aF17.19
aa(lp115
V%HESITATION
p116
aF17.19
aF17.63
aa(lp117
Vin
p118
aF17.67
aF17.91
aa(lp119
Vthe
p120
aF17.91
aF18.17
aa(lp121
Vnumber
p122
aF18.2
aF18.48
aa(lp123
Vof
p124
aF18.48
aF18.55
aa(lp125
Vtrying
p126
aF18.55
aF18.77
aa(lp127
Vto
p128
aF18.77
aF18.98
aa(lp129
Vcome
p130
aF18.98
aF19.18
aa(lp131
Vfrom
p132
aF19.18
aF19.46
aa(lp133
Vthe
p134
aF19.46
aF19.56
aa(lp135
Vcurrently
p136
aF19.56
aF19.95
aa(lp137
Vaffected
p138
aF19.95
aF20.34
aa(lp139
V%HESITATION
p140
aF20.44
aF20.67
aa(lp141
Vcountries
p142
aF20.67
aF21.3
aa(lp143
Vhowever
p144
aF21.64
aF22.01
aa(lp145
Vthat
p146
aF22.05
aF22.28
aa(lp147
Vdoesn't
p148
aF22.28
aF22.51
aa(lp149
Vmean
p150
aF22.51
aF22.66
aa(lp151
Vrisk
p152
aF22.66
aF22.94
aa(lp153
Vzero
p154
aF22.94
aF23.42
aa(lp155
Vand
p156
aF23.42
aF23.83
aa(lp157
Vit
p158
aF23.83
aF23.93
aa(lp159
Vdoesn't
p160
aF23.93
aF24.18
aa(lp161
Vmean
p162
aF24.18
aF24.34
aa(lp163
Vthat
p164
aF24.34
aF24.47
aa(lp165
Vwe
p166
aF24.47
aF24.7
aa(lp167
Vshould
p168
aF25.02
aF25.37
aa(lp169
V%HESITATION
p170
aF25.4
aF25.76
aa(lp171
VReshma
p172
aF25.76
aF26.15
aa(lp173
Vlaurels
p174
aF26.15
aF26.51
aa(lp175
Vwe
p176
aF26.51
aF26.71
aa(lp177
Vneed
p178
aF26.76
aF26.99
aa(lp179
Vto
p180
aF26.99
aF27.08
aa(lp181
Vbe
p182
aF27.08
aF27.36
aa(lp183
Vadequately
p184
aF27.4
aF27.81
aa(lp185
Vfor
p186
aF27.81
aF27.96
aa(lp187
Vpaid
p188
aF27.96
aF28.35
aasVconfidence
p189
F0.797
sVtranscript
p190
VI've been a city that run through some of the more clinical aspects %HESITATION that we face %HESITATION with the potential for a ball %HESITATION %HESITATION to continue sailing thinking doubts that we need to say that that potential is quite a load %HESITATION given the distance we %HESITATION in the number of trying to come from the currently affected %HESITATION countries however that doesn't mean risk zero and it doesn't mean that we should %HESITATION Reshma laurels we need to be adequately for paid 
p191
sasVfinal
p192
I01
sa(dp193
Valternatives
p194
(lp195
(dp196
Vtimestamps
p197
(lp198
(lp199
Vfor
p200
aF29.0
aF29.22
aa(lp201
Vthat
p202
aF29.22
aF29.39
aa(lp203
Vpotential
p204
aF29.39
aF29.97
aa(lp205
V%HESITATION
p206
aF30.0
aF30.48
aa(lp207
Vto
p208
aF30.59
aF30.94
aa(lp209
Vto
p210
aF31.0
aF31.15
aa(lp211
Vcome
p212
aF31.15
aF31.33
aa(lp213
Vhere
p214
aF31.33
aF31.55
aa(lp215
Vthinking
p216
aF31.94
aF32.23
aa(lp217
Vof
p218
aF32.23
aF32.35
aa(lp219
Vthe
p220
aF32.35
aF32.46
aa(lp221
Vfactions
p222
aF32.46
aF32.97
aa(lp223
Vactually
p224
aF32.97
aF33.46
aa(lp225
Vwe
p226
aF33.46
aF33.58
aa(lp227
Vhave
p228
aF33.58
aF34.02
aa(lp229
Vto
p230
aF34.3
aF35.02
aa(lp231
Vfix
p232
aF35.12
aF35.38
aa(lp233
Vthings
p234
aF35.38
aF35.65
aa(lp235
Vout
p236
aF35.65
aF35.84
aa(lp237
Vall
p238
aF35.84
aF36.08
aa(lp239
Vthe
p240
aF36.08
aF36.18
aa(lp241
Vtwo
p242
aF36.18
aF36.61
aa(lp243
Vmost
p244
aF36.64
aF37.05
aa(lp245
Vadvanced
p246
aF37.08
aF37.75
aa(lp247
Vones
p248
aF37.78
aF38.2
aa(lp249
Vfor
p250
aF38.23
aF38.34
aa(lp251
Vthe
p252
aF38.34
aF38.45
aa(lp253
Vfirst
p254
aF38.45
aF38.79
aa(lp255
Vone
p256
aF38.79
aF38.98
aa(lp257
Vis
p258
aF38.98
aF39.21
aa(lp259
Vfrom
p260
aF39.21
aF39.51
aa(lp261
g26
aF39.51
aF39.75
aa(lp262
Vcompany
p263
aF39.78
aF40.2
aa(lp264
Vcalled
p265
aF40.2
aF40.51
aa(lp266
VGlaxo
p267
aF40.89
aF41.7
aa(lp268
VGA
p269
aF41.79
aF42.06
aa(lp270
Vskate
p271
aF42.06
aF42.64
aa(lp272
Vand
p273
aF42.92
aF43.59
aa(lp274
Vso
p275
aF43.59
aF43.74
aa(lp276
Vit's
p277
aF43.74
aF44.1
aa(lp278
Valready
p279
aF44.13
aF44.5
aa(lp280
Vand
p281
aF44.5
aF44.72
aa(lp282
Vare
p283
aF44.72
aF44.81
aa(lp284
Vgoing
p285
aF44.81
aF45.28
aa(lp286
Vto
p287
aF45.31
aF45.39
aa(lp288
Vwant
p289
aF45.42
aF45.63
aa(lp290
Vto
p291
aF45.63
aF45.71
aa(lp292
Vgo
p293
aF45.71
aF45.87
aa(lp294
Vto
p295
aF45.87
aF45.99
aa(lp296
Vsafety
p297
aF45.99
aF46.4
aa(lp298
Vtastes
p299
aF46.4
aF46.93
aa(lp300
Vin
p301
aF47.17
aF47.39
aa(lp302
V%HESITATION
p303
aF47.42
aF47.82
aa(lp304
Vdifferent
p305
aF47.82
aF48.36
aa(lp306
Vcountries
p307
aF48.39
aF48.97
aa(lp308
V%HESITATION
p309
aF49.31
aF50.01
aa(lp310
V%HESITATION
p311
aF50.05
aF50.51
aa(lp312
Vtrial
p313
aF50.54
aF50.95
aa(lp314
Vhas
p315
aF50.95
aF51.12
aa(lp316
Vbeen
p317
aF51.12
aF51.25
aa(lp318
Vstopped
p319
aF51.25
aF51.58
aa(lp320
Vor
p321
aF51.61
aF51.79
aa(lp322
Vis
p323
aF51.82
aF52.01
aa(lp324
Vis
p325
aF52.01
aF52.19
aa(lp326
Vgoing
p327
aF52.19
aF52.41
aa(lp328
Vto
p329
aF52.41
aF52.54
aa(lp330
Vstop
p331
aF52.54
aF52.98
aa(lp332
Vvery
p333
aF53.05
aF53.36
aa(lp334
Vsoon
p335
aF53.36
aF53.72
aa(lp336
V%HESITATION
p337
aF53.75
aF54.13
aa(lp338
Vin
p339
aF54.13
aF54.34
aa(lp340
VSwitzerland
p341
aF54.34
aF54.96
aa(lp342
Vand
p343
aF55.33
aF55.55
aa(lp344
Vit
p345
aF55.55
aF55.67
aa(lp346
Vsold
p347
aF55.67
aF56.01
aa(lp348
Vabout
p349
aF56.01
aF56.35
aa(lp350
Vtasting
p351
aF56.43
aF57.13
aa(lp352
Vstraight
p353
aF57.2
aF57.52
aa(lp354
Vtesting
p355
aF57.55
aF57.93
aa(lp356
Vthe
p357
aF57.93
aF58.05
aa(lp358
Vsafety
p359
aF58.05
aF58.73
aa(lp360
Vof
p361
aF58.85
aF59.15
aa(lp362
Vthe
p363
aF59.15
aF59.4
aa(lp364
Vbox
p365
aF59.48
aF59.77
aa(lp366
Vand
p367
aF59.77
aF59.92
aa(lp368
Vtesting
p369
aF60.14
aF60.61
aa(lp370
Vand
p371
aF61.13
aF61.4
aa(lp372
Vthey
p373
aF61.4
aF61.58
aa(lp374
Vare
p375
aF61.58
aF61.72
aa(lp376
Vgoing
p377
aF61.72
aF61.97
aa(lp378
Vto
p379
aF61.97
aF62.29
aa(lp380
V%HESITATION
p381
aF62.32
aF62.65
aa(lp382
Vconduct
p383
aF62.65
aF63.13
aa(lp384
Vinstalled
p385
aF63.13
aF63.7
aa(lp386
V%HESITATION
p387
aF63.73
aF64.38
aa(lp388
Vdifferent
p389
aF64.41
aF64.77
aa(lp390
Vphases
p391
aF64.8
aF65.34
aa(lp392
Vto
p393
aF65.51
aF65.8
aa(lp394
Vand
p395
aF65.8
aF66.01
aa(lp396
Vthree
p397
aF66.01
aF66.43
aa(lp398
V%HESITATION
p399
aF66.77
aF67.37
aa(lp400
VI
p401
aF67.4
aF67.47
aa(lp402
Vjust
p403
aF67.47
aF67.66
aa(lp404
Vsame
p405
aF67.66
aF67.88
aa(lp406
Vtime
p407
aF67.88
aF68.45
aa(lp408
Vas
p409
aF68.54
aF68.7
aa(lp410
g26
aF68.7
aF68.9
aa(lp411
Vsort
p412
aF69.07
aF69.32
aa(lp413
Vabout
p414
aF69.32
aF69.52
aa(lp415
Vsaving
p416
aF69.52
aF69.89
aa(lp417
Vtime
p418
aF69.89
aF70.36
aa(lp419
Vin
p420
aF70.78
aF71.08
aa(lp421
V%HESITATION
p422
aF71.08
aF71.36
aa(lp423
g401
aF71.36
aF71.46
aa(lp424
Vfixed
p425
aF71.46
aF71.79
aa(lp426
Vit
p427
aF71.79
aF71.91
aa(lp428
Vand
p429
aF71.91
aF72.12
aa(lp430
Vaffected
p431
aF72.15
aF72.58
aa(lp432
Vcountries
p433
aF72.58
aF73.19
aasVconfidence
p434
F0.789
sVtranscript
p435
Vfor that potential %HESITATION to to come here thinking of the factions actually we have to fix things out all the two most advanced ones for the first one is from a company called Glaxo GA skate and so it's already and are going to want to go to safety tastes in %HESITATION different countries %HESITATION %HESITATION trial has been stopped or is is going to stop very soon %HESITATION in Switzerland and it sold about tasting straight testing the safety of the box and testing and they are going to %HESITATION conduct installed %HESITATION different phases to and three %HESITATION I just same time as a sort about saving time in %HESITATION I fixed it and affected countries 
p436
sasVfinal
p437
I01
sa(dp438
Valternatives
p439
(lp440
(dp441
Vtimestamps
p442
(lp443
(lp444
Vthe
p445
aF73.84
aF73.94
aa(lp446
Vtreatment
p447
aF73.94
aF74.27
aa(lp448
Vthat
p449
aF74.27
aF74.36
aa(lp450
Vwe
p451
aF74.36
aF74.44
aa(lp452
Vcan
p453
aF74.44
aF74.74
aa(lp454
Vgive
p455
aF74.74
aF75.02
aa(lp456
Vthe
p457
aF75.13
aF75.2
aa(lp458
Vshooting
p459
aF75.2
aF75.56
aa(lp460
Vthat
p461
aF75.56
aF75.72
aa(lp462
Vis
p463
aF75.72
aF75.96
aa(lp464
Vpatient
p465
aF75.96
aF76.34
aa(lp466
Vwas
p467
aF76.34
aF76.61
aa(lp468
Vwith
p469
aF76.64
aF76.8
aa(lp470
Vthe
p471
aF76.8
aF76.89
aa(lp472
Vball
p473
aF76.89
aF77.17
aa(lp474
V%HESITATION
p475
aF77.17
aF77.36
aa(lp476
V%HESITATION
p477
aF77.56
aF78.05
aa(lp478
Vis
p479
aF78.1
aF78.41
aa(lp480
Vseen
p481
aF78.71
aF79.02
aa(lp482
Varound
p483
aF79.13
aF79.52
aa(lp484
Vsupported
p485
aF79.52
aF80.01
aa(lp486
Vkia
p487
aF80.01
aF80.45
aa(lp488
Vand
p489
aF80.92
aF81.33
aa(lp490
Vthe
p491
aF81.36
aF81.57
aa(lp492
Vclinical
p493
aF81.57
aF82.12
aa(lp494
Vsit
p495
aF82.43
aF82.79
aa(lp496
Vsituations
p497
aF82.82
aF83.6
aa(lp498
Vthe
p499
aF83.65
aF83.83
aa(lp500
Vpassions
p501
aF83.83
aF84.2
aa(lp502
Vof
p503
aF84.2
aF84.32
aa(lp504
Vice
p505
aF84.32
aF84.56
aa(lp506
Vwas
p507
aF84.56
aF84.77
aa(lp508
Vis
p509
aF84.77
aF84.96
aa(lp510
g26
aF84.96
aF85.04
aa(lp511
Vloss
p512
aF85.04
aF85.26
aa(lp513
Vof
p514
aF85.26
aF85.4
aa(lp515
Vfluid
p516
aF85.44
aF85.74
aa(lp517
Vloss
p518
aF85.74
aF85.97
aa(lp519
Vfrom
p520
aF85.97
aF86.12
aa(lp521
Vthe
p522
aF86.12
aF86.2
aa(lp523
Vbody
p524
aF86.2
aF86.63
aa(lp525
V%HESITATION
p526
aF86.96
aF87.3
aa(lp527
Vthrough
p528
aF87.3
aF87.77
aa(lp529
V%HESITATION
p530
aF88.06
aF88.46
aa(lp531
Vvomiting
p532
aF88.49
aF89.18
aa(lp533
Vdiarrhea
p534
aF89.21
aF89.92
aa(lp535
Vand
p536
aF90.08
aF90.58
aa(lp537
V%HESITATION
p538
aF90.61
aF90.88
aa(lp539
Vleakage
p540
aF90.91
aF91.35
aa(lp541
Vof
p542
aF91.35
aF91.46
aa(lp543
Vfluid
p544
aF91.46
aF91.79
aa(lp545
Vfrom
p546
aF91.79
aF92.08
aa(lp547
Vwithin
p548
aF92.08
aF92.34
aa(lp549
Vthe
p550
aF92.34
aF92.44
aa(lp551
Vblood
p552
aF92.44
aF92.65
aa(lp553
Vstream
p554
aF92.65
aF93.0
aa(lp555
Vinto
p556
aF93.03
aF93.31
aa(lp557
Vthe
p558
aF93.31
aF93.41
aa(lp559
Vtissues
p560
aF93.41
aF93.78
aa(lp561
Vand
p562
aF93.78
aF94.05
aa(lp563
Vin
p564
aF94.12
aF94.35
aa(lp565
Vin
p566
aF94.38
aF94.5
aa(lp567
Vthe
p568
aF94.5
aF94.6
aa(lp569
Vbody
p570
aF94.6
aF95.02
aasVconfidence
p571
F0.791
sVtranscript
p572
Vthe treatment that we can give the shooting that is patient was with the ball %HESITATION %HESITATION is seen around supported kia and the clinical sit situations the passions of ice was is a loss of fluid loss from the body %HESITATION through %HESITATION vomiting diarrhea and %HESITATION leakage of fluid from within the blood stream into the tissues and in in the body 
p573
sasVfinal
p574
I01
sa(dp575
Valternatives
p576
(lp577
(dp578
Vtimestamps
p579
(lp580
(lp581
Vnow
p582
aF95.56
aF95.71
aa(lp583
Vthose
p584
aF95.71
aF95.92
aa(lp585
Vtwo
p586
aF95.92
aF96.09
aa(lp587
Vlosses
p588
aF96.09
aF96.42
aa(lp589
Vcan
p590
aF96.42
aF96.52
aa(lp591
Vbe
p592
aF96.52
aF96.61
aa(lp593
Vvery
p594
aF96.61
aF96.82
aa(lp595
Vlarge
p596
aF96.82
aF97.5
aa(lp597
V%HESITATION
p598
aF97.53
aF97.83
aa(lp599
Vas
p600
aF97.83
aF97.96
aa(lp601
Vmuch
p602
aF97.96
aF98.24
aa(lp603
Vas
p604
aF98.24
aF98.38
aa(lp605
Vteam
p606
aF98.38
aF98.64
aa(lp607
Vleaders
p608
aF98.64
aF98.96
aa(lp609
Vwould
p610
aF98.96
aF99.08
aa(lp611
Vdie
p612
aF99.08
aF99.5
aa(lp613
Vand
p614
aF99.76
aF100.26
aa(lp615
V%HESITATION
p616
aF100.29
aF100.6
aa(lp617
Vmanaging
p618
aF100.6
aF101.14
aa(lp619
Vnation
p620
aF101.14
aF101.48
aa(lp621
Vat
p622
aF101.48
aF101.74
aa(lp623
V%HESITATION
p624
aF101.79
aF102.11
aa(lp625
Vis
p626
aF102.11
aF102.65
aa(lp627
Vis
p628
aF102.68
aF102.84
aa(lp629
Vreally
p630
aF102.84
aF103.05
aa(lp631
Vimportant
p632
aF103.05
aF103.42
aa(lp633
Vpart
p634
aF103.42
aF103.63
aa(lp635
Vof
p636
aF103.63
aF103.7
aa(lp637
Vthe
p638
aF103.7
aF103.79
aa(lp639
Vtreatment
p640
aF103.79
aF104.17
aa(lp641
Vthe
p642
aF104.17
aF104.27
aa(lp643
Vit
p644
aF104.27
aF104.54
aa(lp645
Vwe
p646
aF104.54
aF104.67
aa(lp647
Vcan
p648
aF104.67
aF104.81
aa(lp649
Vget
p650
aF104.81
aF104.94
aa(lp651
Von
p652
aF104.94
aF105.27
aa(lp653
Vand
p654
aF105.55
aF105.93
aa(lp655
Vreplace
p656
aF106.05
aF106.51
aa(lp657
Vwhat's
p658
aF106.51
aF106.69
aa(lp659
Vbeen
p660
aF106.69
aF106.84
aa(lp661
Vlost
p662
aF106.84
aF107.29
aa(lp663
Vand
p664
aF107.29
aF107.44
aa(lp665
Vmaintain
p666
aF107.44
aF108.1
aa(lp667
Vnormal
p668
aF108.27
aF108.98
aa(lp669
V%HESITATION
p670
aF109.1
aF109.86
aa(lp671
Vfluid
p672
aF110.08
aF110.7
aa(lp673
Vit
p674
aF110.7
aF110.81
aa(lp675
Vwas
p676
aF110.81
aF110.91
aa(lp677
Vin
p678
aF110.91
aF111.03
aa(lp679
Vthe
p680
aF111.03
aF111.17
aa(lp681
Vin
p682
aF111.45
aF111.59
aa(lp683
Vthe
p684
aF111.59
aF111.69
aa(lp685
Vbody
p686
aF111.69
aF112.07
aa(lp687
Vside
p688
aF112.07
aF112.34
aa(lp689
Vof
p690
aF112.34
aF112.4
aa(lp691
Vthe
p692
aF112.4
aF112.51
aa(lp693
Vhouse
p694
aF112.51
aF112.77
aa(lp695
Vis
p696
aF112.77
aF112.86
aa(lp697
Vpumping
p698
aF112.86
aF113.15
aa(lp699
Vnormally
p700
aF113.15
aF113.55
aa(lp701
Von
p702
aF113.55
aF113.67
aa(lp703
Vthe
p704
aF113.67
aF113.84
aa(lp705
Vorgans
p706
aF114.2
aF114.89
aa(lp707
Vare
p708
aF115.06
aF115.18
aa(lp709
Vreceiving
p710
aF115.18
aF115.58
aa(lp711
Vadequate
p712
aF115.58
aF115.94
aa(lp713
Vbut
p714
aF115.94
aF116.15
aa(lp715
Vfighting
p716
aF116.15
aF116.58
aa(lp717
Vwe
p718
aF116.58
aF116.72
aa(lp719
Vcan
p720
aF116.72
aF116.95
aa(lp721
Vprotect
p722
aF116.95
aF117.28
aa(lp723
Vthe
p724
aF117.28
aF117.36
aa(lp725
Vpatient
p726
aF117.36
aF117.8
aa(lp727
Vagainst
p728
aF117.88
aF118.38
aa(lp729
Vthe
p730
aF118.38
aF118.6
aa(lp731
Vdeterioration
p732
aF118.6
aF119.44
aasVconfidence
p733
F0.762
sVtranscript
p734
Vnow those two losses can be very large %HESITATION as much as team leaders would die and %HESITATION managing nation at %HESITATION is is really important part of the treatment the it we can get on and replace what's been lost and maintain normal %HESITATION fluid it was in the in the body side of the house is pumping normally on the organs are receiving adequate but fighting we can protect the patient against the deterioration 
p735
sasVfinal
p736
I01
sasVresult_index
p737
I0
sVspeaker_labels
p738
(lp739
(dp740
Vto
p741
F1.21
sVconfidence
p742
F0.311
sVspeaker
p743
I1
sVfrom
p744
F0.92
sVfinal
p745
I00
sa(dp746
Vto
p747
F3.23
sVconfidence
p748
F0.401
sVspeaker
p749
I0
sVfrom
p750
F3.01
sVfinal
p751
I00
sa(dp752
Vto
p753
F3.37
sVconfidence
p754
F0.401
sVspeaker
p755
I0
sVfrom
p756
F3.23
sVfinal
p757
I00
sa(dp758
Vto
p759
F3.53
sVconfidence
p760
F0.401
sVspeaker
p761
I0
sVfrom
p762
F3.37
sVfinal
p763
I00
sa(dp764
Vto
p765
F3.89
sVconfidence
p766
F0.401
sVspeaker
p767
I0
sVfrom
p768
F3.53
sVfinal
p769
I00
sa(dp770
Vto
p771
F4.25
sVconfidence
p772
F0.401
sVspeaker
p773
I0
sVfrom
p774
F3.89
sVfinal
p775
I00
sa(dp776
Vto
p777
F4.49
sVconfidence
p778
F0.401
sVspeaker
p779
I0
sVfrom
p780
F4.25
sVfinal
p781
I00
sa(dp782
Vto
p783
F4.73
sVconfidence
p784
F0.401
sVspeaker
p785
I0
sVfrom
p786
F4.49
sVfinal
p787
I00
sa(dp788
Vto
p789
F4.95
sVconfidence
p790
F0.401
sVspeaker
p791
I0
sVfrom
p792
F4.73
sVfinal
p793
I00
sa(dp794
Vto
p795
F5.06
sVconfidence
p796
F0.401
sVspeaker
p797
I0
sVfrom
p798
F4.95
sVfinal
p799
I00
sa(dp800
Vto
p801
F5.13
sVconfidence
p802
F0.401
sVspeaker
p803
I0
sVfrom
p804
F5.06
sVfinal
p805
I00
sa(dp806
Vto
p807
F5.29
sVconfidence
p808
F0.401
sVspeaker
p809
I0
sVfrom
p810
F5.13
sVfinal
p811
I00
sa(dp812
Vto
p813
F5.79
sVconfidence
p814
F0.401
sVspeaker
p815
I0
sVfrom
p816
F5.29
sVfinal
p817
I00
sa(dp818
Vto
p819
F6.51
sVconfidence
p820
F0.401
sVspeaker
p821
I0
sVfrom
p822
F5.79
sVfinal
p823
I00
sa(dp824
Vto
p825
F6.86
sVconfidence
p826
F0.401
sVspeaker
p827
I0
sVfrom
p828
F6.51
sVfinal
p829
I00
sa(dp830
Vto
p831
F7.02
sVconfidence
p832
F0.401
sVspeaker
p833
I0
sVfrom
p834
F6.86
sVfinal
p835
I00
sa(dp836
Vto
p837
F7.14
sVconfidence
p838
F0.401
sVspeaker
p839
I0
sVfrom
p840
F7.02
sVfinal
p841
I00
sa(dp842
Vto
p843
F7.71
sVconfidence
p844
F0.401
sVspeaker
p845
I0
sVfrom
p846
F7.14
sVfinal
p847
I00
sa(dp848
Vto
p849
F7.96
sVconfidence
p850
F0.341
sVspeaker
p851
I0
sVfrom
p852
F7.74
sVfinal
p853
I00
sa(dp854
Vto
p855
F8.11
sVconfidence
p856
F0.341
sVspeaker
p857
I0
sVfrom
p858
F7.96
sVfinal
p859
I00
sa(dp860
Vto
p861
F8.2
sVconfidence
p862
F0.341
sVspeaker
p863
I0
sVfrom
p864
F8.11
sVfinal
p865
I00
sa(dp866
Vto
p867
F8.76
sVconfidence
p868
F0.341
sVspeaker
p869
I0
sVfrom
p870
F8.2
sVfinal
p871
I00
sa(dp872
Vto
p873
F9.26
sVconfidence
p874
F0.341
sVspeaker
p875
I0
sVfrom
p876
F8.76
sVfinal
p877
I00
sa(dp878
Vto
p879
F9.4
sVconfidence
p880
F0.625
sVspeaker
p881
I0
sVfrom
p882
F9.29
sVfinal
p883
I00
sa(dp884
Vto
p885
F9.72
sVconfidence
p886
F0.625
sVspeaker
p887
I0
sVfrom
p888
F9.4
sVfinal
p889
I00
sa(dp890
Vto
p891
F9.94
sVconfidence
p892
F0.625
sVspeaker
p893
I0
sVfrom
p894
F9.72
sVfinal
p895
I00
sa(dp896
Vto
p897
F10.37
sVconfidence
p898
F0.634
sVspeaker
p899
I0
sVfrom
p900
F9.97
sVfinal
p901
I00
sa(dp902
Vto
p903
F10.53
sVconfidence
p904
F0.641
sVspeaker
p905
I0
sVfrom
p906
F10.4
sVfinal
p907
I00
sa(dp908
Vto
p909
F10.96
sVconfidence
p910
F0.641
sVspeaker
p911
I0
sVfrom
p912
F10.53
sVfinal
p913
I00
sa(dp914
Vto
p915
F11.3
sVconfidence
p916
F0.641
sVspeaker
p917
I0
sVfrom
p918
F10.96
sVfinal
p919
I00
sa(dp920
Vto
p921
F11.91
sVconfidence
p922
F0.489
sVspeaker
p923
I0
sVfrom
p924
F11.63
sVfinal
p925
I00
sa(dp926
Vto
p927
F12.22
sVconfidence
p928
F0.489
sVspeaker
p929
I0
sVfrom
p930
F11.91
sVfinal
p931
I00
sa(dp932
Vto
p933
F12.31
sVconfidence
p934
F0.489
sVspeaker
p935
I0
sVfrom
p936
F12.22
sVfinal
p937
I00
sa(dp938
Vto
p939
F12.39
sVconfidence
p940
F0.489
sVspeaker
p941
I0
sVfrom
p942
F12.31
sVfinal
p943
I00
sa(dp944
Vto
p945
F12.53
sVconfidence
p946
F0.489
sVspeaker
p947
I0
sVfrom
p948
F12.39
sVfinal
p949
I00
sa(dp950
Vto
p951
F12.61
sVconfidence
p952
F0.489
sVspeaker
p953
I0
sVfrom
p954
F12.53
sVfinal
p955
I00
sa(dp956
Vto
p957
F12.84
sVconfidence
p958
F0.489
sVspeaker
p959
I0
sVfrom
p960
F12.61
sVfinal
p961
I00
sa(dp962
Vto
p963
F12.99
sVconfidence
p964
F0.489
sVspeaker
p965
I0
sVfrom
p966
F12.84
sVfinal
p967
I00
sa(dp968
Vto
p969
F13.2
sVconfidence
p970
F0.489
sVspeaker
p971
I0
sVfrom
p972
F12.99
sVfinal
p973
I00
sa(dp974
Vto
p975
F13.64
sVconfidence
p976
F0.489
sVspeaker
p977
I0
sVfrom
p978
F13.2
sVfinal
p979
I00
sa(dp980
Vto
p981
F13.75
sVconfidence
p982
F0.489
sVspeaker
p983
I0
sVfrom
p984
F13.64
sVfinal
p985
I00
sa(dp986
Vto
p987
F14.05
sVconfidence
p988
F0.489
sVspeaker
p989
I0
sVfrom
p990
F13.75
sVfinal
p991
I00
sa(dp992
Vto
p993
F14.13
sVconfidence
p994
F0.489
sVspeaker
p995
I0
sVfrom
p996
F14.05
sVfinal
p997
I00
sa(dp998
Vto
p999
F14.5
sVconfidence
p1000
F0.489
sVspeaker
p1001
I0
sVfrom
p1002
F14.13
sVfinal
p1003
I00
sa(dp1004
Vto
p1005
F15.26
sVconfidence
p1006
F0.564
sVspeaker
p1007
I0
sVfrom
p1008
F14.82
sVfinal
p1009
I00
sa(dp1010
Vto
p1011
F15.82
sVconfidence
p1012
F0.455
sVspeaker
p1013
I0
sVfrom
p1014
F15.29
sVfinal
p1015
I00
sa(dp1016
Vto
p1017
F16.53
sVconfidence
p1018
F0.466
sVspeaker
p1019
I0
sVfrom
p1020
F16.21
sVfinal
p1021
I00
sa(dp1022
Vto
p1023
F17.0
sVconfidence
p1024
F0.466
sVspeaker
p1025
I0
sVfrom
p1026
F16.53
sVfinal
p1027
I00
sa(dp1028
Vto
p1029
F17.19
sVconfidence
p1030
F0.466
sVspeaker
p1031
I0
sVfrom
p1032
F17.0
sVfinal
p1033
I00
sa(dp1034
Vto
p1035
F17.63
sVconfidence
p1036
F0.466
sVspeaker
p1037
I0
sVfrom
p1038
F17.19
sVfinal
p1039
I00
sa(dp1040
Vto
p1041
F17.91
sVconfidence
p1042
F0.506
sVspeaker
p1043
I0
sVfrom
p1044
F17.67
sVfinal
p1045
I00
sa(dp1046
Vto
p1047
F18.17
sVconfidence
p1048
F0.506
sVspeaker
p1049
I0
sVfrom
p1050
F17.91
sVfinal
p1051
I00
sa(dp1052
Vto
p1053
F18.48
sVconfidence
p1054
F0.478
sVspeaker
p1055
I0
sVfrom
p1056
F18.2
sVfinal
p1057
I00
sa(dp1058
Vto
p1059
F18.55
sVconfidence
p1060
F0.478
sVspeaker
p1061
I0
sVfrom
p1062
F18.48
sVfinal
p1063
I00
sa(dp1064
Vto
p1065
F18.77
sVconfidence
p1066
F0.478
sVspeaker
p1067
I0
sVfrom
p1068
F18.55
sVfinal
p1069
I00
sa(dp1070
Vto
p1071
F18.98
sVconfidence
p1072
F0.478
sVspeaker
p1073
I0
sVfrom
p1074
F18.77
sVfinal
p1075
I00
sa(dp1076
Vto
p1077
F19.18
sVconfidence
p1078
F0.478
sVspeaker
p1079
I0
sVfrom
p1080
F18.98
sVfinal
p1081
I00
sa(dp1082
Vto
p1083
F19.46
sVconfidence
p1084
F0.478
sVspeaker
p1085
I0
sVfrom
p1086
F19.18
sVfinal
p1087
I00
sa(dp1088
Vto
p1089
F19.56
sVconfidence
p1090
F0.478
sVspeaker
p1091
I0
sVfrom
p1092
F19.46
sVfinal
p1093
I00
sa(dp1094
Vto
p1095
F19.95
sVconfidence
p1096
F0.478
sVspeaker
p1097
I0
sVfrom
p1098
F19.56
sVfinal
p1099
I00
sa(dp1100
Vto
p1101
F20.34
sVconfidence
p1102
F0.478
sVspeaker
p1103
I0
sVfrom
p1104
F19.95
sVfinal
p1105
I00
sa(dp1106
Vto
p1107
F20.67
sVconfidence
p1108
F0.646
sVspeaker
p1109
I0
sVfrom
p1110
F20.44
sVfinal
p1111
I00
sa(dp1112
Vto
p1113
F21.3
sVconfidence
p1114
F0.646
sVspeaker
p1115
I0
sVfrom
p1116
F20.67
sVfinal
p1117
I00
sa(dp1118
Vto
p1119
F22.01
sVconfidence
p1120
F0.639
sVspeaker
p1121
I0
sVfrom
p1122
F21.64
sVfinal
p1123
I00
sa(dp1124
Vto
p1125
F22.28
sVconfidence
p1126
F0.511
sVspeaker
p1127
I0
sVfrom
p1128
F22.05
sVfinal
p1129
I00
sa(dp1130
Vto
p1131
F22.51
sVconfidence
p1132
F0.511
sVspeaker
p1133
I0
sVfrom
p1134
F22.28
sVfinal
p1135
I00
sa(dp1136
Vto
p1137
F22.66
sVconfidence
p1138
F0.511
sVspeaker
p1139
I0
sVfrom
p1140
F22.51
sVfinal
p1141
I00
sa(dp1142
Vto
p1143
F22.94
sVconfidence
p1144
F0.511
sVspeaker
p1145
I0
sVfrom
p1146
F22.66
sVfinal
p1147
I00
sa(dp1148
Vto
p1149
F23.42
sVconfidence
p1150
F0.511
sVspeaker
p1151
I0
sVfrom
p1152
F22.94
sVfinal
p1153
I00
sa(dp1154
Vto
p1155
F23.83
sVconfidence
p1156
F0.511
sVspeaker
p1157
I0
sVfrom
p1158
F23.42
sVfinal
p1159
I00
sa(dp1160
Vto
p1161
F23.93
sVconfidence
p1162
F0.511
sVspeaker
p1163
I0
sVfrom
p1164
F23.83
sVfinal
p1165
I00
sa(dp1166
Vto
p1167
F24.18
sVconfidence
p1168
F0.511
sVspeaker
p1169
I0
sVfrom
p1170
F23.93
sVfinal
p1171
I00
sa(dp1172
Vto
p1173
F24.34
sVconfidence
p1174
F0.511
sVspeaker
p1175
I0
sVfrom
p1176
F24.18
sVfinal
p1177
I00
sa(dp1178
Vto
p1179
F24.47
sVconfidence
p1180
F0.511
sVspeaker
p1181
I0
sVfrom
p1182
F24.34
sVfinal
p1183
I00
sa(dp1184
Vto
p1185
F24.7
sVconfidence
p1186
F0.511
sVspeaker
p1187
I0
sVfrom
p1188
F24.47
sVfinal
p1189
I00
sa(dp1190
Vto
p1191
F25.37
sVconfidence
p1192
F0.297
sVspeaker
p1193
I1
sVfrom
p1194
F25.02
sVfinal
p1195
I00
sa(dp1196
Vto
p1197
F25.76
sVconfidence
p1198
F0.365
sVspeaker
p1199
I0
sVfrom
p1200
F25.4
sVfinal
p1201
I00
sa(dp1202
Vto
p1203
F26.15
sVconfidence
p1204
F0.365
sVspeaker
p1205
I0
sVfrom
p1206
F25.76
sVfinal
p1207
I00
sa(dp1208
Vto
p1209
F26.51
sVconfidence
p1210
F0.365
sVspeaker
p1211
I0
sVfrom
p1212
F26.15
sVfinal
p1213
I00
sa(dp1214
Vto
p1215
F26.71
sVconfidence
p1216
F0.365
sVspeaker
p1217
I0
sVfrom
p1218
F26.51
sVfinal
p1219
I00
sa(dp1220
Vto
p1221
F26.99
sVconfidence
p1222
F0.532
sVspeaker
p1223
I0
sVfrom
p1224
F26.76
sVfinal
p1225
I00
sa(dp1226
Vto
p1227
F27.08
sVconfidence
p1228
F0.532
sVspeaker
p1229
I0
sVfrom
p1230
F26.99
sVfinal
p1231
I00
sa(dp1232
Vto
p1233
F27.36
sVconfidence
p1234
F0.532
sVspeaker
p1235
I0
sVfrom
p1236
F27.08
sVfinal
p1237
I00
sa(dp1238
Vto
p1239
F27.81
sVconfidence
p1240
F0.489
sVspeaker
p1241
I0
sVfrom
p1242
F27.4
sVfinal
p1243
I00
sa(dp1244
Vto
p1245
F27.96
sVconfidence
p1246
F0.489
sVspeaker
p1247
I0
sVfrom
p1248
F27.81
sVfinal
p1249
I00
sa(dp1250
Vto
p1251
F28.35
sVconfidence
p1252
F0.489
sVspeaker
p1253
I0
sVfrom
p1254
F27.96
sVfinal
p1255
I00
sa(dp1256
Vto
p1257
F29.22
sVconfidence
p1258
F0.658
sVspeaker
p1259
I0
sVfrom
p1260
F29.0
sVfinal
p1261
I00
sa(dp1262
Vto
p1263
F29.39
sVconfidence
p1264
F0.658
sVspeaker
p1265
I0
sVfrom
p1266
F29.22
sVfinal
p1267
I00
sa(dp1268
Vto
p1269
F29.97
sVconfidence
p1270
F0.658
sVspeaker
p1271
I0
sVfrom
p1272
F29.39
sVfinal
p1273
I00
sa(dp1274
Vto
p1275
F30.48
sVconfidence
p1276
F0.628
sVspeaker
p1277
I0
sVfrom
p1278
F30.0
sVfinal
p1279
I00
sa(dp1280
Vto
p1281
F30.94
sVconfidence
p1282
F0.322
sVspeaker
p1283
I1
sVfrom
p1284
F30.59
sVfinal
p1285
I00
sa(dp1286
Vto
p1287
F31.15
sVconfidence
p1288
F0.654
sVspeaker
p1289
I0
sVfrom
p1290
F31.0
sVfinal
p1291
I00
sa(dp1292
Vto
p1293
F31.33
sVconfidence
p1294
F0.654
sVspeaker
p1295
I0
sVfrom
p1296
F31.15
sVfinal
p1297
I00
sa(dp1298
Vto
p1299
F31.55
sVconfidence
p1300
F0.654
sVspeaker
p1301
I0
sVfrom
p1302
F31.33
sVfinal
p1303
I00
sa(dp1304
Vto
p1305
F32.23
sVconfidence
p1306
F0.598
sVspeaker
p1307
I1
sVfrom
p1308
F31.94
sVfinal
p1309
I00
sa(dp1310
Vto
p1311
F32.35
sVconfidence
p1312
F0.598
sVspeaker
p1313
I1
sVfrom
p1314
F32.23
sVfinal
p1315
I00
sa(dp1316
Vto
p1317
F32.46
sVconfidence
p1318
F0.598
sVspeaker
p1319
I1
sVfrom
p1320
F32.35
sVfinal
p1321
I00
sa(dp1322
Vto
p1323
F32.97
sVconfidence
p1324
F0.598
sVspeaker
p1325
I1
sVfrom
p1326
F32.46
sVfinal
p1327
I00
sa(dp1328
Vto
p1329
F33.46
sVconfidence
p1330
F0.598
sVspeaker
p1331
I1
sVfrom
p1332
F32.97
sVfinal
p1333
I00
sa(dp1334
Vto
p1335
F33.58
sVconfidence
p1336
F0.598
sVspeaker
p1337
I1
sVfrom
p1338
F33.46
sVfinal
p1339
I00
sa(dp1340
Vto
p1341
F34.02
sVconfidence
p1342
F0.598
sVspeaker
p1343
I1
sVfrom
p1344
F33.58
sVfinal
p1345
I00
sa(dp1346
Vto
p1347
F35.02
sVconfidence
p1348
F0.486
sVspeaker
p1349
I1
sVfrom
p1350
F34.3
sVfinal
p1351
I00
sa(dp1352
Vto
p1353
F35.38
sVconfidence
p1354
F0.523
sVspeaker
p1355
I1
sVfrom
p1356
F35.12
sVfinal
p1357
I00
sa(dp1358
Vto
p1359
F35.65
sVconfidence
p1360
F0.523
sVspeaker
p1361
I1
sVfrom
p1362
F35.38
sVfinal
p1363
I00
sa(dp1364
Vto
p1365
F35.84
sVconfidence
p1366
F0.523
sVspeaker
p1367
I1
sVfrom
p1368
F35.65
sVfinal
p1369
I00
sa(dp1370
Vto
p1371
F36.08
sVconfidence
p1372
F0.523
sVspeaker
p1373
I1
sVfrom
p1374
F35.84
sVfinal
p1375
I00
sa(dp1376
Vto
p1377
F36.18
sVconfidence
p1378
F0.523
sVspeaker
p1379
I1
sVfrom
p1380
F36.08
sVfinal
p1381
I00
sa(dp1382
Vto
p1383
F36.61
sVconfidence
p1384
F0.523
sVspeaker
p1385
I1
sVfrom
p1386
F36.18
sVfinal
p1387
I00
sa(dp1388
Vto
p1389
F37.05
sVconfidence
p1390
F0.479
sVspeaker
p1391
I1
sVfrom
p1392
F36.64
sVfinal
p1393
I00
sa(dp1394
Vto
p1395
F37.75
sVconfidence
p1396
F0.577
sVspeaker
p1397
I1
sVfrom
p1398
F37.08
sVfinal
p1399
I00
sa(dp1400
Vto
p1401
F38.2
sVconfidence
p1402
F0.432
sVspeaker
p1403
I1
sVfrom
p1404
F37.78
sVfinal
p1405
I00
sa(dp1406
Vto
p1407
F38.34
sVconfidence
p1408
F0.64
sVspeaker
p1409
I1
sVfrom
p1410
F38.23
sVfinal
p1411
I00
sa(dp1412
Vto
p1413
F38.45
sVconfidence
p1414
F0.64
sVspeaker
p1415
I1
sVfrom
p1416
F38.34
sVfinal
p1417
I00
sa(dp1418
Vto
p1419
F38.79
sVconfidence
p1420
F0.64
sVspeaker
p1421
I1
sVfrom
p1422
F38.45
sVfinal
p1423
I00
sa(dp1424
Vto
p1425
F38.98
sVconfidence
p1426
F0.64
sVspeaker
p1427
I1
sVfrom
p1428
F38.79
sVfinal
p1429
I00
sa(dp1430
Vto
p1431
F39.21
sVconfidence
p1432
F0.64
sVspeaker
p1433
I1
sVfrom
p1434
F38.98
sVfinal
p1435
I00
sa(dp1436
Vto
p1437
F39.51
sVconfidence
p1438
F0.64
sVspeaker
p1439
I1
sVfrom
p1440
F39.21
sVfinal
p1441
I00
sa(dp1442
Vto
p1443
F39.75
sVconfidence
p1444
F0.64
sVspeaker
p1445
I1
sVfrom
p1446
F39.51
sVfinal
p1447
I00
sa(dp1448
Vto
p1449
F40.2
sVconfidence
p1450
F0.569
sVspeaker
p1451
I1
sVfrom
p1452
F39.78
sVfinal
p1453
I00
sa(dp1454
Vto
p1455
F40.51
sVconfidence
p1456
F0.569
sVspeaker
p1457
I1
sVfrom
p1458
F40.2
sVfinal
p1459
I00
sa(dp1460
Vto
p1461
F41.7
sVconfidence
p1462
F0.432
sVspeaker
p1463
I1
sVfrom
p1464
F40.89
sVfinal
p1465
I00
sa(dp1466
Vto
p1467
F42.06
sVconfidence
p1468
F0.526
sVspeaker
p1469
I1
sVfrom
p1470
F41.79
sVfinal
p1471
I00
sa(dp1472
Vto
p1473
F42.64
sVconfidence
p1474
F0.526
sVspeaker
p1475
I1
sVfrom
p1476
F42.06
sVfinal
p1477
I00
sa(dp1478
Vto
p1479
F43.59
sVconfidence
p1480
F0.564
sVspeaker
p1481
I1
sVfrom
p1482
F42.92
sVfinal
p1483
I00
sa(dp1484
Vto
p1485
F43.74
sVconfidence
p1486
F0.564
sVspeaker
p1487
I1
sVfrom
p1488
F43.59
sVfinal
p1489
I00
sa(dp1490
Vto
p1491
F44.1
sVconfidence
p1492
F0.564
sVspeaker
p1493
I1
sVfrom
p1494
F43.74
sVfinal
p1495
I00
sa(dp1496
Vto
p1497
F44.5
sVconfidence
p1498
F0.618
sVspeaker
p1499
I1
sVfrom
p1500
F44.13
sVfinal
p1501
I00
sa(dp1502
Vto
p1503
F44.72
sVconfidence
p1504
F0.618
sVspeaker
p1505
I1
sVfrom
p1506
F44.5
sVfinal
p1507
I00
sa(dp1508
Vto
p1509
F44.81
sVconfidence
p1510
F0.618
sVspeaker
p1511
I1
sVfrom
p1512
F44.72
sVfinal
p1513
I00
sa(dp1514
Vto
p1515
F45.28
sVconfidence
p1516
F0.618
sVspeaker
p1517
I1
sVfrom
p1518
F44.81
sVfinal
p1519
I00
sa(dp1520
Vto
p1521
F45.39
sVconfidence
p1522
F0.616
sVspeaker
p1523
I1
sVfrom
p1524
F45.31
sVfinal
p1525
I00
sa(dp1526
Vto
p1527
F45.63
sVconfidence
p1528
F0.415
sVspeaker
p1529
I1
sVfrom
p1530
F45.42
sVfinal
p1531
I00
sa(dp1532
Vto
p1533
F45.71
sVconfidence
p1534
F0.415
sVspeaker
p1535
I1
sVfrom
p1536
F45.63
sVfinal
p1537
I00
sa(dp1538
Vto
p1539
F45.87
sVconfidence
p1540
F0.415
sVspeaker
p1541
I1
sVfrom
p1542
F45.71
sVfinal
p1543
I00
sa(dp1544
Vto
p1545
F45.99
sVconfidence
p1546
F0.415
sVspeaker
p1547
I1
sVfrom
p1548
F45.87
sVfinal
p1549
I00
sa(dp1550
Vto
p1551
F46.4
sVconfidence
p1552
F0.415
sVspeaker
p1553
I1
sVfrom
p1554
F45.99
sVfinal
p1555
I00
sa(dp1556
Vto
p1557
F46.93
sVconfidence
p1558
F0.415
sVspeaker
p1559
I1
sVfrom
p1560
F46.4
sVfinal
p1561
I00
sa(dp1562
Vto
p1563
F47.39
sVconfidence
p1564
F0.412
sVspeaker
p1565
I1
sVfrom
p1566
F47.17
sVfinal
p1567
I00
sa(dp1568
Vto
p1569
F47.82
sVconfidence
p1570
F0.605
sVspeaker
p1571
I1
sVfrom
p1572
F47.42
sVfinal
p1573
I00
sa(dp1574
Vto
p1575
F48.36
sVconfidence
p1576
F0.605
sVspeaker
p1577
I1
sVfrom
p1578
F47.82
sVfinal
p1579
I00
sa(dp1580
Vto
p1581
F48.97
sVconfidence
p1582
F0.608
sVspeaker
p1583
I1
sVfrom
p1584
F48.39
sVfinal
p1585
I00
sa(dp1586
Vto
p1587
F50.01
sVconfidence
p1588
F0.553
sVspeaker
p1589
I1
sVfrom
p1590
F49.31
sVfinal
p1591
I00
sa(dp1592
Vto
p1593
F50.51
sVconfidence
p1594
F0.525
sVspeaker
p1595
I1
sVfrom
p1596
F50.05
sVfinal
p1597
I00
sa(dp1598
Vto
p1599
F50.95
sVconfidence
p1600
F0.637
sVspeaker
p1601
I1
sVfrom
p1602
F50.54
sVfinal
p1603
I00
sa(dp1604
Vto
p1605
F51.12
sVconfidence
p1606
F0.637
sVspeaker
p1607
I1
sVfrom
p1608
F50.95
sVfinal
p1609
I00
sa(dp1610
Vto
p1611
F51.25
sVconfidence
p1612
F0.637
sVspeaker
p1613
I1
sVfrom
p1614
F51.12
sVfinal
p1615
I00
sa(dp1616
Vto
p1617
F51.58
sVconfidence
p1618
F0.637
sVspeaker
p1619
I1
sVfrom
p1620
F51.25
sVfinal
p1621
I00
sa(dp1622
Vto
p1623
F51.79
sVconfidence
p1624
F0.487
sVspeaker
p1625
I1
sVfrom
p1626
F51.61
sVfinal
p1627
I00
sa(dp1628
Vto
p1629
F52.01
sVconfidence
p1630
F0.644
sVspeaker
p1631
I1
sVfrom
p1632
F51.82
sVfinal
p1633
I00
sa(dp1634
Vto
p1635
F52.19
sVconfidence
p1636
F0.644
sVspeaker
p1637
I1
sVfrom
p1638
F52.01
sVfinal
p1639
I00
sa(dp1640
Vto
p1641
F52.41
sVconfidence
p1642
F0.644
sVspeaker
p1643
I1
sVfrom
p1644
F52.19
sVfinal
p1645
I00
sa(dp1646
Vto
p1647
F52.54
sVconfidence
p1648
F0.644
sVspeaker
p1649
I1
sVfrom
p1650
F52.41
sVfinal
p1651
I00
sa(dp1652
Vto
p1653
F52.98
sVconfidence
p1654
F0.644
sVspeaker
p1655
I1
sVfrom
p1656
F52.54
sVfinal
p1657
I00
sa(dp1658
Vto
p1659
F53.36
sVconfidence
p1660
F0.616
sVspeaker
p1661
I1
sVfrom
p1662
F53.05
sVfinal
p1663
I00
sa(dp1664
Vto
p1665
F53.72
sVconfidence
p1666
F0.616
sVspeaker
p1667
I1
sVfrom
p1668
F53.36
sVfinal
p1669
I00
sa(dp1670
Vto
p1671
F54.13
sVconfidence
p1672
F0.655
sVspeaker
p1673
I1
sVfrom
p1674
F53.75
sVfinal
p1675
I00
sa(dp1676
Vto
p1677
F54.34
sVconfidence
p1678
F0.655
sVspeaker
p1679
I1
sVfrom
p1680
F54.13
sVfinal
p1681
I00
sa(dp1682
Vto
p1683
F54.96
sVconfidence
p1684
F0.655
sVspeaker
p1685
I1
sVfrom
p1686
F54.34
sVfinal
p1687
I00
sa(dp1688
Vto
p1689
F55.55
sVconfidence
p1690
F0.654
sVspeaker
p1691
I1
sVfrom
p1692
F55.33
sVfinal
p1693
I00
sa(dp1694
Vto
p1695
F55.67
sVconfidence
p1696
F0.654
sVspeaker
p1697
I1
sVfrom
p1698
F55.55
sVfinal
p1699
I00
sa(dp1700
Vto
p1701
F56.01
sVconfidence
p1702
F0.654
sVspeaker
p1703
I1
sVfrom
p1704
F55.67
sVfinal
p1705
I00
sa(dp1706
Vto
p1707
F56.35
sVconfidence
p1708
F0.654
sVspeaker
p1709
I1
sVfrom
p1710
F56.01
sVfinal
p1711
I00
sa(dp1712
Vto
p1713
F57.13
sVconfidence
p1714
F0.472
sVspeaker
p1715
I1
sVfrom
p1716
F56.43
sVfinal
p1717
I00
sa(dp1718
Vto
p1719
F57.52
sVconfidence
p1720
F0.375
sVspeaker
p1721
I1
sVfrom
p1722
F57.2
sVfinal
p1723
I00
sa(dp1724
Vto
p1725
F57.93
sVconfidence
p1726
F0.373
sVspeaker
p1727
I1
sVfrom
p1728
F57.55
sVfinal
p1729
I00
sa(dp1730
Vto
p1731
F58.05
sVconfidence
p1732
F0.373
sVspeaker
p1733
I1
sVfrom
p1734
F57.93
sVfinal
p1735
I00
sa(dp1736
Vto
p1737
F58.73
sVconfidence
p1738
F0.373
sVspeaker
p1739
I1
sVfrom
p1740
F58.05
sVfinal
p1741
I00
sa(dp1742
Vto
p1743
F59.15
sVconfidence
p1744
F0.344
sVspeaker
p1745
I1
sVfrom
p1746
F58.85
sVfinal
p1747
I00
sa(dp1748
Vto
p1749
F59.4
sVconfidence
p1750
F0.344
sVspeaker
p1751
I1
sVfrom
p1752
F59.15
sVfinal
p1753
I00
sa(dp1754
Vto
p1755
F59.77
sVconfidence
p1756
F0.357
sVspeaker
p1757
I1
sVfrom
p1758
F59.48
sVfinal
p1759
I00
sa(dp1760
Vto
p1761
F59.92
sVconfidence
p1762
F0.357
sVspeaker
p1763
I1
sVfrom
p1764
F59.77
sVfinal
p1765
I00
sa(dp1766
Vto
p1767
F60.61
sVconfidence
p1768
F0.481
sVspeaker
p1769
I1
sVfrom
p1770
F60.14
sVfinal
p1771
I00
sa(dp1772
Vto
p1773
F61.4
sVconfidence
p1774
F0.647
sVspeaker
p1775
I1
sVfrom
p1776
F61.13
sVfinal
p1777
I00
sa(dp1778
Vto
p1779
F61.58
sVconfidence
p1780
F0.647
sVspeaker
p1781
I1
sVfrom
p1782
F61.4
sVfinal
p1783
I00
sa(dp1784
Vto
p1785
F61.72
sVconfidence
p1786
F0.647
sVspeaker
p1787
I1
sVfrom
p1788
F61.58
sVfinal
p1789
I00
sa(dp1790
Vto
p1791
F61.97
sVconfidence
p1792
F0.647
sVspeaker
p1793
I1
sVfrom
p1794
F61.72
sVfinal
p1795
I00
sa(dp1796
Vto
p1797
F62.29
sVconfidence
p1798
F0.647
sVspeaker
p1799
I1
sVfrom
p1800
F61.97
sVfinal
p1801
I00
sa(dp1802
Vto
p1803
F62.65
sVconfidence
p1804
F0.599
sVspeaker
p1805
I1
sVfrom
p1806
F62.32
sVfinal
p1807
I00
sa(dp1808
Vto
p1809
F63.13
sVconfidence
p1810
F0.599
sVspeaker
p1811
I1
sVfrom
p1812
F62.65
sVfinal
p1813
I00
sa(dp1814
Vto
p1815
F63.7
sVconfidence
p1816
F0.599
sVspeaker
p1817
I1
sVfrom
p1818
F63.13
sVfinal
p1819
I00
sa(dp1820
Vto
p1821
F64.38
sVconfidence
p1822
F0.558
sVspeaker
p1823
I1
sVfrom
p1824
F63.73
sVfinal
p1825
I00
sa(dp1826
Vto
p1827
F64.77
sVconfidence
p1828
F0.595
sVspeaker
p1829
I1
sVfrom
p1830
F64.41
sVfinal
p1831
I00
sa(dp1832
Vto
p1833
F65.34
sVconfidence
p1834
F0.588
sVspeaker
p1835
I1
sVfrom
p1836
F64.8
sVfinal
p1837
I00
sa(dp1838
Vto
p1839
F65.8
sVconfidence
p1840
F0.555
sVspeaker
p1841
I1
sVfrom
p1842
F65.51
sVfinal
p1843
I00
sa(dp1844
Vto
p1845
F66.01
sVconfidence
p1846
F0.555
sVspeaker
p1847
I1
sVfrom
p1848
F65.8
sVfinal
p1849
I00
sa(dp1850
Vto
p1851
F66.43
sVconfidence
p1852
F0.555
sVspeaker
p1853
I1
sVfrom
p1854
F66.01
sVfinal
p1855
I00
sa(dp1856
Vto
p1857
F67.37
sVconfidence
p1858
F0.58
sVspeaker
p1859
I1
sVfrom
p1860
F66.77
sVfinal
p1861
I00
sa(dp1862
Vto
p1863
F67.47
sVconfidence
p1864
F0.643
sVspeaker
p1865
I1
sVfrom
p1866
F67.4
sVfinal
p1867
I00
sa(dp1868
Vto
p1869
F67.66
sVconfidence
p1870
F0.643
sVspeaker
p1871
I1
sVfrom
p1872
F67.47
sVfinal
p1873
I00
sa(dp1874
Vto
p1875
F67.88
sVconfidence
p1876
F0.643
sVspeaker
p1877
I1
sVfrom
p1878
F67.66
sVfinal
p1879
I00
sa(dp1880
Vto
p1881
F68.45
sVconfidence
p1882
F0.643
sVspeaker
p1883
I1
sVfrom
p1884
F67.88
sVfinal
p1885
I00
sa(dp1886
Vto
p1887
F68.7
sVconfidence
p1888
F0.549
sVspeaker
p1889
I1
sVfrom
p1890
F68.54
sVfinal
p1891
I00
sa(dp1892
Vto
p1893
F68.9
sVconfidence
p1894
F0.549
sVspeaker
p1895
I1
sVfrom
p1896
F68.7
sVfinal
p1897
I00
sa(dp1898
Vto
p1899
F69.32
sVconfidence
p1900
F0.419
sVspeaker
p1901
I1
sVfrom
p1902
F69.07
sVfinal
p1903
I00
sa(dp1904
Vto
p1905
F69.52
sVconfidence
p1906
F0.419
sVspeaker
p1907
I1
sVfrom
p1908
F69.32
sVfinal
p1909
I00
sa(dp1910
Vto
p1911
F69.89
sVconfidence
p1912
F0.419
sVspeaker
p1913
I1
sVfrom
p1914
F69.52
sVfinal
p1915
I00
sa(dp1916
Vto
p1917
F70.36
sVconfidence
p1918
F0.419
sVspeaker
p1919
I1
sVfrom
p1920
F69.89
sVfinal
p1921
I00
sa(dp1922
Vto
p1923
F71.08
sVconfidence
p1924
F0.626
sVspeaker
p1925
I1
sVfrom
p1926
F70.78
sVfinal
p1927
I00
sa(dp1928
Vto
p1929
F71.36
sVconfidence
p1930
F0.626
sVspeaker
p1931
I1
sVfrom
p1932
F71.08
sVfinal
p1933
I00
sa(dp1934
Vto
p1935
F71.46
sVconfidence
p1936
F0.626
sVspeaker
p1937
I1
sVfrom
p1938
F71.36
sVfinal
p1939
I00
sa(dp1940
Vto
p1941
F71.79
sVconfidence
p1942
F0.626
sVspeaker
p1943
I1
sVfrom
p1944
F71.46
sVfinal
p1945
I00
sa(dp1946
Vto
p1947
F71.91
sVconfidence
p1948
F0.626
sVspeaker
p1949
I1
sVfrom
p1950
F71.79
sVfinal
p1951
I00
sa(dp1952
Vto
p1953
F72.12
sVconfidence
p1954
F0.626
sVspeaker
p1955
I1
sVfrom
p1956
F71.91
sVfinal
p1957
I00
sa(dp1958
Vto
p1959
F72.58
sVconfidence
p1960
F0.48
sVspeaker
p1961
I1
sVfrom
p1962
F72.15
sVfinal
p1963
I00
sa(dp1964
Vto
p1965
F73.19
sVconfidence
p1966
F0.48
sVspeaker
p1967
I1
sVfrom
p1968
F72.58
sVfinal
p1969
I00
sa(dp1970
Vto
p1971
F73.94
sVconfidence
p1972
F0.628
sVspeaker
p1973
I0
sVfrom
p1974
F73.84
sVfinal
p1975
I00
sa(dp1976
Vto
p1977
F74.27
sVconfidence
p1978
F0.628
sVspeaker
p1979
I0
sVfrom
p1980
F73.94
sVfinal
p1981
I00
sa(dp1982
Vto
p1983
F74.36
sVconfidence
p1984
F0.628
sVspeaker
p1985
I0
sVfrom
p1986
F74.27
sVfinal
p1987
I00
sa(dp1988
Vto
p1989
F74.44
sVconfidence
p1990
F0.628
sVspeaker
p1991
I0
sVfrom
p1992
F74.36
sVfinal
p1993
I00
sa(dp1994
Vto
p1995
F74.74
sVconfidence
p1996
F0.628
sVspeaker
p1997
I0
sVfrom
p1998
F74.44
sVfinal
p1999
I00
sa(dp2000
Vto
p2001
F75.02
sVconfidence
p2002
F0.628
sVspeaker
p2003
I0
sVfrom
p2004
F74.74
sVfinal
p2005
I00
sa(dp2006
Vto
p2007
F75.2
sVconfidence
p2008
F0.539
sVspeaker
p2009
I0
sVfrom
p2010
F75.13
sVfinal
p2011
I00
sa(dp2012
Vto
p2013
F75.56
sVconfidence
p2014
F0.539
sVspeaker
p2015
I0
sVfrom
p2016
F75.2
sVfinal
p2017
I00
sa(dp2018
Vto
p2019
F75.72
sVconfidence
p2020
F0.539
sVspeaker
p2021
I0
sVfrom
p2022
F75.56
sVfinal
p2023
I00
sa(dp2024
Vto
p2025
F75.96
sVconfidence
p2026
F0.539
sVspeaker
p2027
I0
sVfrom
p2028
F75.72
sVfinal
p2029
I00
sa(dp2030
Vto
p2031
F76.34
sVconfidence
p2032
F0.539
sVspeaker
p2033
I0
sVfrom
p2034
F75.96
sVfinal
p2035
I00
sa(dp2036
Vto
p2037
F76.61
sVconfidence
p2038
F0.539
sVspeaker
p2039
I0
sVfrom
p2040
F76.34
sVfinal
p2041
I00
sa(dp2042
Vto
p2043
F76.8
sVconfidence
p2044
F0.647
sVspeaker
p2045
I0
sVfrom
p2046
F76.64
sVfinal
p2047
I00
sa(dp2048
Vto
p2049
F76.89
sVconfidence
p2050
F0.647
sVspeaker
p2051
I0
sVfrom
p2052
F76.8
sVfinal
p2053
I00
sa(dp2054
Vto
p2055
F77.17
sVconfidence
p2056
F0.647
sVspeaker
p2057
I0
sVfrom
p2058
F76.89
sVfinal
p2059
I00
sa(dp2060
Vto
p2061
F77.36
sVconfidence
p2062
F0.647
sVspeaker
p2063
I0
sVfrom
p2064
F77.17
sVfinal
p2065
I00
sa(dp2066
Vto
p2067
F78.05
sVconfidence
p2068
F0.557
sVspeaker
p2069
I0
sVfrom
p2070
F77.56
sVfinal
p2071
I00
sa(dp2072
Vto
p2073
F78.41
sVconfidence
p2074
F0.564
sVspeaker
p2075
I0
sVfrom
p2076
F78.1
sVfinal
p2077
I00
sa(dp2078
Vto
p2079
F79.02
sVconfidence
p2080
F0.543
sVspeaker
p2081
I0
sVfrom
p2082
F78.71
sVfinal
p2083
I00
sa(dp2084
Vto
p2085
F79.52
sVconfidence
p2086
F0.642
sVspeaker
p2087
I0
sVfrom
p2088
F79.13
sVfinal
p2089
I00
sa(dp2090
Vto
p2091
F80.01
sVconfidence
p2092
F0.642
sVspeaker
p2093
I0
sVfrom
p2094
F79.52
sVfinal
p2095
I00
sa(dp2096
Vto
p2097
F80.45
sVconfidence
p2098
F0.642
sVspeaker
p2099
I0
sVfrom
p2100
F80.01
sVfinal
p2101
I00
sa(dp2102
Vto
p2103
F81.33
sVconfidence
p2104
F0.523
sVspeaker
p2105
I0
sVfrom
p2106
F80.92
sVfinal
p2107
I00
sa(dp2108
Vto
p2109
F81.57
sVconfidence
p2110
F0.62
sVspeaker
p2111
I0
sVfrom
p2112
F81.36
sVfinal
p2113
I00
sa(dp2114
Vto
p2115
F82.12
sVconfidence
p2116
F0.62
sVspeaker
p2117
I0
sVfrom
p2118
F81.57
sVfinal
p2119
I00
sa(dp2120
Vto
p2121
F82.79
sVconfidence
p2122
F0.572
sVspeaker
p2123
I0
sVfrom
p2124
F82.43
sVfinal
p2125
I00
sa(dp2126
Vto
p2127
F83.6
sVconfidence
p2128
F0.606
sVspeaker
p2129
I0
sVfrom
p2130
F82.82
sVfinal
p2131
I00
sa(dp2132
Vto
p2133
F83.83
sVconfidence
p2134
F0.616
sVspeaker
p2135
I0
sVfrom
p2136
F83.65
sVfinal
p2137
I00
sa(dp2138
Vto
p2139
F84.2
sVconfidence
p2140
F0.616
sVspeaker
p2141
I0
sVfrom
p2142
F83.83
sVfinal
p2143
I00
sa(dp2144
Vto
p2145
F84.32
sVconfidence
p2146
F0.616
sVspeaker
p2147
I0
sVfrom
p2148
F84.2
sVfinal
p2149
I00
sa(dp2150
Vto
p2151
F84.56
sVconfidence
p2152
F0.616
sVspeaker
p2153
I0
sVfrom
p2154
F84.32
sVfinal
p2155
I00
sa(dp2156
Vto
p2157
F84.77
sVconfidence
p2158
F0.616
sVspeaker
p2159
I0
sVfrom
p2160
F84.56
sVfinal
p2161
I00
sa(dp2162
Vto
p2163
F84.96
sVconfidence
p2164
F0.616
sVspeaker
p2165
I0
sVfrom
p2166
F84.77
sVfinal
p2167
I00
sa(dp2168
Vto
p2169
F85.04
sVconfidence
p2170
F0.616
sVspeaker
p2171
I0
sVfrom
p2172
F84.96
sVfinal
p2173
I00
sa(dp2174
Vto
p2175
F85.26
sVconfidence
p2176
F0.616
sVspeaker
p2177
I0
sVfrom
p2178
F85.04
sVfinal
p2179
I00
sa(dp2180
Vto
p2181
F85.4
sVconfidence
p2182
F0.616
sVspeaker
p2183
I0
sVfrom
p2184
F85.26
sVfinal
p2185
I00
sa(dp2186
Vto
p2187
F85.74
sVconfidence
p2188
F0.617
sVspeaker
p2189
I0
sVfrom
p2190
F85.44
sVfinal
p2191
I00
sa(dp2192
Vto
p2193
F85.97
sVconfidence
p2194
F0.617
sVspeaker
p2195
I0
sVfrom
p2196
F85.74
sVfinal
p2197
I00
sa(dp2198
Vto
p2199
F86.12
sVconfidence
p2200
F0.617
sVspeaker
p2201
I0
sVfrom
p2202
F85.97
sVfinal
p2203
I00
sa(dp2204
Vto
p2205
F86.2
sVconfidence
p2206
F0.617
sVspeaker
p2207
I0
sVfrom
p2208
F86.12
sVfinal
p2209
I00
sa(dp2210
Vto
p2211
F86.63
sVconfidence
p2212
F0.617
sVspeaker
p2213
I0
sVfrom
p2214
F86.2
sVfinal
p2215
I00
sa(dp2216
Vto
p2217
F87.3
sVconfidence
p2218
F0.61
sVspeaker
p2219
I0
sVfrom
p2220
F86.96
sVfinal
p2221
I00
sa(dp2222
Vto
p2223
F87.77
sVconfidence
p2224
F0.61
sVspeaker
p2225
I0
sVfrom
p2226
F87.3
sVfinal
p2227
I00
sa(dp2228
Vto
p2229
F88.46
sVconfidence
p2230
F0.486
sVspeaker
p2231
I0
sVfrom
p2232
F88.06
sVfinal
p2233
I00
sa(dp2234
Vto
p2235
F89.18
sVconfidence
p2236
F0.541
sVspeaker
p2237
I0
sVfrom
p2238
F88.49
sVfinal
p2239
I00
sa(dp2240
Vto
p2241
F89.92
sVconfidence
p2242
F0.62
sVspeaker
p2243
I0
sVfrom
p2244
F89.21
sVfinal
p2245
I00
sa(dp2246
Vto
p2247
F90.58
sVconfidence
p2248
F0.524
sVspeaker
p2249
I0
sVfrom
p2250
F90.08
sVfinal
p2251
I00
sa(dp2252
Vto
p2253
F90.88
sVconfidence
p2254
F0.519
sVspeaker
p2255
I0
sVfrom
p2256
F90.61
sVfinal
p2257
I00
sa(dp2258
Vto
p2259
F91.35
sVconfidence
p2260
F0.62
sVspeaker
p2261
I0
sVfrom
p2262
F90.91
sVfinal
p2263
I00
sa(dp2264
Vto
p2265
F91.46
sVconfidence
p2266
F0.62
sVspeaker
p2267
I0
sVfrom
p2268
F91.35
sVfinal
p2269
I00
sa(dp2270
Vto
p2271
F91.79
sVconfidence
p2272
F0.62
sVspeaker
p2273
I0
sVfrom
p2274
F91.46
sVfinal
p2275
I00
sa(dp2276
Vto
p2277
F92.08
sVconfidence
p2278
F0.62
sVspeaker
p2279
I0
sVfrom
p2280
F91.79
sVfinal
p2281
I00
sa(dp2282
Vto
p2283
F92.34
sVconfidence
p2284
F0.62
sVspeaker
p2285
I0
sVfrom
p2286
F92.08
sVfinal
p2287
I00
sa(dp2288
Vto
p2289
F92.44
sVconfidence
p2290
F0.62
sVspeaker
p2291
I0
sVfrom
p2292
F92.34
sVfinal
p2293
I00
sa(dp2294
Vto
p2295
F92.65
sVconfidence
p2296
F0.62
sVspeaker
p2297
I0
sVfrom
p2298
F92.44
sVfinal
p2299
I00
sa(dp2300
Vto
p2301
F93.0
sVconfidence
p2302
F0.62
sVspeaker
p2303
I0
sVfrom
p2304
F92.65
sVfinal
p2305
I00
sa(dp2306
Vto
p2307
F93.31
sVconfidence
p2308
F0.596
sVspeaker
p2309
I0
sVfrom
p2310
F93.03
sVfinal
p2311
I00
sa(dp2312
Vto
p2313
F93.41
sVconfidence
p2314
F0.596
sVspeaker
p2315
I0
sVfrom
p2316
F93.31
sVfinal
p2317
I00
sa(dp2318
Vto
p2319
F93.78
sVconfidence
p2320
F0.596
sVspeaker
p2321
I0
sVfrom
p2322
F93.41
sVfinal
p2323
I00
sa(dp2324
Vto
p2325
F94.05
sVconfidence
p2326
F0.596
sVspeaker
p2327
I0
sVfrom
p2328
F93.78
sVfinal
p2329
I00
sa(dp2330
Vto
p2331
F94.35
sVconfidence
p2332
F0.542
sVspeaker
p2333
I0
sVfrom
p2334
F94.12
sVfinal
p2335
I00
sa(dp2336
Vto
p2337
F94.5
sVconfidence
p2338
F0.592
sVspeaker
p2339
I0
sVfrom
p2340
F94.38
sVfinal
p2341
I00
sa(dp2342
Vto
p2343
F94.6
sVconfidence
p2344
F0.592
sVspeaker
p2345
I0
sVfrom
p2346
F94.5
sVfinal
p2347
I00
sa(dp2348
Vto
p2349
F95.02
sVconfidence
p2350
F0.592
sVspeaker
p2351
I0
sVfrom
p2352
F94.6
sVfinal
p2353
I00
sa(dp2354
Vto
p2355
F95.71
sVconfidence
p2356
F0.649
sVspeaker
p2357
I0
sVfrom
p2358
F95.56
sVfinal
p2359
I00
sa(dp2360
Vto
p2361
F95.92
sVconfidence
p2362
F0.649
sVspeaker
p2363
I0
sVfrom
p2364
F95.71
sVfinal
p2365
I00
sa(dp2366
Vto
p2367
F96.09
sVconfidence
p2368
F0.649
sVspeaker
p2369
I0
sVfrom
p2370
F95.92
sVfinal
p2371
I00
sa(dp2372
Vto
p2373
F96.42
sVconfidence
p2374
F0.649
sVspeaker
p2375
I0
sVfrom
p2376
F96.09
sVfinal
p2377
I00
sa(dp2378
Vto
p2379
F96.52
sVconfidence
p2380
F0.649
sVspeaker
p2381
I0
sVfrom
p2382
F96.42
sVfinal
p2383
I00
sa(dp2384
Vto
p2385
F96.61
sVconfidence
p2386
F0.649
sVspeaker
p2387
I0
sVfrom
p2388
F96.52
sVfinal
p2389
I00
sa(dp2390
Vto
p2391
F96.82
sVconfidence
p2392
F0.649
sVspeaker
p2393
I0
sVfrom
p2394
F96.61
sVfinal
p2395
I00
sa(dp2396
Vto
p2397
F97.5
sVconfidence
p2398
F0.649
sVspeaker
p2399
I0
sVfrom
p2400
F96.82
sVfinal
p2401
I00
sa(dp2402
Vto
p2403
F97.83
sVconfidence
p2404
F0.65
sVspeaker
p2405
I0
sVfrom
p2406
F97.53
sVfinal
p2407
I00
sa(dp2408
Vto
p2409
F97.96
sVconfidence
p2410
F0.65
sVspeaker
p2411
I0
sVfrom
p2412
F97.83
sVfinal
p2413
I00
sa(dp2414
Vto
p2415
F98.24
sVconfidence
p2416
F0.65
sVspeaker
p2417
I0
sVfrom
p2418
F97.96
sVfinal
p2419
I00
sa(dp2420
Vto
p2421
F98.38
sVconfidence
p2422
F0.65
sVspeaker
p2423
I0
sVfrom
p2424
F98.24
sVfinal
p2425
I00
sa(dp2426
Vto
p2427
F98.64
sVconfidence
p2428
F0.65
sVspeaker
p2429
I0
sVfrom
p2430
F98.38
sVfinal
p2431
I00
sa(dp2432
Vto
p2433
F98.96
sVconfidence
p2434
F0.65
sVspeaker
p2435
I0
sVfrom
p2436
F98.64
sVfinal
p2437
I00
sa(dp2438
Vto
p2439
F99.08
sVconfidence
p2440
F0.65
sVspeaker
p2441
I0
sVfrom
p2442
F98.96
sVfinal
p2443
I00
sa(dp2444
Vto
p2445
F99.5
sVconfidence
p2446
F0.65
sVspeaker
p2447
I0
sVfrom
p2448
F99.08
sVfinal
p2449
I00
sa(dp2450
Vto
p2451
F100.26
sVconfidence
p2452
F0.533
sVspeaker
p2453
I0
sVfrom
p2454
F99.76
sVfinal
p2455
I00
sa(dp2456
Vto
p2457
F100.6
sVconfidence
p2458
F0.558
sVspeaker
p2459
I0
sVfrom
p2460
F100.29
sVfinal
p2461
I00
sa(dp2462
Vto
p2463
F101.14
sVconfidence
p2464
F0.558
sVspeaker
p2465
I0
sVfrom
p2466
F100.6
sVfinal
p2467
I00
sa(dp2468
Vto
p2469
F101.48
sVconfidence
p2470
F0.558
sVspeaker
p2471
I0
sVfrom
p2472
F101.14
sVfinal
p2473
I00
sa(dp2474
Vto
p2475
F101.74
sVconfidence
p2476
F0.558
sVspeaker
p2477
I0
sVfrom
p2478
F101.48
sVfinal
p2479
I00
sa(dp2480
Vto
p2481
F102.11
sVconfidence
p2482
F0.613
sVspeaker
p2483
I0
sVfrom
p2484
F101.79
sVfinal
p2485
I00
sa(dp2486
Vto
p2487
F102.65
sVconfidence
p2488
F0.613
sVspeaker
p2489
I0
sVfrom
p2490
F102.11
sVfinal
p2491
I00
sa(dp2492
Vto
p2493
F102.84
sVconfidence
p2494
F0.66
sVspeaker
p2495
I0
sVfrom
p2496
F102.68
sVfinal
p2497
I00
sa(dp2498
Vto
p2499
F103.05
sVconfidence
p2500
F0.66
sVspeaker
p2501
I0
sVfrom
p2502
F102.84
sVfinal
p2503
I00
sa(dp2504
Vto
p2505
F103.42
sVconfidence
p2506
F0.66
sVspeaker
p2507
I0
sVfrom
p2508
F103.05
sVfinal
p2509
I00
sa(dp2510
Vto
p2511
F103.63
sVconfidence
p2512
F0.66
sVspeaker
p2513
I0
sVfrom
p2514
F103.42
sVfinal
p2515
I00
sa(dp2516
Vto
p2517
F103.7
sVconfidence
p2518
F0.66
sVspeaker
p2519
I0
sVfrom
p2520
F103.63
sVfinal
p2521
I00
sa(dp2522
Vto
p2523
F103.79
sVconfidence
p2524
F0.66
sVspeaker
p2525
I0
sVfrom
p2526
F103.7
sVfinal
p2527
I00
sa(dp2528
Vto
p2529
F104.17
sVconfidence
p2530
F0.66
sVspeaker
p2531
I0
sVfrom
p2532
F103.79
sVfinal
p2533
I00
sa(dp2534
Vto
p2535
F104.27
sVconfidence
p2536
F0.66
sVspeaker
p2537
I0
sVfrom
p2538
F104.17
sVfinal
p2539
I00
sa(dp2540
Vto
p2541
F104.54
sVconfidence
p2542
F0.66
sVspeaker
p2543
I0
sVfrom
p2544
F104.27
sVfinal
p2545
I00
sa(dp2546
Vto
p2547
F104.67
sVconfidence
p2548
F0.66
sVspeaker
p2549
I0
sVfrom
p2550
F104.54
sVfinal
p2551
I00
sa(dp2552
Vto
p2553
F104.81
sVconfidence
p2554
F0.66
sVspeaker
p2555
I0
sVfrom
p2556
F104.67
sVfinal
p2557
I00
sa(dp2558
Vto
p2559
F104.94
sVconfidence
p2560
F0.66
sVspeaker
p2561
I0
sVfrom
p2562
F104.81
sVfinal
p2563
I00
sa(dp2564
Vto
p2565
F105.27
sVconfidence
p2566
F0.66
sVspeaker
p2567
I0
sVfrom
p2568
F104.94
sVfinal
p2569
I00
sa(dp2570
Vto
p2571
F105.93
sVconfidence
p2572
F0.559
sVspeaker
p2573
I0
sVfrom
p2574
F105.55
sVfinal
p2575
I00
sa(dp2576
Vto
p2577
F106.51
sVconfidence
p2578
F0.625
sVspeaker
p2579
I0
sVfrom
p2580
F106.05
sVfinal
p2581
I00
sa(dp2582
Vto
p2583
F106.69
sVconfidence
p2584
F0.625
sVspeaker
p2585
I0
sVfrom
p2586
F106.51
sVfinal
p2587
I00
sa(dp2588
Vto
p2589
F106.84
sVconfidence
p2590
F0.625
sVspeaker
p2591
I0
sVfrom
p2592
F106.69
sVfinal
p2593
I00
sa(dp2594
Vto
p2595
F107.29
sVconfidence
p2596
F0.625
sVspeaker
p2597
I0
sVfrom
p2598
F106.84
sVfinal
p2599
I00
sa(dp2600
Vto
p2601
F107.44
sVconfidence
p2602
F0.625
sVspeaker
p2603
I0
sVfrom
p2604
F107.29
sVfinal
p2605
I00
sa(dp2606
Vto
p2607
F108.1
sVconfidence
p2608
F0.625
sVspeaker
p2609
I0
sVfrom
p2610
F107.44
sVfinal
p2611
I00
sa(dp2612
Vto
p2613
F108.98
sVconfidence
p2614
F0.588
sVspeaker
p2615
I0
sVfrom
p2616
F108.27
sVfinal
p2617
I00
sa(dp2618
Vto
p2619
F109.86
sVconfidence
p2620
F0.497
sVspeaker
p2621
I0
sVfrom
p2622
F109.1
sVfinal
p2623
I00
sa(dp2624
Vto
p2625
F110.7
sVconfidence
p2626
F0.626
sVspeaker
p2627
I0
sVfrom
p2628
F110.08
sVfinal
p2629
I00
sa(dp2630
Vto
p2631
F110.81
sVconfidence
p2632
F0.626
sVspeaker
p2633
I0
sVfrom
p2634
F110.7
sVfinal
p2635
I00
sa(dp2636
Vto
p2637
F110.91
sVconfidence
p2638
F0.626
sVspeaker
p2639
I0
sVfrom
p2640
F110.81
sVfinal
p2641
I00
sa(dp2642
Vto
p2643
F111.03
sVconfidence
p2644
F0.626
sVspeaker
p2645
I0
sVfrom
p2646
F110.91
sVfinal
p2647
I00
sa(dp2648
Vto
p2649
F111.17
sVconfidence
p2650
F0.626
sVspeaker
p2651
I0
sVfrom
p2652
F111.03
sVfinal
p2653
I00
sa(dp2654
Vto
p2655
F111.59
sVconfidence
p2656
F0.649
sVspeaker
p2657
I0
sVfrom
p2658
F111.45
sVfinal
p2659
I00
sa(dp2660
Vto
p2661
F111.69
sVconfidence
p2662
F0.649
sVspeaker
p2663
I0
sVfrom
p2664
F111.59
sVfinal
p2665
I00
sa(dp2666
Vto
p2667
F112.07
sVconfidence
p2668
F0.649
sVspeaker
p2669
I0
sVfrom
p2670
F111.69
sVfinal
p2671
I00
sa(dp2672
Vto
p2673
F112.34
sVconfidence
p2674
F0.649
sVspeaker
p2675
I0
sVfrom
p2676
F112.07
sVfinal
p2677
I00
sa(dp2678
Vto
p2679
F112.4
sVconfidence
p2680
F0.649
sVspeaker
p2681
I0
sVfrom
p2682
F112.34
sVfinal
p2683
I00
sa(dp2684
Vto
p2685
F112.51
sVconfidence
p2686
F0.649
sVspeaker
p2687
I0
sVfrom
p2688
F112.4
sVfinal
p2689
I00
sa(dp2690
Vto
p2691
F112.77
sVconfidence
p2692
F0.649
sVspeaker
p2693
I0
sVfrom
p2694
F112.51
sVfinal
p2695
I00
sa(dp2696
Vto
p2697
F112.86
sVconfidence
p2698
F0.649
sVspeaker
p2699
I0
sVfrom
p2700
F112.77
sVfinal
p2701
I00
sa(dp2702
Vto
p2703
F113.15
sVconfidence
p2704
F0.649
sVspeaker
p2705
I0
sVfrom
p2706
F112.86
sVfinal
p2707
I00
sa(dp2708
Vto
p2709
F113.55
sVconfidence
p2710
F0.649
sVspeaker
p2711
I0
sVfrom
p2712
F113.15
sVfinal
p2713
I00
sa(dp2714
Vto
p2715
F113.67
sVconfidence
p2716
F0.649
sVspeaker
p2717
I0
sVfrom
p2718
F113.55
sVfinal
p2719
I00
sa(dp2720
Vto
p2721
F113.84
sVconfidence
p2722
F0.649
sVspeaker
p2723
I0
sVfrom
p2724
F113.67
sVfinal
p2725
I00
sa(dp2726
Vto
p2727
F114.89
sVconfidence
p2728
F0.449
sVspeaker
p2729
I0
sVfrom
p2730
F114.2
sVfinal
p2731
I00
sa(dp2732
Vto
p2733
F115.18
sVconfidence
p2734
F0.632
sVspeaker
p2735
I0
sVfrom
p2736
F115.06
sVfinal
p2737
I00
sa(dp2738
Vto
p2739
F115.58
sVconfidence
p2740
F0.632
sVspeaker
p2741
I0
sVfrom
p2742
F115.18
sVfinal
p2743
I00
sa(dp2744
Vto
p2745
F115.94
sVconfidence
p2746
F0.632
sVspeaker
p2747
I0
sVfrom
p2748
F115.58
sVfinal
p2749
I00
sa(dp2750
Vto
p2751
F116.15
sVconfidence
p2752
F0.632
sVspeaker
p2753
I0
sVfrom
p2754
F115.94
sVfinal
p2755
I00
sa(dp2756
Vto
p2757
F116.58
sVconfidence
p2758
F0.632
sVspeaker
p2759
I0
sVfrom
p2760
F116.15
sVfinal
p2761
I00
sa(dp2762
Vto
p2763
F116.72
sVconfidence
p2764
F0.632
sVspeaker
p2765
I0
sVfrom
p2766
F116.58
sVfinal
p2767
I00
sa(dp2768
Vto
p2769
F116.95
sVconfidence
p2770
F0.632
sVspeaker
p2771
I0
sVfrom
p2772
F116.72
sVfinal
p2773
I00
sa(dp2774
Vto
p2775
F117.28
sVconfidence
p2776
F0.632
sVspeaker
p2777
I0
sVfrom
p2778
F116.95
sVfinal
p2779
I00
sa(dp2780
Vto
p2781
F117.36
sVconfidence
p2782
F0.632
sVspeaker
p2783
I0
sVfrom
p2784
F117.28
sVfinal
p2785
I00
sa(dp2786
Vto
p2787
F117.8
sVconfidence
p2788
F0.632
sVspeaker
p2789
I0
sVfrom
p2790
F117.36
sVfinal
p2791
I00
sa(dp2792
Vto
p2793
F118.38
sVconfidence
p2794
F0.65
sVspeaker
p2795
I0
sVfrom
p2796
F117.88
sVfinal
p2797
I00
sa(dp2798
Vto
p2799
F118.6
sVconfidence
p2800
F0.65
sVspeaker
p2801
I0
sVfrom
p2802
F118.38
sVfinal
p2803
I00
sa(dp2804
Vto
p2805
F119.44
sVconfidence
p2806
F0.65
sVspeaker
p2807
I0
sVfrom
p2808
F118.6
sVfinal
p2809
I01
sas.